
sonar.elf:     file format elf32-littlearm


Disassembly of section .text:

00008000 <_start>:
    8000:	e3a0d302 	mov	sp, #134217728	; 0x8000000
    8004:	e3a0b000 	mov	fp, #0
    8008:	eb0008cd 	bl	a344 <_cstart>
    800c:	eb000813 	bl	a060 <rpi_reboot>

00008010 <chip_select>:
    8010:	e92d4008 	push	{r3, lr}
    8014:	e3500002 	cmp	r0, #2
    8018:	9a000005 	bls	8034 <chip_select+0x24>
    801c:	e59f0028 	ldr	r0, [pc, #40]	; 804c <chip_select+0x3c>
    8020:	e59f1028 	ldr	r1, [pc, #40]	; 8050 <chip_select+0x40>
    8024:	e59f2028 	ldr	r2, [pc, #40]	; 8054 <chip_select+0x44>
    8028:	e3a03020 	mov	r3, #32
    802c:	eb000696 	bl	9a8c <printk>
    8030:	eb00080a 	bl	a060 <rpi_reboot>
    8034:	e59f301c 	ldr	r3, [pc, #28]	; 8058 <chip_select+0x48>
    8038:	e5932000 	ldr	r2, [r3]
    803c:	e3c22003 	bic	r2, r2, #3
    8040:	e1800002 	orr	r0, r0, r2
    8044:	e5830000 	str	r0, [r3]
    8048:	e8bd8008 	pop	{r3, pc}
    804c:	0000a80c 	andeq	sl, r0, ip, lsl #16
    8050:	0000a858 	andeq	sl, r0, r8, asr r8
    8054:	0000a7d4 	ldrdeq	sl, [r0], -r4
    8058:	20204000 	eorcs	r4, r0, r0

0000805c <transfer_active>:
    805c:	e92d4008 	push	{r3, lr}
    8060:	e3500001 	cmp	r0, #1
    8064:	9a000005 	bls	8080 <transfer_active+0x24>
    8068:	e59f0028 	ldr	r0, [pc, #40]	; 8098 <transfer_active+0x3c>
    806c:	e59f1028 	ldr	r1, [pc, #40]	; 809c <transfer_active+0x40>
    8070:	e59f2028 	ldr	r2, [pc, #40]	; 80a0 <transfer_active+0x44>
    8074:	e3a03025 	mov	r3, #37	; 0x25
    8078:	eb000683 	bl	9a8c <printk>
    807c:	eb0007f7 	bl	a060 <rpi_reboot>
    8080:	e59f301c 	ldr	r3, [pc, #28]	; 80a4 <transfer_active+0x48>
    8084:	e5932000 	ldr	r2, [r3]
    8088:	e3c22080 	bic	r2, r2, #128	; 0x80
    808c:	e1820380 	orr	r0, r2, r0, lsl #7
    8090:	e5830000 	str	r0, [r3]
    8094:	e8bd8008 	pop	{r3, pc}
    8098:	0000a864 	andeq	sl, r0, r4, ror #16
    809c:	0000a858 	andeq	sl, r0, r8, asr r8
    80a0:	0000a7e0 	andeq	sl, r0, r0, ror #15
    80a4:	20204000 	eorcs	r4, r0, r0

000080a8 <my_spi_init>:
    80a8:	e92d4008 	push	{r3, lr}
    80ac:	e3a00007 	mov	r0, #7
    80b0:	e3a01004 	mov	r1, #4
    80b4:	eb0008d5 	bl	a410 <gpio_set_function>
    80b8:	e3a00008 	mov	r0, #8
    80bc:	e3a01004 	mov	r1, #4
    80c0:	eb0008d2 	bl	a410 <gpio_set_function>
    80c4:	e3a00009 	mov	r0, #9
    80c8:	e3a01004 	mov	r1, #4
    80cc:	eb0008cf 	bl	a410 <gpio_set_function>
    80d0:	e3a0000a 	mov	r0, #10
    80d4:	e3a01004 	mov	r1, #4
    80d8:	eb0008cc 	bl	a410 <gpio_set_function>
    80dc:	e3a0000b 	mov	r0, #11
    80e0:	e3a01004 	mov	r1, #4
    80e4:	eb0008c9 	bl	a410 <gpio_set_function>
    80e8:	e3a02000 	mov	r2, #0
    80ec:	e59f3004 	ldr	r3, [pc, #4]	; 80f8 <my_spi_init+0x50>
    80f0:	e5832008 	str	r2, [r3, #8]
    80f4:	e8bd8008 	pop	{r3, pc}
    80f8:	20204000 	eorcs	r4, r0, r0

000080fc <rfid_transaction>:
    80fc:	e92d47f0 	push	{r4, r5, r6, r7, r8, r9, sl, lr}
    8100:	e1a09000 	mov	r9, r0
    8104:	e1a0a001 	mov	sl, r1
    8108:	e1a07002 	mov	r7, r2
    810c:	e1a08003 	mov	r8, r3
    8110:	e3a00001 	mov	r0, #1
    8114:	ebffffbd 	bl	8010 <chip_select>
    8118:	e3a00001 	mov	r0, #1
    811c:	ebffffce 	bl	805c <transfer_active>
    8120:	e59f30f0 	ldr	r3, [pc, #240]	; 8218 <rfid_transaction+0x11c>
    8124:	e5933000 	ldr	r3, [r3]
    8128:	e3130802 	tst	r3, #131072	; 0x20000
    812c:	0a000004 	beq	8144 <rfid_transaction+0x48>
    8130:	e59f30e0 	ldr	r3, [pc, #224]	; 8218 <rfid_transaction+0x11c>
    8134:	e5932004 	ldr	r2, [r3, #4]
    8138:	e5932000 	ldr	r2, [r3]
    813c:	e3120802 	tst	r2, #131072	; 0x20000
    8140:	1afffffb 	bne	8134 <rfid_transaction+0x38>
    8144:	e59f20cc 	ldr	r2, [pc, #204]	; 8218 <rfid_transaction+0x11c>
    8148:	e5923000 	ldr	r3, [r2]
    814c:	e3130701 	tst	r3, #262144	; 0x40000
    8150:	0afffffc 	beq	8148 <rfid_transaction+0x4c>
    8154:	e3a0c000 	mov	ip, #0
    8158:	e1a0400c 	mov	r4, ip
    815c:	e59f50b4 	ldr	r5, [pc, #180]	; 8218 <rfid_transaction+0x11c>
    8160:	ea000016 	b	81c0 <rfid_transaction+0xc4>
    8164:	e7d93004 	ldrb	r3, [r9, r4]
    8168:	e5853004 	str	r3, [r5, #4]
    816c:	e2844001 	add	r4, r4, #1
    8170:	e1570004 	cmp	r7, r4
    8174:	8a000005 	bhi	8190 <rfid_transaction+0x94>
    8178:	e3520000 	cmp	r2, #0
    817c:	0a00000f 	beq	81c0 <rfid_transaction+0xc4>
    8180:	e5953000 	ldr	r3, [r5]
    8184:	e3130802 	tst	r3, #131072	; 0x20000
    8188:	1a000004 	bne	81a0 <rfid_transaction+0xa4>
    818c:	ea00000b 	b	81c0 <rfid_transaction+0xc4>
    8190:	e5953000 	ldr	r3, [r5]
    8194:	e3130701 	tst	r3, #262144	; 0x40000
    8198:	1afffff1 	bne	8164 <rfid_transaction+0x68>
    819c:	eafffff5 	b	8178 <rfid_transaction+0x7c>
    81a0:	e5956004 	ldr	r6, [r5, #4]
    81a4:	e7ca600c 	strb	r6, [sl, ip]
    81a8:	e28cc001 	add	ip, ip, #1
    81ac:	e158000c 	cmp	r8, ip
    81b0:	9a000002 	bls	81c0 <rfid_transaction+0xc4>
    81b4:	e5953000 	ldr	r3, [r5]
    81b8:	e3130802 	tst	r3, #131072	; 0x20000
    81bc:	1afffff7 	bne	81a0 <rfid_transaction+0xa4>
    81c0:	e1540007 	cmp	r4, r7
    81c4:	23a03000 	movcs	r3, #0
    81c8:	33a03001 	movcc	r3, #1
    81cc:	e15c0008 	cmp	ip, r8
    81d0:	23a02000 	movcs	r2, #0
    81d4:	33a02001 	movcc	r2, #1
    81d8:	e1921003 	orrs	r1, r2, r3
    81dc:	0a000005 	beq	81f8 <rfid_transaction+0xfc>
    81e0:	e3530000 	cmp	r3, #0
    81e4:	0affffe3 	beq	8178 <rfid_transaction+0x7c>
    81e8:	e5953000 	ldr	r3, [r5]
    81ec:	e3130701 	tst	r3, #262144	; 0x40000
    81f0:	0affffe0 	beq	8178 <rfid_transaction+0x7c>
    81f4:	eaffffda 	b	8164 <rfid_transaction+0x68>
    81f8:	e59f2018 	ldr	r2, [pc, #24]	; 8218 <rfid_transaction+0x11c>
    81fc:	e5923000 	ldr	r3, [r2]
    8200:	e3130801 	tst	r3, #65536	; 0x10000
    8204:	0afffffc 	beq	81fc <rfid_transaction+0x100>
    8208:	e3a02000 	mov	r2, #0
    820c:	e59f3004 	ldr	r3, [pc, #4]	; 8218 <rfid_transaction+0x11c>
    8210:	e5832000 	str	r2, [r3]
    8214:	e8bd87f0 	pop	{r4, r5, r6, r7, r8, r9, sl, pc}
    8218:	20204000 	eorcs	r4, r0, r0

0000821c <rfid_write_reg>:
    821c:	e52de004 	push	{lr}		; (str lr, [sp, #-4]!)
    8220:	e24dd00c 	sub	sp, sp, #12
    8224:	e1a00080 	lsl	r0, r0, #1
    8228:	e5cd0004 	strb	r0, [sp, #4]
    822c:	e5cd1005 	strb	r1, [sp, #5]
    8230:	e28d0004 	add	r0, sp, #4
    8234:	e3a01000 	mov	r1, #0
    8238:	e3a02002 	mov	r2, #2
    823c:	e1a03001 	mov	r3, r1
    8240:	ebffffad 	bl	80fc <rfid_transaction>
    8244:	e28dd00c 	add	sp, sp, #12
    8248:	e49df004 	pop	{pc}		; (ldr pc, [sp], #4)

0000824c <rfid_read_reg>:
    824c:	e52de004 	push	{lr}		; (str lr, [sp, #-4]!)
    8250:	e24dd00c 	sub	sp, sp, #12
    8254:	e3e0307f 	mvn	r3, #127	; 0x7f
    8258:	e1830080 	orr	r0, r3, r0, lsl #1
    825c:	e5cd0004 	strb	r0, [sp, #4]
    8260:	e3a03000 	mov	r3, #0
    8264:	e5cd3005 	strb	r3, [sp, #5]
    8268:	e28d0004 	add	r0, sp, #4
    826c:	e1a0100d 	mov	r1, sp
    8270:	e3a02002 	mov	r2, #2
    8274:	e1a03002 	mov	r3, r2
    8278:	ebffff9f 	bl	80fc <rfid_transaction>
    827c:	e5dd0001 	ldrb	r0, [sp, #1]
    8280:	e28dd00c 	add	sp, sp, #12
    8284:	e49df004 	pop	{pc}		; (ldr pc, [sp], #4)

00008288 <rfid_init>:
    8288:	e92d4008 	push	{r3, lr}
    828c:	e3a00005 	mov	r0, #5
    8290:	eb00089a 	bl	a500 <gpio_set_input>
    8294:	e3a00005 	mov	r0, #5
    8298:	eb0008cf 	bl	a5dc <gpio_read>
    829c:	e3500000 	cmp	r0, #0
    82a0:	1a00000b 	bne	82d4 <rfid_init+0x4c>
    82a4:	e3a00005 	mov	r0, #5
    82a8:	eb0008a1 	bl	a534 <gpio_set_output>
    82ac:	e3a00005 	mov	r0, #5
    82b0:	e3a01000 	mov	r1, #0
    82b4:	eb0008aa 	bl	a564 <gpio_write>
    82b8:	e3a00032 	mov	r0, #50	; 0x32
    82bc:	eb0007a2 	bl	a14c <delay_ms>
    82c0:	e3a00005 	mov	r0, #5
    82c4:	e3a01001 	mov	r1, #1
    82c8:	eb0008a5 	bl	a564 <gpio_write>
    82cc:	e3a00032 	mov	r0, #50	; 0x32
    82d0:	eb00079d 	bl	a14c <delay_ms>
    82d4:	e3a00001 	mov	r0, #1
    82d8:	ebffffdb 	bl	824c <rfid_read_reg>
    82dc:	e20010d0 	and	r1, r0, #208	; 0xd0
    82e0:	e3a00001 	mov	r0, #1
    82e4:	ebffffcc 	bl	821c <rfid_write_reg>
    82e8:	e8bd8008 	pop	{r3, pc}

000082ec <rfid_loopback_simple>:
    82ec:	e92d4070 	push	{r4, r5, r6, lr}
    82f0:	e24dd068 	sub	sp, sp, #104	; 0x68
    82f4:	e1a05000 	mov	r5, r0
    82f8:	e59f4084 	ldr	r4, [pc, #132]	; 8384 <rfid_loopback_simple+0x98>
    82fc:	e3a03012 	mov	r3, #18
    8300:	e5c43000 	strb	r3, [r4]
    8304:	e59f007c 	ldr	r0, [pc, #124]	; 8388 <rfid_loopback_simple+0x9c>
    8308:	eb0005df 	bl	9a8c <printk>
    830c:	e1a00004 	mov	r0, r4
    8310:	eb0007f9 	bl	a2fc <strlen>
    8314:	e1a02000 	mov	r2, r0
    8318:	e1a00004 	mov	r0, r4
    831c:	e3a01000 	mov	r1, #0
    8320:	e1a03001 	mov	r3, r1
    8324:	ebffff74 	bl	80fc <rfid_transaction>
    8328:	e28d3003 	add	r3, sp, #3
    832c:	e28dc067 	add	ip, sp, #103	; 0x67
    8330:	e3e0206d 	mvn	r2, #109	; 0x6d
    8334:	e5e32001 	strb	r2, [r3, #1]!
    8338:	e153000c 	cmp	r3, ip
    833c:	1afffffc 	bne	8334 <rfid_loopback_simple+0x48>
    8340:	e59f403c 	ldr	r4, [pc, #60]	; 8384 <rfid_loopback_simple+0x98>
    8344:	e1a00004 	mov	r0, r4
    8348:	eb0007eb 	bl	a2fc <strlen>
    834c:	e1a06000 	mov	r6, r0
    8350:	e1a00004 	mov	r0, r4
    8354:	eb0007e8 	bl	a2fc <strlen>
    8358:	e1a03000 	mov	r3, r0
    835c:	e28d0004 	add	r0, sp, #4
    8360:	e1a01005 	mov	r1, r5
    8364:	e1a02006 	mov	r2, r6
    8368:	ebffff63 	bl	80fc <rfid_transaction>
    836c:	e1a00004 	mov	r0, r4
    8370:	eb0007e1 	bl	a2fc <strlen>
    8374:	e3a03000 	mov	r3, #0
    8378:	e7c53000 	strb	r3, [r5, r0]
    837c:	e28dd068 	add	sp, sp, #104	; 0x68
    8380:	e8bd8070 	pop	{r4, r5, r6, pc}
    8384:	0000a898 	muleq	r0, r8, r8
    8388:	0000a8bc 			; <UNDEFINED> instruction: 0x0000a8bc

0000838c <rfid_loopback_regs>:
    838c:	e92d41f0 	push	{r4, r5, r6, r7, r8, lr}
    8390:	e1a06000 	mov	r6, r0
    8394:	e59f5070 	ldr	r5, [pc, #112]	; 840c <rfid_loopback_regs+0x80>
    8398:	e3a04000 	mov	r4, #0
    839c:	e2857001 	add	r7, r5, #1
    83a0:	e3a08009 	mov	r8, #9
    83a4:	ea000003 	b	83b8 <rfid_loopback_regs+0x2c>
    83a8:	e1a00008 	mov	r0, r8
    83ac:	e5f51001 	ldrb	r1, [r5, #1]!
    83b0:	ebffff99 	bl	821c <rfid_write_reg>
    83b4:	e2844001 	add	r4, r4, #1
    83b8:	e1a00007 	mov	r0, r7
    83bc:	eb0007ce 	bl	a2fc <strlen>
    83c0:	e1540000 	cmp	r4, r0
    83c4:	3afffff7 	bcc	83a8 <rfid_loopback_regs+0x1c>
    83c8:	e3a03000 	mov	r3, #0
    83cc:	e7c63004 	strb	r3, [r6, r4]
    83d0:	e3a0000a 	mov	r0, #10
    83d4:	ebffff9c 	bl	824c <rfid_read_reg>
    83d8:	e210507f 	ands	r5, r0, #127	; 0x7f
    83dc:	0a000007 	beq	8400 <rfid_loopback_regs+0x74>
    83e0:	e3a04000 	mov	r4, #0
    83e4:	e3a07009 	mov	r7, #9
    83e8:	e1a00007 	mov	r0, r7
    83ec:	ebffff96 	bl	824c <rfid_read_reg>
    83f0:	e7c60004 	strb	r0, [r6, r4]
    83f4:	e2844001 	add	r4, r4, #1
    83f8:	e1550004 	cmp	r5, r4
    83fc:	8afffff9 	bhi	83e8 <rfid_loopback_regs+0x5c>
    8400:	e3a03000 	mov	r3, #0
    8404:	e7c63005 	strb	r3, [r6, r5]
    8408:	e8bd81f0 	pop	{r4, r5, r6, r7, r8, pc}
    840c:	0000a8d7 	ldrdeq	sl, [r0], -r7

00008410 <detect_rfid_card>:
    8410:	e92d4008 	push	{r3, lr}
    8414:	e3a00001 	mov	r0, #1
    8418:	ebffff8b 	bl	824c <rfid_read_reg>
    841c:	e20010f0 	and	r1, r0, #240	; 0xf0
    8420:	e3a00001 	mov	r0, #1
    8424:	ebffff7c 	bl	821c <rfid_write_reg>
    8428:	e3a00004 	mov	r0, #4
    842c:	e3a0107f 	mov	r1, #127	; 0x7f
    8430:	ebffff79 	bl	821c <rfid_write_reg>
    8434:	e3a00009 	mov	r0, #9
    8438:	e3a01026 	mov	r1, #38	; 0x26
    843c:	ebffff76 	bl	821c <rfid_write_reg>
    8440:	e3a0000d 	mov	r0, #13
    8444:	ebffff80 	bl	824c <rfid_read_reg>
    8448:	e3801007 	orr	r1, r0, #7
    844c:	e3a0000d 	mov	r0, #13
    8450:	e6ef1071 	uxtb	r1, r1
    8454:	ebffff70 	bl	821c <rfid_write_reg>
    8458:	e3a00013 	mov	r0, #19
    845c:	ebffff7a 	bl	824c <rfid_read_reg>
    8460:	e3801008 	orr	r1, r0, #8
    8464:	e3a00013 	mov	r0, #19
    8468:	e6ef1071 	uxtb	r1, r1
    846c:	ebffff6a 	bl	821c <rfid_write_reg>
    8470:	e3a00001 	mov	r0, #1
    8474:	ebffff74 	bl	824c <rfid_read_reg>
    8478:	e20010f0 	and	r1, r0, #240	; 0xf0
    847c:	e3a00001 	mov	r0, #1
    8480:	e381100c 	orr	r1, r1, #12
    8484:	ebffff64 	bl	821c <rfid_write_reg>
    8488:	e3a0000d 	mov	r0, #13
    848c:	ebffff6e 	bl	824c <rfid_read_reg>
    8490:	e1e01c80 	mvn	r1, r0, lsl #25
    8494:	e1e01ca1 	mvn	r1, r1, lsr #25
    8498:	e3a0000d 	mov	r0, #13
    849c:	e6ef1071 	uxtb	r1, r1
    84a0:	ebffff5d 	bl	821c <rfid_write_reg>
    84a4:	e3a00064 	mov	r0, #100	; 0x64
    84a8:	eb000727 	bl	a14c <delay_ms>
    84ac:	e3a0000a 	mov	r0, #10
    84b0:	ebffff65 	bl	824c <rfid_read_reg>
    84b4:	e2900000 	adds	r0, r0, #0
    84b8:	13a00001 	movne	r0, #1
    84bc:	e8bd8008 	pop	{r3, pc}

000084c0 <rfid_config>:
    84c0:	e92d4008 	push	{r3, lr}
    84c4:	e3a0002a 	mov	r0, #42	; 0x2a
    84c8:	e3a01080 	mov	r1, #128	; 0x80
    84cc:	ebffff52 	bl	821c <rfid_write_reg>
    84d0:	e3a0002b 	mov	r0, #43	; 0x2b
    84d4:	e3a010a9 	mov	r1, #169	; 0xa9
    84d8:	ebffff4f 	bl	821c <rfid_write_reg>
    84dc:	e3a0002c 	mov	r0, #44	; 0x2c
    84e0:	e3a01004 	mov	r1, #4
    84e4:	ebffff4c 	bl	821c <rfid_write_reg>
    84e8:	e3a0002d 	mov	r0, #45	; 0x2d
    84ec:	e3a010e8 	mov	r1, #232	; 0xe8
    84f0:	ebffff49 	bl	821c <rfid_write_reg>
    84f4:	e3a00015 	mov	r0, #21
    84f8:	e3a01040 	mov	r1, #64	; 0x40
    84fc:	ebffff46 	bl	821c <rfid_write_reg>
    8500:	e3a00011 	mov	r0, #17
    8504:	e3a0103d 	mov	r1, #61	; 0x3d
    8508:	ebffff43 	bl	821c <rfid_write_reg>
    850c:	e3a00014 	mov	r0, #20
    8510:	ebffff4d 	bl	824c <rfid_read_reg>
    8514:	e3801003 	orr	r1, r0, #3
    8518:	e3a00014 	mov	r0, #20
    851c:	e6ef1071 	uxtb	r1, r1
    8520:	ebffff3d 	bl	821c <rfid_write_reg>
    8524:	e8bd8008 	pop	{r3, pc}

00008528 <test_mfrc522>:
    8528:	e52de004 	push	{lr}		; (str lr, [sp, #-4]!)
    852c:	e24dd0cc 	sub	sp, sp, #204	; 0xcc
    8530:	e28d0064 	add	r0, sp, #100	; 0x64
    8534:	ebffff6c 	bl	82ec <rfid_loopback_simple>
    8538:	e59f0020 	ldr	r0, [pc, #32]	; 8560 <test_mfrc522+0x38>
    853c:	e28d1064 	add	r1, sp, #100	; 0x64
    8540:	eb000551 	bl	9a8c <printk>
    8544:	e1a0000d 	mov	r0, sp
    8548:	ebffff8f 	bl	838c <rfid_loopback_regs>
    854c:	e59f0010 	ldr	r0, [pc, #16]	; 8564 <test_mfrc522+0x3c>
    8550:	e1a0100d 	mov	r1, sp
    8554:	eb00054c 	bl	9a8c <printk>
    8558:	e28dd0cc 	add	sp, sp, #204	; 0xcc
    855c:	e49df004 	pop	{pc}		; (ldr pc, [sp], #4)
    8560:	0000a8fc 	strdeq	sl, [r0], -ip
    8564:	0000a918 	andeq	sl, r0, r8, lsl r9

00008568 <distance_in_cm>:
    8568:	e59f3010 	ldr	r3, [pc, #16]	; 8580 <distance_in_cm+0x18>
    856c:	e0c32093 	smull	r2, r3, r3, r0
    8570:	e0833000 	add	r3, r3, r0
    8574:	e1a00fc0 	asr	r0, r0, #31
    8578:	e06002c3 	rsb	r0, r0, r3, asr #5
    857c:	e12fff1e 	bx	lr
    8580:	8d3dcb09 	fldmdbxhi	sp!, {d12-d15}	;@ Deprecated

00008584 <oled_reset>:
    8584:	e92d4008 	push	{r3, lr}
    8588:	e3a00006 	mov	r0, #6
    858c:	eb0007e8 	bl	a534 <gpio_set_output>
    8590:	e3a00006 	mov	r0, #6
    8594:	e3a01001 	mov	r1, #1
    8598:	eb0007f1 	bl	a564 <gpio_write>
    859c:	e3a00032 	mov	r0, #50	; 0x32
    85a0:	eb0006e9 	bl	a14c <delay_ms>
    85a4:	e3a00006 	mov	r0, #6
    85a8:	e3a01000 	mov	r1, #0
    85ac:	eb0007ec 	bl	a564 <gpio_write>
    85b0:	e3a00032 	mov	r0, #50	; 0x32
    85b4:	eb0006e4 	bl	a14c <delay_ms>
    85b8:	e3a00006 	mov	r0, #6
    85bc:	e3a01001 	mov	r1, #1
    85c0:	eb0007e7 	bl	a564 <gpio_write>
    85c4:	e3a00032 	mov	r0, #50	; 0x32
    85c8:	eb0006df 	bl	a14c <delay_ms>
    85cc:	e8bd8008 	pop	{r3, pc}

000085d0 <button_init>:
    85d0:	e92d4008 	push	{r3, lr}
    85d4:	e3a00017 	mov	r0, #23
    85d8:	eb0007c8 	bl	a500 <gpio_set_input>
    85dc:	e3a00012 	mov	r0, #18
    85e0:	eb0007c6 	bl	a500 <gpio_set_input>
    85e4:	e3a00016 	mov	r0, #22
    85e8:	eb0007c4 	bl	a500 <gpio_set_input>
    85ec:	e3a0001b 	mov	r0, #27
    85f0:	eb0007c2 	bl	a500 <gpio_set_input>
    85f4:	e3a00011 	mov	r0, #17
    85f8:	eb0007c0 	bl	a500 <gpio_set_input>
    85fc:	e3a00004 	mov	r0, #4
    8600:	eb0007cb 	bl	a534 <gpio_set_output>
    8604:	e3a00004 	mov	r0, #4
    8608:	e3a01001 	mov	r1, #1
    860c:	eb0007d4 	bl	a564 <gpio_write>
    8610:	e8bd8008 	pop	{r3, pc}

00008614 <await_button_value>:
    8614:	e92d41f0 	push	{r4, r5, r6, r7, r8, lr}
    8618:	e3a04017 	mov	r4, #23
    861c:	e3a05012 	mov	r5, #18
    8620:	e3a06016 	mov	r6, #22
    8624:	e3a0701b 	mov	r7, #27
    8628:	e3a08011 	mov	r8, #17
    862c:	e1a00004 	mov	r0, r4
    8630:	eb0007e9 	bl	a5dc <gpio_read>
    8634:	e3500000 	cmp	r0, #0
    8638:	0a000008 	beq	8660 <await_button_value+0x4c>
    863c:	e3a04017 	mov	r4, #23
    8640:	e1a00004 	mov	r0, r4
    8644:	eb0007e4 	bl	a5dc <gpio_read>
    8648:	e3500000 	cmp	r0, #0
    864c:	1afffffb 	bne	8640 <await_button_value+0x2c>
    8650:	e3a00064 	mov	r0, #100	; 0x64
    8654:	eb0006bc 	bl	a14c <delay_ms>
    8658:	e3a00030 	mov	r0, #48	; 0x30
    865c:	e8bd81f0 	pop	{r4, r5, r6, r7, r8, pc}
    8660:	e1a00005 	mov	r0, r5
    8664:	eb0007dc 	bl	a5dc <gpio_read>
    8668:	e3500000 	cmp	r0, #0
    866c:	0a000008 	beq	8694 <await_button_value+0x80>
    8670:	e3a04012 	mov	r4, #18
    8674:	e1a00004 	mov	r0, r4
    8678:	eb0007d7 	bl	a5dc <gpio_read>
    867c:	e3500000 	cmp	r0, #0
    8680:	1afffffb 	bne	8674 <await_button_value+0x60>
    8684:	e3a00064 	mov	r0, #100	; 0x64
    8688:	eb0006af 	bl	a14c <delay_ms>
    868c:	e3a00031 	mov	r0, #49	; 0x31
    8690:	e8bd81f0 	pop	{r4, r5, r6, r7, r8, pc}
    8694:	e1a00006 	mov	r0, r6
    8698:	eb0007cf 	bl	a5dc <gpio_read>
    869c:	e3500000 	cmp	r0, #0
    86a0:	0a000008 	beq	86c8 <await_button_value+0xb4>
    86a4:	e3a04016 	mov	r4, #22
    86a8:	e1a00004 	mov	r0, r4
    86ac:	eb0007ca 	bl	a5dc <gpio_read>
    86b0:	e3500000 	cmp	r0, #0
    86b4:	1afffffb 	bne	86a8 <await_button_value+0x94>
    86b8:	e3a00064 	mov	r0, #100	; 0x64
    86bc:	eb0006a2 	bl	a14c <delay_ms>
    86c0:	e3a00032 	mov	r0, #50	; 0x32
    86c4:	e8bd81f0 	pop	{r4, r5, r6, r7, r8, pc}
    86c8:	e1a00007 	mov	r0, r7
    86cc:	eb0007c2 	bl	a5dc <gpio_read>
    86d0:	e3500000 	cmp	r0, #0
    86d4:	0a000008 	beq	86fc <await_button_value+0xe8>
    86d8:	e3a0401b 	mov	r4, #27
    86dc:	e1a00004 	mov	r0, r4
    86e0:	eb0007bd 	bl	a5dc <gpio_read>
    86e4:	e3500000 	cmp	r0, #0
    86e8:	1afffffb 	bne	86dc <await_button_value+0xc8>
    86ec:	e3a00064 	mov	r0, #100	; 0x64
    86f0:	eb000695 	bl	a14c <delay_ms>
    86f4:	e3a00033 	mov	r0, #51	; 0x33
    86f8:	e8bd81f0 	pop	{r4, r5, r6, r7, r8, pc}
    86fc:	e1a00008 	mov	r0, r8
    8700:	eb0007b5 	bl	a5dc <gpio_read>
    8704:	e3500000 	cmp	r0, #0
    8708:	0affffc7 	beq	862c <await_button_value+0x18>
    870c:	e3a04011 	mov	r4, #17
    8710:	e1a00004 	mov	r0, r4
    8714:	eb0007b0 	bl	a5dc <gpio_read>
    8718:	e3500000 	cmp	r0, #0
    871c:	1afffffb 	bne	8710 <await_button_value+0xfc>
    8720:	e3a00064 	mov	r0, #100	; 0x64
    8724:	eb000688 	bl	a14c <delay_ms>
    8728:	e3a00034 	mov	r0, #52	; 0x34
    872c:	e8bd81f0 	pop	{r4, r5, r6, r7, r8, pc}

00008730 <calculator_program>:
    8730:	e92d4ff0 	push	{r4, r5, r6, r7, r8, r9, sl, fp, lr}
    8734:	e24dd024 	sub	sp, sp, #36	; 0x24
    8738:	e3a03000 	mov	r3, #0
    873c:	e1a02003 	mov	r2, r3
    8740:	e28d1014 	add	r1, sp, #20
    8744:	e7c32001 	strb	r2, [r3, r1]
    8748:	e2831008 	add	r1, r3, #8
    874c:	e1a0000d 	mov	r0, sp
    8750:	e7c12000 	strb	r2, [r1, r0]
    8754:	e2833001 	add	r3, r3, #1
    8758:	e3530009 	cmp	r3, #9
    875c:	1afffff7 	bne	8740 <calculator_program+0x10>
    8760:	e3a0a000 	mov	sl, #0
    8764:	e1a0400a 	mov	r4, sl
    8768:	e3e0b000 	mvn	fp, #0
    876c:	e58db004 	str	fp, [sp, #4]
    8770:	e58db000 	str	fp, [sp]
    8774:	e1a0500a 	mov	r5, sl
    8778:	e59f622c 	ldr	r6, [pc, #556]	; 89ac <calculator_program+0x27c>
    877c:	e3a07002 	mov	r7, #2
    8780:	e3a08003 	mov	r8, #3
    8784:	e59f9224 	ldr	r9, [pc, #548]	; 89b0 <calculator_program+0x280>
    8788:	ebffffa1 	bl	8614 <await_button_value>
    878c:	e2400030 	sub	r0, r0, #48	; 0x30
    8790:	e3500004 	cmp	r0, #4
    8794:	979ff100 	ldrls	pc, [pc, r0, lsl #2]
    8798:	ea00005b 	b	890c <calculator_program+0x1dc>
    879c:	000087b0 			; <UNDEFINED> instruction: 0x000087b0
    87a0:	000087bc 			; <UNDEFINED> instruction: 0x000087bc
    87a4:	00008878 	andeq	r8, r0, r8, ror r8
    87a8:	0000888c 	andeq	r8, r0, ip, lsl #17
    87ac:	000088a0 	andeq	r8, r0, r0, lsr #17
    87b0:	eb00046c 	bl	9968 <ClearScreen>
    87b4:	eb0002d3 	bl	9308 <rpi_yield>
    87b8:	ea000053 	b	890c <calculator_program+0x1dc>
    87bc:	e3540000 	cmp	r4, #0
    87c0:	1a000010 	bne	8808 <calculator_program+0xd8>
    87c4:	e59d2000 	ldr	r2, [sp]
    87c8:	e2822001 	add	r2, r2, #1
    87cc:	e58d2000 	str	r2, [sp]
    87d0:	e5962000 	ldr	r2, [r6]
    87d4:	e59d3000 	ldr	r3, [sp]
    87d8:	e59f01d4 	ldr	r0, [pc, #468]	; 89b4 <calculator_program+0x284>
    87dc:	e0c13390 	smull	r3, r1, r0, r3
    87e0:	e59d0000 	ldr	r0, [sp]
    87e4:	e1a03fc0 	asr	r3, r0, #31
    87e8:	e0633141 	rsb	r3, r3, r1, asr #2
    87ec:	e7d21003 	ldrb	r1, [r2, r3]
    87f0:	e5cd1014 	strb	r1, [sp, #20]
    87f4:	e0833103 	add	r3, r3, r3, lsl #2
    87f8:	e0403083 	sub	r3, r0, r3, lsl #1
    87fc:	e7d23003 	ldrb	r3, [r2, r3]
    8800:	e5cd3015 	strb	r3, [sp, #21]
    8804:	ea000066 	b	89a4 <calculator_program+0x274>
    8808:	e3540002 	cmp	r4, #2
    880c:	1a000006 	bne	882c <calculator_program+0xfc>
    8810:	e28bb001 	add	fp, fp, #1
    8814:	e35b0003 	cmp	fp, #3
    8818:	03a0b000 	moveq	fp, #0
    881c:	e5963004 	ldr	r3, [r6, #4]
    8820:	e7d3300b 	ldrb	r3, [r3, fp]
    8824:	e5cd3016 	strb	r3, [sp, #22]
    8828:	ea00005a 	b	8998 <calculator_program+0x268>
    882c:	e3540003 	cmp	r4, #3
    8830:	1a000035 	bne	890c <calculator_program+0x1dc>
    8834:	e59d1004 	ldr	r1, [sp, #4]
    8838:	e2811001 	add	r1, r1, #1
    883c:	e58d1004 	str	r1, [sp, #4]
    8840:	e5962000 	ldr	r2, [r6]
    8844:	e1a03001 	mov	r3, r1
    8848:	e59f0164 	ldr	r0, [pc, #356]	; 89b4 <calculator_program+0x284>
    884c:	e0c13390 	smull	r3, r1, r0, r3
    8850:	e59d0004 	ldr	r0, [sp, #4]
    8854:	e1a03fc0 	asr	r3, r0, #31
    8858:	e0633141 	rsb	r3, r3, r1, asr #2
    885c:	e7d21003 	ldrb	r1, [r2, r3]
    8860:	e5cd1017 	strb	r1, [sp, #23]
    8864:	e0833103 	add	r3, r3, r3, lsl #2
    8868:	e0403083 	sub	r3, r0, r3, lsl #1
    886c:	e7d23003 	ldrb	r3, [r2, r3]
    8870:	e5cd3018 	strb	r3, [sp, #24]
    8874:	ea000047 	b	8998 <calculator_program+0x268>
    8878:	e3540003 	cmp	r4, #3
    887c:	0a000040 	beq	8984 <calculator_program+0x254>
    8880:	e3540002 	cmp	r4, #2
    8884:	1a000020 	bne	890c <calculator_program+0x1dc>
    8888:	ea000045 	b	89a4 <calculator_program+0x274>
    888c:	e3540000 	cmp	r4, #0
    8890:	0a00003d 	beq	898c <calculator_program+0x25c>
    8894:	e3540002 	cmp	r4, #2
    8898:	1a00001b 	bne	890c <calculator_program+0x1dc>
    889c:	ea00003c 	b	8994 <calculator_program+0x264>
    88a0:	e35b0000 	cmp	fp, #0
    88a4:	059d1000 	ldreq	r1, [sp]
    88a8:	059d2004 	ldreq	r2, [sp, #4]
    88ac:	0081a002 	addeq	sl, r1, r2
    88b0:	0a000008 	beq	88d8 <calculator_program+0x1a8>
    88b4:	e35b0001 	cmp	fp, #1
    88b8:	059d3000 	ldreq	r3, [sp]
    88bc:	059d0004 	ldreq	r0, [sp, #4]
    88c0:	0060a003 	rsbeq	sl, r0, r3
    88c4:	0a000003 	beq	88d8 <calculator_program+0x1a8>
    88c8:	e35b0002 	cmp	fp, #2
    88cc:	059d1004 	ldreq	r1, [sp, #4]
    88d0:	059d2000 	ldreq	r2, [sp]
    88d4:	000a0291 	muleq	sl, r1, r2
    88d8:	e5963008 	ldr	r3, [r6, #8]
    88dc:	e5cd3019 	strb	r3, [sp, #25]
    88e0:	e5962000 	ldr	r2, [r6]
    88e4:	e59f00c8 	ldr	r0, [pc, #200]	; 89b4 <calculator_program+0x284>
    88e8:	e0c30a90 	smull	r0, r3, r0, sl
    88ec:	e1a01fca 	asr	r1, sl, #31
    88f0:	e0613143 	rsb	r3, r1, r3, asr #2
    88f4:	e7d21003 	ldrb	r1, [r2, r3]
    88f8:	e5cd101a 	strb	r1, [sp, #26]
    88fc:	e0833103 	add	r3, r3, r3, lsl #2
    8900:	e04a3083 	sub	r3, sl, r3, lsl #1
    8904:	e7d23003 	ldrb	r3, [r2, r3]
    8908:	e5cd301b 	strb	r3, [sp, #27]
    890c:	e3540000 	cmp	r4, #0
    8910:	ca000020 	bgt	8998 <calculator_program+0x268>
    8914:	ea000005 	b	8930 <calculator_program+0x200>
    8918:	e2830008 	add	r0, r3, #8
    891c:	e1a0100d 	mov	r1, sp
    8920:	e7c02001 	strb	r2, [r0, r1]
    8924:	e2833001 	add	r3, r3, #1
    8928:	e1540003 	cmp	r4, r3
    892c:	cafffff9 	bgt	8918 <calculator_program+0x1e8>
    8930:	e596200c 	ldr	r2, [r6, #12]
    8934:	e28d1020 	add	r1, sp, #32
    8938:	e0813004 	add	r3, r1, r4
    893c:	e5432018 	strb	r2, [r3, #-24]
    8940:	e2843001 	add	r3, r4, #1
    8944:	e2830008 	add	r0, r3, #8
    8948:	e1a0200d 	mov	r2, sp
    894c:	e7c05002 	strb	r5, [r0, r2]
    8950:	e2833001 	add	r3, r3, #1
    8954:	e3530008 	cmp	r3, #8
    8958:	dafffff9 	ble	8944 <calculator_program+0x214>
    895c:	e1a00005 	mov	r0, r5
    8960:	e1a01009 	mov	r1, r9
    8964:	eb0003ba 	bl	9854 <show_text>
    8968:	e1a00007 	mov	r0, r7
    896c:	e28d1014 	add	r1, sp, #20
    8970:	eb0003b7 	bl	9854 <show_text>
    8974:	e1a00008 	mov	r0, r8
    8978:	e28d1008 	add	r1, sp, #8
    897c:	eb0003b4 	bl	9854 <show_text>
    8980:	eaffff80 	b	8788 <calculator_program+0x58>
    8984:	e1a04007 	mov	r4, r7
    8988:	ea000002 	b	8998 <calculator_program+0x268>
    898c:	e1a04007 	mov	r4, r7
    8990:	ea000000 	b	8998 <calculator_program+0x268>
    8994:	e1a04008 	mov	r4, r8
    8998:	e5d62010 	ldrb	r2, [r6, #16]
    899c:	e1a03005 	mov	r3, r5
    89a0:	eaffffdc 	b	8918 <calculator_program+0x1e8>
    89a4:	e1a04005 	mov	r4, r5
    89a8:	eaffffe0 	b	8930 <calculator_program+0x200>
    89ac:	0000a7a0 	andeq	sl, r0, r0, lsr #15
    89b0:	0000a934 	andeq	sl, r0, r4, lsr r9
    89b4:	66666667 	strbtvs	r6, [r6], -r7, ror #12

000089b8 <is_any_button_pressed>:
    89b8:	e92d4008 	push	{r3, lr}
    89bc:	e3a00017 	mov	r0, #23
    89c0:	eb000705 	bl	a5dc <gpio_read>
    89c4:	e3500000 	cmp	r0, #0
    89c8:	1a000010 	bne	8a10 <is_any_button_pressed+0x58>
    89cc:	e3a00012 	mov	r0, #18
    89d0:	eb000701 	bl	a5dc <gpio_read>
    89d4:	e3500000 	cmp	r0, #0
    89d8:	1a00000e 	bne	8a18 <is_any_button_pressed+0x60>
    89dc:	e3a00016 	mov	r0, #22
    89e0:	eb0006fd 	bl	a5dc <gpio_read>
    89e4:	e3500000 	cmp	r0, #0
    89e8:	1a00000c 	bne	8a20 <is_any_button_pressed+0x68>
    89ec:	e3a0001b 	mov	r0, #27
    89f0:	eb0006f9 	bl	a5dc <gpio_read>
    89f4:	e3500000 	cmp	r0, #0
    89f8:	1a00000a 	bne	8a28 <is_any_button_pressed+0x70>
    89fc:	e3a00011 	mov	r0, #17
    8a00:	eb0006f5 	bl	a5dc <gpio_read>
    8a04:	e2900000 	adds	r0, r0, #0
    8a08:	13a00001 	movne	r0, #1
    8a0c:	e8bd8008 	pop	{r3, pc}
    8a10:	e3a00001 	mov	r0, #1
    8a14:	e8bd8008 	pop	{r3, pc}
    8a18:	e3a00001 	mov	r0, #1
    8a1c:	e8bd8008 	pop	{r3, pc}
    8a20:	e3a00001 	mov	r0, #1
    8a24:	e8bd8008 	pop	{r3, pc}
    8a28:	e3a00001 	mov	r0, #1
    8a2c:	e8bd8008 	pop	{r3, pc}

00008a30 <get_button_stickiness>:
    8a30:	e92d4010 	push	{r4, lr}
    8a34:	e1a04000 	mov	r4, r0
    8a38:	e3a00017 	mov	r0, #23
    8a3c:	eb0006e6 	bl	a5dc <gpio_read>
    8a40:	e3500000 	cmp	r0, #0
    8a44:	0a000003 	beq	8a58 <get_button_stickiness+0x28>
    8a48:	e1a00004 	mov	r0, r4
    8a4c:	eb0005be 	bl	a14c <delay_ms>
    8a50:	e3a00017 	mov	r0, #23
    8a54:	e8bd8010 	pop	{r4, pc}
    8a58:	e3a00012 	mov	r0, #18
    8a5c:	eb0006de 	bl	a5dc <gpio_read>
    8a60:	e3500000 	cmp	r0, #0
    8a64:	0a000003 	beq	8a78 <get_button_stickiness+0x48>
    8a68:	e1a00004 	mov	r0, r4
    8a6c:	eb0005b6 	bl	a14c <delay_ms>
    8a70:	e3a00012 	mov	r0, #18
    8a74:	e8bd8010 	pop	{r4, pc}
    8a78:	e3a00016 	mov	r0, #22
    8a7c:	eb0006d6 	bl	a5dc <gpio_read>
    8a80:	e3500000 	cmp	r0, #0
    8a84:	0a000003 	beq	8a98 <get_button_stickiness+0x68>
    8a88:	e1a00004 	mov	r0, r4
    8a8c:	eb0005ae 	bl	a14c <delay_ms>
    8a90:	e3a00016 	mov	r0, #22
    8a94:	e8bd8010 	pop	{r4, pc}
    8a98:	e3a0001b 	mov	r0, #27
    8a9c:	eb0006ce 	bl	a5dc <gpio_read>
    8aa0:	e3500000 	cmp	r0, #0
    8aa4:	0a000003 	beq	8ab8 <get_button_stickiness+0x88>
    8aa8:	e1a00004 	mov	r0, r4
    8aac:	eb0005a6 	bl	a14c <delay_ms>
    8ab0:	e3a0001b 	mov	r0, #27
    8ab4:	e8bd8010 	pop	{r4, pc}
    8ab8:	e3a00011 	mov	r0, #17
    8abc:	eb0006c6 	bl	a5dc <gpio_read>
    8ac0:	e3500000 	cmp	r0, #0
    8ac4:	0a000003 	beq	8ad8 <get_button_stickiness+0xa8>
    8ac8:	e1a00004 	mov	r0, r4
    8acc:	eb00059e 	bl	a14c <delay_ms>
    8ad0:	e3a00011 	mov	r0, #17
    8ad4:	e8bd8010 	pop	{r4, pc}
    8ad8:	e3a00000 	mov	r0, #0
    8adc:	e8bd8010 	pop	{r4, pc}

00008ae0 <get_button>:
    8ae0:	e92d4010 	push	{r4, lr}
    8ae4:	e3a00017 	mov	r0, #23
    8ae8:	eb0006bb 	bl	a5dc <gpio_read>
    8aec:	e3500000 	cmp	r0, #0
    8af0:	0a000008 	beq	8b18 <get_button+0x38>
    8af4:	e3a04017 	mov	r4, #23
    8af8:	e1a00004 	mov	r0, r4
    8afc:	eb0006b6 	bl	a5dc <gpio_read>
    8b00:	e3500000 	cmp	r0, #0
    8b04:	1afffffb 	bne	8af8 <get_button+0x18>
    8b08:	e3a00064 	mov	r0, #100	; 0x64
    8b0c:	eb00058e 	bl	a14c <delay_ms>
    8b10:	e3a00017 	mov	r0, #23
    8b14:	e8bd8010 	pop	{r4, pc}
    8b18:	e3a00012 	mov	r0, #18
    8b1c:	eb0006ae 	bl	a5dc <gpio_read>
    8b20:	e3500000 	cmp	r0, #0
    8b24:	0a000008 	beq	8b4c <get_button+0x6c>
    8b28:	e3a04012 	mov	r4, #18
    8b2c:	e1a00004 	mov	r0, r4
    8b30:	eb0006a9 	bl	a5dc <gpio_read>
    8b34:	e3500000 	cmp	r0, #0
    8b38:	1afffffb 	bne	8b2c <get_button+0x4c>
    8b3c:	e3a00064 	mov	r0, #100	; 0x64
    8b40:	eb000581 	bl	a14c <delay_ms>
    8b44:	e3a00012 	mov	r0, #18
    8b48:	e8bd8010 	pop	{r4, pc}
    8b4c:	e3a00016 	mov	r0, #22
    8b50:	eb0006a1 	bl	a5dc <gpio_read>
    8b54:	e3500000 	cmp	r0, #0
    8b58:	0a000008 	beq	8b80 <get_button+0xa0>
    8b5c:	e3a04016 	mov	r4, #22
    8b60:	e1a00004 	mov	r0, r4
    8b64:	eb00069c 	bl	a5dc <gpio_read>
    8b68:	e3500000 	cmp	r0, #0
    8b6c:	1afffffb 	bne	8b60 <get_button+0x80>
    8b70:	e3a00064 	mov	r0, #100	; 0x64
    8b74:	eb000574 	bl	a14c <delay_ms>
    8b78:	e3a00016 	mov	r0, #22
    8b7c:	e8bd8010 	pop	{r4, pc}
    8b80:	e3a0001b 	mov	r0, #27
    8b84:	eb000694 	bl	a5dc <gpio_read>
    8b88:	e3500000 	cmp	r0, #0
    8b8c:	0a000008 	beq	8bb4 <get_button+0xd4>
    8b90:	e3a0401b 	mov	r4, #27
    8b94:	e1a00004 	mov	r0, r4
    8b98:	eb00068f 	bl	a5dc <gpio_read>
    8b9c:	e3500000 	cmp	r0, #0
    8ba0:	1afffffb 	bne	8b94 <get_button+0xb4>
    8ba4:	e3a00064 	mov	r0, #100	; 0x64
    8ba8:	eb000567 	bl	a14c <delay_ms>
    8bac:	e3a0001b 	mov	r0, #27
    8bb0:	e8bd8010 	pop	{r4, pc}
    8bb4:	e3a00011 	mov	r0, #17
    8bb8:	eb000687 	bl	a5dc <gpio_read>
    8bbc:	e3500000 	cmp	r0, #0
    8bc0:	0a000008 	beq	8be8 <get_button+0x108>
    8bc4:	e3a04011 	mov	r4, #17
    8bc8:	e1a00004 	mov	r0, r4
    8bcc:	eb000682 	bl	a5dc <gpio_read>
    8bd0:	e3500000 	cmp	r0, #0
    8bd4:	1afffffb 	bne	8bc8 <get_button+0xe8>
    8bd8:	e3a00064 	mov	r0, #100	; 0x64
    8bdc:	eb00055a 	bl	a14c <delay_ms>
    8be0:	e3a00011 	mov	r0, #17
    8be4:	e8bd8010 	pop	{r4, pc}
    8be8:	e3a00000 	mov	r0, #0
    8bec:	e8bd8010 	pop	{r4, pc}

00008bf0 <display_current_buttons_pressed>:
    8bf0:	e92d4010 	push	{r4, lr}
    8bf4:	e3a00080 	mov	r0, #128	; 0x80
    8bf8:	eb0006a4 	bl	a690 <kmalloc>
    8bfc:	e1a04000 	mov	r4, r0
    8c00:	e3a00017 	mov	r0, #23
    8c04:	eb000674 	bl	a5dc <gpio_read>
    8c08:	e3500000 	cmp	r0, #0
    8c0c:	1a00000f 	bne	8c50 <display_current_buttons_pressed+0x60>
    8c10:	e3a00012 	mov	r0, #18
    8c14:	eb000670 	bl	a5dc <gpio_read>
    8c18:	e3500000 	cmp	r0, #0
    8c1c:	1a00000b 	bne	8c50 <display_current_buttons_pressed+0x60>
    8c20:	e3a00016 	mov	r0, #22
    8c24:	eb00066c 	bl	a5dc <gpio_read>
    8c28:	e3500000 	cmp	r0, #0
    8c2c:	1a000007 	bne	8c50 <display_current_buttons_pressed+0x60>
    8c30:	e3a0001b 	mov	r0, #27
    8c34:	eb000668 	bl	a5dc <gpio_read>
    8c38:	e3500000 	cmp	r0, #0
    8c3c:	1a000003 	bne	8c50 <display_current_buttons_pressed+0x60>
    8c40:	e3a00011 	mov	r0, #17
    8c44:	eb000664 	bl	a5dc <gpio_read>
    8c48:	e3500000 	cmp	r0, #0
    8c4c:	0a00001f 	beq	8cd0 <display_current_buttons_pressed+0xe0>
    8c50:	e1a00004 	mov	r0, r4
    8c54:	e59f1084 	ldr	r1, [pc, #132]	; 8ce0 <display_current_buttons_pressed+0xf0>
    8c58:	eb0005b3 	bl	a32c <strcpy>
    8c5c:	e3a00017 	mov	r0, #23
    8c60:	eb00065d 	bl	a5dc <gpio_read>
    8c64:	e3500000 	cmp	r0, #0
    8c68:	13a03030 	movne	r3, #48	; 0x30
    8c6c:	15c43008 	strbne	r3, [r4, #8]
    8c70:	e3a00012 	mov	r0, #18
    8c74:	eb000658 	bl	a5dc <gpio_read>
    8c78:	e3500000 	cmp	r0, #0
    8c7c:	13a03031 	movne	r3, #49	; 0x31
    8c80:	15c43009 	strbne	r3, [r4, #9]
    8c84:	e3a00016 	mov	r0, #22
    8c88:	eb000653 	bl	a5dc <gpio_read>
    8c8c:	e3500000 	cmp	r0, #0
    8c90:	13a03032 	movne	r3, #50	; 0x32
    8c94:	15c4300a 	strbne	r3, [r4, #10]
    8c98:	e3a0001b 	mov	r0, #27
    8c9c:	eb00064e 	bl	a5dc <gpio_read>
    8ca0:	e3500000 	cmp	r0, #0
    8ca4:	13a03033 	movne	r3, #51	; 0x33
    8ca8:	15c4300b 	strbne	r3, [r4, #11]
    8cac:	e3a00011 	mov	r0, #17
    8cb0:	eb000649 	bl	a5dc <gpio_read>
    8cb4:	e3500000 	cmp	r0, #0
    8cb8:	13a03034 	movne	r3, #52	; 0x34
    8cbc:	15c4300c 	strbne	r3, [r4, #12]
    8cc0:	e3a00003 	mov	r0, #3
    8cc4:	e1a01004 	mov	r1, r4
    8cc8:	eb0002e1 	bl	9854 <show_text>
    8ccc:	e8bd8010 	pop	{r4, pc}
    8cd0:	e3a00003 	mov	r0, #3
    8cd4:	e59f1008 	ldr	r1, [pc, #8]	; 8ce4 <display_current_buttons_pressed+0xf4>
    8cd8:	eb0002dd 	bl	9854 <show_text>
    8cdc:	e8bd8010 	pop	{r4, pc}
    8ce0:	0000a940 	andeq	sl, r0, r0, asr #18
    8ce4:	0000a954 	andeq	sl, r0, r4, asr r9

00008ce8 <password_authenticate>:
    8ce8:	e92d43f8 	push	{r3, r4, r5, r6, r7, r8, r9, lr}
    8cec:	e59f30ac 	ldr	r3, [pc, #172]	; 8da0 <password_authenticate+0xb8>
    8cf0:	e5d33014 	ldrb	r3, [r3, #20]
    8cf4:	e3530000 	cmp	r3, #0
    8cf8:	da00001b 	ble	8d6c <password_authenticate+0x84>
    8cfc:	e3a06001 	mov	r6, #1
    8d00:	e3a04000 	mov	r4, #0
    8d04:	e59f5098 	ldr	r5, [pc, #152]	; 8da4 <password_authenticate+0xbc>
    8d08:	e1a08006 	mov	r8, r6
    8d0c:	e1a09004 	mov	r9, r4
    8d10:	e59f7088 	ldr	r7, [pc, #136]	; 8da0 <password_authenticate+0xb8>
    8d14:	ebfffe3e 	bl	8614 <await_button_value>
    8d18:	e7c50004 	strb	r0, [r5, r4]
    8d1c:	e1a00008 	mov	r0, r8
    8d20:	e1a01005 	mov	r1, r5
    8d24:	eb0002ca 	bl	9854 <show_text>
    8d28:	e3560000 	cmp	r6, #0
    8d2c:	01a06009 	moveq	r6, r9
    8d30:	0a000006 	beq	8d50 <password_authenticate+0x68>
    8d34:	e5973018 	ldr	r3, [r7, #24]
    8d38:	e7d36004 	ldrb	r6, [r3, r4]
    8d3c:	e7d53004 	ldrb	r3, [r5, r4]
    8d40:	e1560003 	cmp	r6, r3
    8d44:	13a06000 	movne	r6, #0
    8d48:	03a06001 	moveq	r6, #1
    8d4c:	eaffffff 	b	8d50 <password_authenticate+0x68>
    8d50:	e6ef6076 	uxtb	r6, r6
    8d54:	e2844001 	add	r4, r4, #1
    8d58:	e5d73014 	ldrb	r3, [r7, #20]
    8d5c:	e1530004 	cmp	r3, r4
    8d60:	caffffeb 	bgt	8d14 <password_authenticate+0x2c>
    8d64:	e3560000 	cmp	r6, #0
    8d68:	0a000004 	beq	8d80 <password_authenticate+0x98>
    8d6c:	e3a00002 	mov	r0, #2
    8d70:	e59f1030 	ldr	r1, [pc, #48]	; 8da8 <password_authenticate+0xc0>
    8d74:	eb0002b6 	bl	9854 <show_text>
    8d78:	e3a00001 	mov	r0, #1
    8d7c:	e8bd83f8 	pop	{r3, r4, r5, r6, r7, r8, r9, pc}
    8d80:	e3a00002 	mov	r0, #2
    8d84:	e59f1020 	ldr	r1, [pc, #32]	; 8dac <password_authenticate+0xc4>
    8d88:	eb0002b1 	bl	9854 <show_text>
    8d8c:	e3a00001 	mov	r0, #1
    8d90:	e59f1018 	ldr	r1, [pc, #24]	; 8db0 <password_authenticate+0xc8>
    8d94:	eb0002ae 	bl	9854 <show_text>
    8d98:	e3a00000 	mov	r0, #0
    8d9c:	e8bd83f8 	pop	{r3, r4, r5, r6, r7, r8, r9, pc}
    8da0:	0000a7a0 	andeq	sl, r0, r0, lsr #15
    8da4:	0000ceac 	andeq	ip, r0, ip, lsr #29
    8da8:	0000a968 	andeq	sl, r0, r8, ror #18
    8dac:	0000a978 	andeq	sl, r0, r8, ror r9
    8db0:	0000a95c 	andeq	sl, r0, ip, asr r9

00008db4 <welcome_screen>:
    8db4:	e92d47f0 	push	{r4, r5, r6, r7, r8, r9, sl, lr}
    8db8:	e3a00000 	mov	r0, #0
    8dbc:	e59f1094 	ldr	r1, [pc, #148]	; 8e58 <welcome_screen+0xa4>
    8dc0:	eb0002a3 	bl	9854 <show_text>
    8dc4:	e3a04000 	mov	r4, #0
    8dc8:	e1a0a004 	mov	sl, r4
    8dcc:	e59f5088 	ldr	r5, [pc, #136]	; 8e5c <welcome_screen+0xa8>
    8dd0:	e3a06020 	mov	r6, #32
    8dd4:	e3a09001 	mov	r9, #1
    8dd8:	e0858009 	add	r8, r5, r9
    8ddc:	e3a07002 	mov	r7, #2
    8de0:	ea00001a 	b	8e50 <welcome_screen+0x9c>
    8de4:	e0832004 	add	r2, r3, r4
    8de8:	e3120001 	tst	r2, #1
    8dec:	07c56003 	strbeq	r6, [r5, r3]
    8df0:	0a000005 	beq	8e0c <welcome_screen+0x58>
    8df4:	e2032001 	and	r2, r3, #1
    8df8:	e3520000 	cmp	r2, #0
    8dfc:	03a02002 	moveq	r2, #2
    8e00:	13a02001 	movne	r2, #1
    8e04:	e7c52003 	strb	r2, [r5, r3]
    8e08:	eaffffff 	b	8e0c <welcome_screen+0x58>
    8e0c:	e2833001 	add	r3, r3, #1
    8e10:	e3530010 	cmp	r3, #16
    8e14:	1afffff2 	bne	8de4 <welcome_screen+0x30>
    8e18:	e1a00009 	mov	r0, r9
    8e1c:	e1a01005 	mov	r1, r5
    8e20:	eb00028b 	bl	9854 <show_text>
    8e24:	e1a00007 	mov	r0, r7
    8e28:	e1a01008 	mov	r1, r8
    8e2c:	eb000288 	bl	9854 <show_text>
    8e30:	e3a00003 	mov	r0, #3
    8e34:	e2851002 	add	r1, r5, #2
    8e38:	eb000285 	bl	9854 <show_text>
    8e3c:	e3a00f7d 	mov	r0, #500	; 0x1f4
    8e40:	eb0004c1 	bl	a14c <delay_ms>
    8e44:	e2844001 	add	r4, r4, #1
    8e48:	e354000a 	cmp	r4, #10
    8e4c:	08bd87f0 	popeq	{r4, r5, r6, r7, r8, r9, sl, pc}
    8e50:	e1a0300a 	mov	r3, sl
    8e54:	eaffffe2 	b	8de4 <welcome_screen+0x30>
    8e58:	0000a988 	andeq	sl, r0, r8, lsl #19
    8e5c:	0000a990 	muleq	r0, r0, r9

00008e60 <strncpy>:
    8e60:	e3520000 	cmp	r2, #0
    8e64:	0a000005 	beq	8e80 <strncpy+0x20>
    8e68:	e3a03000 	mov	r3, #0
    8e6c:	e7d1c003 	ldrb	ip, [r1, r3]
    8e70:	e7c0c003 	strb	ip, [r0, r3]
    8e74:	e2833001 	add	r3, r3, #1
    8e78:	e1530002 	cmp	r3, r2
    8e7c:	1afffffa 	bne	8e6c <strncpy+0xc>
    8e80:	e3a03000 	mov	r3, #0
    8e84:	e7c03002 	strb	r3, [r0, r2]
    8e88:	e12fff1e 	bx	lr

00008e8c <ereader_program>:
    8e8c:	e92d4ff8 	push	{r3, r4, r5, r6, r7, r8, r9, sl, fp, lr}
    8e90:	e2508000 	subs	r8, r0, #0
    8e94:	059f30d4 	ldreq	r3, [pc, #212]	; 8f70 <ereader_program+0xe4>
    8e98:	0593801c 	ldreq	r8, [r3, #28]
    8e9c:	e59f30cc 	ldr	r3, [pc, #204]	; 8f70 <ereader_program+0xe4>
    8ea0:	e5930020 	ldr	r0, [r3, #32]
    8ea4:	e1a00180 	lsl	r0, r0, #3
    8ea8:	eb0005f8 	bl	a690 <kmalloc>
    8eac:	e1a05000 	mov	r5, r0
    8eb0:	e3a06000 	mov	r6, #0
    8eb4:	e3a07017 	mov	r7, #23
    8eb8:	e59fb0b4 	ldr	fp, [pc, #180]	; 8f74 <ereader_program+0xe8>
    8ebc:	e1a0a006 	mov	sl, r6
    8ec0:	e59f90a8 	ldr	r9, [pc, #168]	; 8f70 <ereader_program+0xe4>
    8ec4:	e1a00007 	mov	r0, r7
    8ec8:	eb0005c3 	bl	a5dc <gpio_read>
    8ecc:	e3500000 	cmp	r0, #0
    8ed0:	0a000006 	beq	8ef0 <ereader_program+0x64>
    8ed4:	e1a00007 	mov	r0, r7
    8ed8:	eb0005bf 	bl	a5dc <gpio_read>
    8edc:	e3500000 	cmp	r0, #0
    8ee0:	1afffffb 	bne	8ed4 <ereader_program+0x48>
    8ee4:	eb00029f 	bl	9968 <ClearScreen>
    8ee8:	eb000106 	bl	9308 <rpi_yield>
    8eec:	ea000004 	b	8f04 <ereader_program+0x78>
    8ef0:	e3a00011 	mov	r0, #17
    8ef4:	eb0005b8 	bl	a5dc <gpio_read>
    8ef8:	e3500000 	cmp	r0, #0
    8efc:	0a000000 	beq	8f04 <ereader_program+0x78>
    8f00:	eb000474 	bl	a0d8 <clean_reboot>
    8f04:	ebfffeab 	bl	89b8 <is_any_button_pressed>
    8f08:	e3500000 	cmp	r0, #0
    8f0c:	0a000006 	beq	8f2c <ereader_program+0xa0>
    8f10:	e3a00064 	mov	r0, #100	; 0x64
    8f14:	ebfffec5 	bl	8a30 <get_button_stickiness>
    8f18:	e3500016 	cmp	r0, #22
    8f1c:	02466001 	subeq	r6, r6, #1
    8f20:	0a000001 	beq	8f2c <ereader_program+0xa0>
    8f24:	e350001b 	cmp	r0, #27
    8f28:	02866001 	addeq	r6, r6, #1
    8f2c:	e1c66fc6 	bic	r6, r6, r6, asr #31
    8f30:	e1a0000a 	mov	r0, sl
    8f34:	e1a0100b 	mov	r1, fp
    8f38:	eb000245 	bl	9854 <show_text>
    8f3c:	e1a0400a 	mov	r4, sl
    8f40:	e5992020 	ldr	r2, [r9, #32]
    8f44:	e0861004 	add	r1, r6, r4
    8f48:	e1a00005 	mov	r0, r5
    8f4c:	e0218192 	mla	r1, r2, r1, r8
    8f50:	ebffffc2 	bl	8e60 <strncpy>
    8f54:	e2844001 	add	r4, r4, #1
    8f58:	e1a00004 	mov	r0, r4
    8f5c:	e1a01005 	mov	r1, r5
    8f60:	eb00023b 	bl	9854 <show_text>
    8f64:	e3540005 	cmp	r4, #5
    8f68:	1afffff4 	bne	8f40 <ereader_program+0xb4>
    8f6c:	eaffffd4 	b	8ec4 <ereader_program+0x38>
    8f70:	0000a7a0 	andeq	sl, r0, r0, lsr #15
    8f74:	0000a9a4 	andeq	sl, r0, r4, lsr #19

00008f78 <info_program>:
    8f78:	e92d43f8 	push	{r3, r4, r5, r6, r7, r8, r9, lr}
    8f7c:	e3a04017 	mov	r4, #23
    8f80:	e59f9090 	ldr	r9, [pc, #144]	; 9018 <info_program+0xa0>
    8f84:	e3a08000 	mov	r8, #0
    8f88:	e59f708c 	ldr	r7, [pc, #140]	; 901c <info_program+0xa4>
    8f8c:	e59f608c 	ldr	r6, [pc, #140]	; 9020 <info_program+0xa8>
    8f90:	e59f508c 	ldr	r5, [pc, #140]	; 9024 <info_program+0xac>
    8f94:	ebfffed1 	bl	8ae0 <get_button>
    8f98:	e3500012 	cmp	r0, #18
    8f9c:	0a00000c 	beq	8fd4 <info_program+0x5c>
    8fa0:	e3500017 	cmp	r0, #23
    8fa4:	0a000002 	beq	8fb4 <info_program+0x3c>
    8fa8:	e3500011 	cmp	r0, #17
    8fac:	1a00000c 	bne	8fe4 <info_program+0x6c>
    8fb0:	ea000006 	b	8fd0 <info_program+0x58>
    8fb4:	e1a00004 	mov	r0, r4
    8fb8:	eb000587 	bl	a5dc <gpio_read>
    8fbc:	e3500000 	cmp	r0, #0
    8fc0:	1afffffb 	bne	8fb4 <info_program+0x3c>
    8fc4:	eb000267 	bl	9968 <ClearScreen>
    8fc8:	eb0000ce 	bl	9308 <rpi_yield>
    8fcc:	ea000004 	b	8fe4 <info_program+0x6c>
    8fd0:	eb000440 	bl	a0d8 <clean_reboot>
    8fd4:	eb000263 	bl	9968 <ClearScreen>
    8fd8:	e59f3048 	ldr	r3, [pc, #72]	; 9028 <info_program+0xb0>
    8fdc:	e5930024 	ldr	r0, [r3, #36]	; 0x24
    8fe0:	ebffffa9 	bl	8e8c <ereader_program>
    8fe4:	e1a00008 	mov	r0, r8
    8fe8:	e1a01009 	mov	r1, r9
    8fec:	eb000218 	bl	9854 <show_text>
    8ff0:	e3a00001 	mov	r0, #1
    8ff4:	e1a01007 	mov	r1, r7
    8ff8:	eb000215 	bl	9854 <show_text>
    8ffc:	e3a00002 	mov	r0, #2
    9000:	e1a01006 	mov	r1, r6
    9004:	eb000212 	bl	9854 <show_text>
    9008:	e3a00003 	mov	r0, #3
    900c:	e1a01005 	mov	r1, r5
    9010:	eb00020f 	bl	9854 <show_text>
    9014:	eaffffde 	b	8f94 <info_program+0x1c>
    9018:	0000a9ac 	andeq	sl, r0, ip, lsr #19
    901c:	0000a9b8 			; <UNDEFINED> instruction: 0x0000a9b8
    9020:	0000a9cc 	andeq	sl, r0, ip, asr #19
    9024:	0000a9d8 	ldrdeq	sl, [r0], -r8
    9028:	0000a7a0 	andeq	sl, r0, r0, lsr #15

0000902c <notmain>:
    902c:	e92d4008 	push	{r3, lr}
    9030:	eb00013d 	bl	952c <uart_init>
    9034:	e59f00a4 	ldr	r0, [pc, #164]	; 90e0 <notmain+0xb4>
    9038:	eb000293 	bl	9a8c <printk>
    903c:	ebfffd63 	bl	85d0 <button_init>
    9040:	e59f009c 	ldr	r0, [pc, #156]	; 90e4 <notmain+0xb8>
    9044:	eb000290 	bl	9a8c <printk>
    9048:	eb0001a1 	bl	96d4 <spi_init>
    904c:	e59f0094 	ldr	r0, [pc, #148]	; 90e8 <notmain+0xbc>
    9050:	eb00028d 	bl	9a8c <printk>
    9054:	ebfffc8b 	bl	8288 <rfid_init>
    9058:	e59f008c 	ldr	r0, [pc, #140]	; 90ec <notmain+0xc0>
    905c:	eb00028a 	bl	9a8c <printk>
    9060:	ebfffd47 	bl	8584 <oled_reset>
    9064:	e59f0084 	ldr	r0, [pc, #132]	; 90f0 <notmain+0xc4>
    9068:	eb000287 	bl	9a8c <printk>
    906c:	eb00024e 	bl	99ac <oled_init>
    9070:	e3a00000 	mov	r0, #0
    9074:	e59f1078 	ldr	r1, [pc, #120]	; 90f4 <notmain+0xc8>
    9078:	eb0001f5 	bl	9854 <show_text>
    907c:	ebfffd29 	bl	8528 <test_mfrc522>
    9080:	ebfffd0e 	bl	84c0 <rfid_config>
    9084:	ebffff17 	bl	8ce8 <password_authenticate>
    9088:	e3500000 	cmp	r0, #0
    908c:	0afffffc 	beq	9084 <notmain+0x58>
    9090:	e3a00004 	mov	r0, #4
    9094:	e59f105c 	ldr	r1, [pc, #92]	; 90f8 <notmain+0xcc>
    9098:	eb0001ed 	bl	9854 <show_text>
    909c:	ebfffcdb 	bl	8410 <detect_rfid_card>
    90a0:	e3500000 	cmp	r0, #0
    90a4:	0afffffc 	beq	909c <notmain+0x70>
    90a8:	eb00022e 	bl	9968 <ClearScreen>
    90ac:	ebffff40 	bl	8db4 <welcome_screen>
    90b0:	e59f0044 	ldr	r0, [pc, #68]	; 90fc <notmain+0xd0>
    90b4:	e3a01000 	mov	r1, #0
    90b8:	eb000042 	bl	91c8 <rpi_fork>
    90bc:	e59f003c 	ldr	r0, [pc, #60]	; 9100 <notmain+0xd4>
    90c0:	e3a01000 	mov	r1, #0
    90c4:	eb00003f 	bl	91c8 <rpi_fork>
    90c8:	e59f0034 	ldr	r0, [pc, #52]	; 9104 <notmain+0xd8>
    90cc:	e3a01000 	mov	r1, #0
    90d0:	eb00003c 	bl	91c8 <rpi_fork>
    90d4:	e3a00000 	mov	r0, #0
    90d8:	eb0000ae 	bl	9398 <rpi_thread_start>
    90dc:	eb0003fd 	bl	a0d8 <clean_reboot>
    90e0:	0000a9e0 	andeq	sl, r0, r0, ror #19
    90e4:	0000a9f8 	strdeq	sl, [r0], -r8
    90e8:	0000aa0c 	andeq	sl, r0, ip, lsl #20
    90ec:	0000aa20 	andeq	sl, r0, r0, lsr #20
    90f0:	0000aa30 	andeq	sl, r0, r0, lsr sl
    90f4:	0000aa44 	andeq	sl, r0, r4, asr #20
    90f8:	0000aa54 	andeq	sl, r0, r4, asr sl
    90fc:	00008730 	andeq	r8, r0, r0, lsr r7
    9100:	00008e8c 	andeq	r8, r0, ip, lsl #29
    9104:	00008f78 	andeq	r8, r0, r8, ror pc

00009108 <Q_pop>:
    9108:	e92d4008 	push	{r3, lr}
    910c:	e2503000 	subs	r3, r0, #0
    9110:	1a000005 	bne	912c <Q_pop+0x24>
    9114:	e59f0054 	ldr	r0, [pc, #84]	; 9170 <Q_pop+0x68>
    9118:	e59f1054 	ldr	r1, [pc, #84]	; 9174 <Q_pop+0x6c>
    911c:	e59f2054 	ldr	r2, [pc, #84]	; 9178 <Q_pop+0x70>
    9120:	e3a0301b 	mov	r3, #27
    9124:	eb000258 	bl	9a8c <printk>
    9128:	eb0003cc 	bl	a060 <rpi_reboot>
    912c:	e5930000 	ldr	r0, [r3]
    9130:	e3500000 	cmp	r0, #0
    9134:	1a000008 	bne	915c <Q_pop+0x54>
    9138:	e5930004 	ldr	r0, [r3, #4]
    913c:	e3500000 	cmp	r0, #0
    9140:	08bd8008 	popeq	{r3, pc}
    9144:	e59f0030 	ldr	r0, [pc, #48]	; 917c <Q_pop+0x74>
    9148:	e59f1024 	ldr	r1, [pc, #36]	; 9174 <Q_pop+0x6c>
    914c:	e59f2024 	ldr	r2, [pc, #36]	; 9178 <Q_pop+0x70>
    9150:	e3a0301f 	mov	r3, #31
    9154:	eb00024c 	bl	9a8c <printk>
    9158:	eb0003c0 	bl	a060 <rpi_reboot>
    915c:	e5902000 	ldr	r2, [r0]
    9160:	e5832000 	str	r2, [r3]
    9164:	e3520000 	cmp	r2, #0
    9168:	05832004 	streq	r2, [r3, #4]
    916c:	e8bd8008 	pop	{r3, pc}
    9170:	0000be00 	andeq	fp, r0, r0, lsl #28
    9174:	0000be2c 	andeq	fp, r0, ip, lsr #28
    9178:	0000bde4 	andeq	fp, r0, r4, ror #27
    917c:	0000be48 	andeq	fp, r0, r8, asr #28

00009180 <mk_thread>:
    9180:	e92d4008 	push	{r3, lr}
    9184:	e59f0034 	ldr	r0, [pc, #52]	; 91c0 <mk_thread+0x40>
    9188:	ebffffde 	bl	9108 <Q_pop>
    918c:	e3500000 	cmp	r0, #0
    9190:	1a000001 	bne	919c <mk_thread+0x1c>
    9194:	e59f0028 	ldr	r0, [pc, #40]	; 91c4 <mk_thread+0x44>
    9198:	eb00053c 	bl	a690 <kmalloc>
    919c:	e2803902 	add	r3, r0, #32768	; 0x8000
    91a0:	e2833008 	add	r3, r3, #8
    91a4:	e5803004 	str	r3, [r0, #4]
    91a8:	e59f3010 	ldr	r3, [pc, #16]	; 91c0 <mk_thread+0x40>
    91ac:	e593200c 	ldr	r2, [r3, #12]
    91b0:	e5802008 	str	r2, [r0, #8]
    91b4:	e2822001 	add	r2, r2, #1
    91b8:	e583200c 	str	r2, [r3, #12]
    91bc:	e8bd8008 	pop	{r3, pc}
    91c0:	0000ca88 	andeq	ip, r0, r8, lsl #21
    91c4:	0000800c 	andeq	r8, r0, ip

000091c8 <rpi_fork>:
    91c8:	e92d4070 	push	{r4, r5, r6, lr}
    91cc:	e1a05000 	mov	r5, r0
    91d0:	e1a06001 	mov	r6, r1
    91d4:	ebffffe9 	bl	9180 <mk_thread>
    91d8:	e1a04000 	mov	r4, r0
    91dc:	e5903004 	ldr	r3, [r0, #4]
    91e0:	e243203c 	sub	r2, r3, #60	; 0x3c
    91e4:	e5802004 	str	r2, [r0, #4]
    91e8:	e59f2068 	ldr	r2, [pc, #104]	; 9258 <rpi_fork+0x90>
    91ec:	e5032008 	str	r2, [r3, #-8]
    91f0:	e5903004 	ldr	r3, [r0, #4]
    91f4:	e5836000 	str	r6, [r3]
    91f8:	e5903004 	ldr	r3, [r0, #4]
    91fc:	e5835004 	str	r5, [r3, #4]
    9200:	e5905004 	ldr	r5, [r0, #4]
    9204:	eb0000b6 	bl	94e4 <rpi_get_cpsr>
    9208:	e5850038 	str	r0, [r5, #56]	; 0x38
    920c:	e3a03000 	mov	r3, #0
    9210:	e5843000 	str	r3, [r4]
    9214:	e59f3040 	ldr	r3, [pc, #64]	; 925c <rpi_fork+0x94>
    9218:	e5933014 	ldr	r3, [r3, #20]
    921c:	e3530000 	cmp	r3, #0
    9220:	059f3034 	ldreq	r3, [pc, #52]	; 925c <rpi_fork+0x94>
    9224:	05834014 	streq	r4, [r3, #20]
    9228:	05834010 	streq	r4, [r3, #16]
    922c:	15834000 	strne	r4, [r3]
    9230:	159f3024 	ldrne	r3, [pc, #36]	; 925c <rpi_fork+0x94>
    9234:	15834014 	strne	r4, [r3, #20]
    9238:	e59f301c 	ldr	r3, [pc, #28]	; 925c <rpi_fork+0x94>
    923c:	e5931018 	ldr	r1, [r3, #24]
    9240:	e2811001 	add	r1, r1, #1
    9244:	e5831018 	str	r1, [r3, #24]
    9248:	e59f0010 	ldr	r0, [pc, #16]	; 9260 <rpi_fork+0x98>
    924c:	eb00020e 	bl	9a8c <printk>
    9250:	e1a00004 	mov	r0, r4
    9254:	e8bd8070 	pop	{r4, r5, r6, pc}
    9258:	00009524 	andeq	r9, r0, r4, lsr #10
    925c:	0000ca88 	andeq	ip, r0, r8, lsl #21
    9260:	0000be78 	andeq	fp, r0, r8, ror lr

00009264 <rpi_exit>:
    9264:	e92d4010 	push	{r4, lr}
    9268:	e59f0088 	ldr	r0, [pc, #136]	; 92f8 <rpi_exit+0x94>
    926c:	ebffffa5 	bl	9108 <Q_pop>
    9270:	e2504000 	subs	r4, r0, #0
    9274:	1a00000a 	bne	92a4 <rpi_exit+0x40>
    9278:	e59f007c 	ldr	r0, [pc, #124]	; 92fc <rpi_exit+0x98>
    927c:	eb000202 	bl	9a8c <printk>
    9280:	e59f4078 	ldr	r4, [pc, #120]	; 9300 <rpi_exit+0x9c>
    9284:	e594001c 	ldr	r0, [r4, #28]
    9288:	e5941020 	ldr	r1, [r4, #32]
    928c:	e2800004 	add	r0, r0, #4
    9290:	e2811004 	add	r1, r1, #4
    9294:	eb000094 	bl	94ec <rpi_cswitch>
    9298:	e5943020 	ldr	r3, [r4, #32]
    929c:	e584301c 	str	r3, [r4, #28]
    92a0:	e8bd8010 	pop	{r4, pc}
    92a4:	e59f0058 	ldr	r0, [pc, #88]	; 9304 <rpi_exit+0xa0>
    92a8:	eb0001f7 	bl	9a8c <printk>
    92ac:	ebffffb3 	bl	9180 <mk_thread>
    92b0:	e59f3048 	ldr	r3, [pc, #72]	; 9300 <rpi_exit+0x9c>
    92b4:	e5932018 	ldr	r2, [r3, #24]
    92b8:	e2422001 	sub	r2, r2, #1
    92bc:	e5832018 	str	r2, [r3, #24]
    92c0:	e3a02000 	mov	r2, #0
    92c4:	e5802000 	str	r2, [r0]
    92c8:	e5933004 	ldr	r3, [r3, #4]
    92cc:	e1530002 	cmp	r3, r2
    92d0:	059f3028 	ldreq	r3, [pc, #40]	; 9300 <rpi_exit+0x9c>
    92d4:	05830004 	streq	r0, [r3, #4]
    92d8:	05830000 	streq	r0, [r3]
    92dc:	15830000 	strne	r0, [r3]
    92e0:	159f3018 	ldrne	r3, [pc, #24]	; 9300 <rpi_exit+0x9c>
    92e4:	15830004 	strne	r0, [r3, #4]
    92e8:	e2800004 	add	r0, r0, #4
    92ec:	e2841004 	add	r1, r4, #4
    92f0:	eb00007d 	bl	94ec <rpi_cswitch>
    92f4:	e8bd8010 	pop	{r4, pc}
    92f8:	0000ca98 	muleq	r0, r8, sl
    92fc:	0000be7c 	andeq	fp, r0, ip, ror lr
    9300:	0000ca88 	andeq	ip, r0, r8, lsl #21
    9304:	0000bebc 			; <UNDEFINED> instruction: 0x0000bebc

00009308 <rpi_yield>:
    9308:	e92d4008 	push	{r3, lr}
    930c:	e59f0078 	ldr	r0, [pc, #120]	; 938c <rpi_yield+0x84>
    9310:	ebffff7c 	bl	9108 <Q_pop>
    9314:	e2501000 	subs	r1, r0, #0
    9318:	1a000002 	bne	9328 <rpi_yield+0x20>
    931c:	e59f006c 	ldr	r0, [pc, #108]	; 9390 <rpi_yield+0x88>
    9320:	eb0001d9 	bl	9a8c <printk>
    9324:	e8bd8008 	pop	{r3, pc}
    9328:	e59f3064 	ldr	r3, [pc, #100]	; 9394 <rpi_yield+0x8c>
    932c:	e5932018 	ldr	r2, [r3, #24]
    9330:	e2422001 	sub	r2, r2, #1
    9334:	e5832018 	str	r2, [r3, #24]
    9338:	e593201c 	ldr	r2, [r3, #28]
    933c:	e3a00000 	mov	r0, #0
    9340:	e5820000 	str	r0, [r2]
    9344:	e5933014 	ldr	r3, [r3, #20]
    9348:	e1530000 	cmp	r3, r0
    934c:	059f3040 	ldreq	r3, [pc, #64]	; 9394 <rpi_yield+0x8c>
    9350:	05832014 	streq	r2, [r3, #20]
    9354:	05832010 	streq	r2, [r3, #16]
    9358:	15832000 	strne	r2, [r3]
    935c:	159f3030 	ldrne	r3, [pc, #48]	; 9394 <rpi_yield+0x8c>
    9360:	15832014 	strne	r2, [r3, #20]
    9364:	e59f3028 	ldr	r3, [pc, #40]	; 9394 <rpi_yield+0x8c>
    9368:	e5932018 	ldr	r2, [r3, #24]
    936c:	e2822001 	add	r2, r2, #1
    9370:	e5832018 	str	r2, [r3, #24]
    9374:	e593001c 	ldr	r0, [r3, #28]
    9378:	e583101c 	str	r1, [r3, #28]
    937c:	e2800004 	add	r0, r0, #4
    9380:	e2811004 	add	r1, r1, #4
    9384:	eb000058 	bl	94ec <rpi_cswitch>
    9388:	e8bd8008 	pop	{r3, pc}
    938c:	0000ca98 	muleq	r0, r8, sl
    9390:	0000bee8 	andeq	fp, r0, r8, ror #29
    9394:	0000ca88 	andeq	ip, r0, r8, lsl #21

00009398 <rpi_thread_start>:
    9398:	e92d4038 	push	{r3, r4, r5, lr}
    939c:	e3500000 	cmp	r0, #0
    93a0:	0a000005 	beq	93bc <rpi_thread_start+0x24>
    93a4:	e59f0088 	ldr	r0, [pc, #136]	; 9434 <rpi_thread_start+0x9c>
    93a8:	e59f1088 	ldr	r1, [pc, #136]	; 9438 <rpi_thread_start+0xa0>
    93ac:	e59f2088 	ldr	r2, [pc, #136]	; 943c <rpi_thread_start+0xa4>
    93b0:	e3a03076 	mov	r3, #118	; 0x76
    93b4:	eb0001b4 	bl	9a8c <printk>
    93b8:	eb000328 	bl	a060 <rpi_reboot>
    93bc:	e59f007c 	ldr	r0, [pc, #124]	; 9440 <rpi_thread_start+0xa8>
    93c0:	ebffff50 	bl	9108 <Q_pop>
    93c4:	e2505000 	subs	r5, r0, #0
    93c8:	1a000002 	bne	93d8 <rpi_thread_start+0x40>
    93cc:	e59f0070 	ldr	r0, [pc, #112]	; 9444 <rpi_thread_start+0xac>
    93d0:	eb0001ad 	bl	9a8c <printk>
    93d4:	eb00033f 	bl	a0d8 <clean_reboot>
    93d8:	e59f0068 	ldr	r0, [pc, #104]	; 9448 <rpi_thread_start+0xb0>
    93dc:	eb0001aa 	bl	9a8c <printk>
    93e0:	ebffff66 	bl	9180 <mk_thread>
    93e4:	e1a01000 	mov	r1, r0
    93e8:	e59f405c 	ldr	r4, [pc, #92]	; 944c <rpi_thread_start+0xb4>
    93ec:	e5840020 	str	r0, [r4, #32]
    93f0:	e59f0058 	ldr	r0, [pc, #88]	; 9450 <rpi_thread_start+0xb8>
    93f4:	eb0001a4 	bl	9a8c <printk>
    93f8:	e5943018 	ldr	r3, [r4, #24]
    93fc:	e2433001 	sub	r3, r3, #1
    9400:	e5843018 	str	r3, [r4, #24]
    9404:	e584501c 	str	r5, [r4, #28]
    9408:	e5943020 	ldr	r3, [r4, #32]
    940c:	e59f0040 	ldr	r0, [pc, #64]	; 9454 <rpi_thread_start+0xbc>
    9410:	e5951004 	ldr	r1, [r5, #4]
    9414:	e5932004 	ldr	r2, [r3, #4]
    9418:	eb00019b 	bl	9a8c <printk>
    941c:	e5940020 	ldr	r0, [r4, #32]
    9420:	e594101c 	ldr	r1, [r4, #28]
    9424:	e2800004 	add	r0, r0, #4
    9428:	e2811004 	add	r1, r1, #4
    942c:	eb00002e 	bl	94ec <rpi_cswitch>
    9430:	e8bd8038 	pop	{r3, r4, r5, pc}
    9434:	0000bf24 	andeq	fp, r0, r4, lsr #30
    9438:	0000bf44 	andeq	fp, r0, r4, asr #30
    943c:	0000bdec 	andeq	fp, r0, ip, ror #27
    9440:	0000ca98 	muleq	r0, r8, sl
    9444:	0000bf6c 	andeq	fp, r0, ip, ror #30
    9448:	0000bfac 	andeq	fp, r0, ip, lsr #31
    944c:	0000ca88 	andeq	ip, r0, r8, lsl #21
    9450:	0000bfd8 	ldrdeq	fp, [r0], -r8
    9454:	0000bff0 	strdeq	fp, [r0], -r0

00009458 <rpi_cur_thread>:
    9458:	e59f3004 	ldr	r3, [pc, #4]	; 9464 <rpi_cur_thread+0xc>
    945c:	e593001c 	ldr	r0, [r3, #28]
    9460:	e12fff1e 	bx	lr
    9464:	0000ca88 	andeq	ip, r0, r8, lsl #21

00009468 <check_regs>:
    9468:	e52de004 	push	{lr}		; (str lr, [sp, #-4]!)
    946c:	e24dd00c 	sub	sp, sp, #12
    9470:	e1a0e000 	mov	lr, r0
    9474:	e1a0c001 	mov	ip, r1
    9478:	e58d2000 	str	r2, [sp]
    947c:	e59f000c 	ldr	r0, [pc, #12]	; 9490 <check_regs+0x28>
    9480:	e1a0100e 	mov	r1, lr
    9484:	e1a0200c 	mov	r2, ip
    9488:	eb00017f 	bl	9a8c <printk>
    948c:	eb000311 	bl	a0d8 <clean_reboot>
    9490:	0000c020 	andeq	ip, r0, r0, lsr #32

00009494 <test_csave>:
    9494:	e5000040 	str	r0, [r0, #-64]	; 0x40
    9498:	e500103c 	str	r1, [r0, #-60]	; 0x3c
    949c:	e5002038 	str	r2, [r0, #-56]	; 0x38
    94a0:	e5003034 	str	r3, [r0, #-52]	; 0x34
    94a4:	e5004030 	str	r4, [r0, #-48]	; 0x30
    94a8:	e500502c 	str	r5, [r0, #-44]	; 0x2c
    94ac:	e5006028 	str	r6, [r0, #-40]	; 0x28
    94b0:	e5007024 	str	r7, [r0, #-36]	; 0x24
    94b4:	e5008020 	str	r8, [r0, #-32]
    94b8:	e500901c 	str	r9, [r0, #-28]
    94bc:	e500a018 	str	sl, [r0, #-24]
    94c0:	e500b014 	str	fp, [r0, #-20]
    94c4:	e500c010 	str	ip, [r0, #-16]
    94c8:	e500d00c 	str	sp, [r0, #-12]
    94cc:	e500e008 	str	lr, [r0, #-8]
    94d0:	e10f1000 	mrs	r1, CPSR
    94d4:	e5001004 	str	r1, [r0, #-4]
    94d8:	e2400040 	sub	r0, r0, #64	; 0x40
    94dc:	e12fff1e 	bx	lr

000094e0 <test_csave_stmfd>:
    94e0:	e12fff1e 	bx	lr

000094e4 <rpi_get_cpsr>:
    94e4:	e10f0000 	mrs	r0, CPSR
    94e8:	e12fff1e 	bx	lr

000094ec <rpi_cswitch>:
    94ec:	e24dd03c 	sub	sp, sp, #60	; 0x3c
    94f0:	e58d0000 	str	r0, [sp]
    94f4:	e580d000 	str	sp, [r0]
    94f8:	e28dd004 	add	sp, sp, #4
    94fc:	e88d5ffe 	stm	sp, {r1, r2, r3, r4, r5, r6, r7, r8, r9, sl, fp, ip, lr}
    9500:	e24dd004 	sub	sp, sp, #4
    9504:	e10f4000 	mrs	r4, CPSR
    9508:	e58d4038 	str	r4, [sp, #56]	; 0x38
    950c:	e591d000 	ldr	sp, [r1]
    9510:	e59d4038 	ldr	r4, [sp, #56]	; 0x38
    9514:	e129f004 	msr	CPSR_fc, r4
    9518:	e89d5fff 	ldm	sp, {r0, r1, r2, r3, r4, r5, r6, r7, r8, r9, sl, fp, ip, lr}
    951c:	e28dd03c 	add	sp, sp, #60	; 0x3c
    9520:	e12fff1e 	bx	lr

00009524 <rpi_init_trampoline>:
    9524:	e12fff31 	blx	r1
    9528:	eaffff4d 	b	9264 <rpi_exit>

0000952c <uart_init>:
    952c:	e92d4010 	push	{r4, lr}
    9530:	e59f40e8 	ldr	r4, [pc, #232]	; 9620 <uart_init+0xf4>
    9534:	e1a00004 	mov	r0, r4
    9538:	eb00039f 	bl	a3bc <GET32>
    953c:	e3801001 	orr	r1, r0, #1
    9540:	e1a00004 	mov	r0, r4
    9544:	eb000394 	bl	a39c <PUT32>
    9548:	e2844040 	add	r4, r4, #64	; 0x40
    954c:	e1a00004 	mov	r0, r4
    9550:	e3a01000 	mov	r1, #0
    9554:	eb000390 	bl	a39c <PUT32>
    9558:	e59f00c4 	ldr	r0, [pc, #196]	; 9624 <uart_init+0xf8>
    955c:	e3a01000 	mov	r1, #0
    9560:	eb00038d 	bl	a39c <PUT32>
    9564:	e59f00bc 	ldr	r0, [pc, #188]	; 9628 <uart_init+0xfc>
    9568:	e3a01003 	mov	r1, #3
    956c:	eb00038a 	bl	a39c <PUT32>
    9570:	e59f00b4 	ldr	r0, [pc, #180]	; 962c <uart_init+0x100>
    9574:	e3a01000 	mov	r1, #0
    9578:	eb000387 	bl	a39c <PUT32>
    957c:	e1a00004 	mov	r0, r4
    9580:	e3a01000 	mov	r1, #0
    9584:	eb000384 	bl	a39c <PUT32>
    9588:	e59f00a0 	ldr	r0, [pc, #160]	; 9630 <uart_init+0x104>
    958c:	e3a010c6 	mov	r1, #198	; 0xc6
    9590:	eb000381 	bl	a39c <PUT32>
    9594:	e59f0098 	ldr	r0, [pc, #152]	; 9634 <uart_init+0x108>
    9598:	e59f1098 	ldr	r1, [pc, #152]	; 9638 <uart_init+0x10c>
    959c:	eb00037e 	bl	a39c <PUT32>
    95a0:	e59f4094 	ldr	r4, [pc, #148]	; 963c <uart_init+0x110>
    95a4:	e1a00004 	mov	r0, r4
    95a8:	eb000383 	bl	a3bc <GET32>
    95ac:	e3c01a3f 	bic	r1, r0, #258048	; 0x3f000
    95b0:	e1a00004 	mov	r0, r4
    95b4:	e3811a12 	orr	r1, r1, #73728	; 0x12000
    95b8:	eb000377 	bl	a39c <PUT32>
    95bc:	e59f007c 	ldr	r0, [pc, #124]	; 9640 <uart_init+0x114>
    95c0:	e3a01000 	mov	r1, #0
    95c4:	eb000374 	bl	a39c <PUT32>
    95c8:	e3a04000 	mov	r4, #0
    95cc:	e1a00004 	mov	r0, r4
    95d0:	eb00037d 	bl	a3cc <dummy>
    95d4:	e2844001 	add	r4, r4, #1
    95d8:	e3540096 	cmp	r4, #150	; 0x96
    95dc:	1afffffa 	bne	95cc <uart_init+0xa0>
    95e0:	e59f005c 	ldr	r0, [pc, #92]	; 9644 <uart_init+0x118>
    95e4:	e3a01903 	mov	r1, #49152	; 0xc000
    95e8:	eb00036b 	bl	a39c <PUT32>
    95ec:	e3a04000 	mov	r4, #0
    95f0:	e1a00004 	mov	r0, r4
    95f4:	eb000374 	bl	a3cc <dummy>
    95f8:	e2844001 	add	r4, r4, #1
    95fc:	e3540096 	cmp	r4, #150	; 0x96
    9600:	1afffffa 	bne	95f0 <uart_init+0xc4>
    9604:	e59f0038 	ldr	r0, [pc, #56]	; 9644 <uart_init+0x118>
    9608:	e3a01000 	mov	r1, #0
    960c:	eb000362 	bl	a39c <PUT32>
    9610:	e59f000c 	ldr	r0, [pc, #12]	; 9624 <uart_init+0xf8>
    9614:	e3a01003 	mov	r1, #3
    9618:	eb00035f 	bl	a39c <PUT32>
    961c:	e8bd8010 	pop	{r4, pc}
    9620:	20215004 	eorcs	r5, r1, r4
    9624:	20215060 	eorcs	r5, r1, r0, rrx
    9628:	2021504c 	eorcs	r5, r1, ip, asr #32
    962c:	20215050 	eorcs	r5, r1, r0, asr r0
    9630:	20215048 	eorcs	r5, r1, r8, asr #32
    9634:	20215068 	eorcs	r5, r1, r8, rrx
    9638:	0000010e 	andeq	r0, r0, lr, lsl #2
    963c:	20200004 	eorcs	r0, r0, r4
    9640:	20200094 	mlacs	r0, r4, r0, r0
    9644:	20200098 	mlacs	r0, r8, r0, r0

00009648 <uart_putc>:
    9648:	e92d4038 	push	{r3, r4, r5, lr}
    964c:	e1a05000 	mov	r5, r0
    9650:	e59f401c 	ldr	r4, [pc, #28]	; 9674 <uart_putc+0x2c>
    9654:	e1a00004 	mov	r0, r4
    9658:	eb000357 	bl	a3bc <GET32>
    965c:	e3100020 	tst	r0, #32
    9660:	0afffffb 	beq	9654 <uart_putc+0xc>
    9664:	e59f000c 	ldr	r0, [pc, #12]	; 9678 <uart_putc+0x30>
    9668:	e1a01005 	mov	r1, r5
    966c:	eb00034a 	bl	a39c <PUT32>
    9670:	e8bd8038 	pop	{r3, r4, r5, pc}
    9674:	20215054 	eorcs	r5, r1, r4, asr r0
    9678:	20215040 	eorcs	r5, r1, r0, asr #32

0000967c <hexstrings>:
    967c:	e92d4038 	push	{r3, r4, r5, lr}
    9680:	e1a05000 	mov	r5, r0
    9684:	e3a04020 	mov	r4, #32
    9688:	e2444004 	sub	r4, r4, #4
    968c:	e1a03435 	lsr	r3, r5, r4
    9690:	e203300f 	and	r3, r3, #15
    9694:	e3530009 	cmp	r3, #9
    9698:	82830037 	addhi	r0, r3, #55	; 0x37
    969c:	92830030 	addls	r0, r3, #48	; 0x30
    96a0:	ebffffe8 	bl	9648 <uart_putc>
    96a4:	e3540000 	cmp	r4, #0
    96a8:	1afffff6 	bne	9688 <hexstrings+0xc>
    96ac:	e3a00020 	mov	r0, #32
    96b0:	ebffffe4 	bl	9648 <uart_putc>
    96b4:	e8bd8038 	pop	{r3, r4, r5, pc}

000096b8 <hexstring>:
    96b8:	e92d4008 	push	{r3, lr}
    96bc:	ebffffee 	bl	967c <hexstrings>
    96c0:	e3a0000d 	mov	r0, #13
    96c4:	ebffffdf 	bl	9648 <uart_putc>
    96c8:	e3a0000a 	mov	r0, #10
    96cc:	ebffffdd 	bl	9648 <uart_putc>
    96d0:	e8bd8008 	pop	{r3, pc}

000096d4 <spi_init>:
    96d4:	e92d4010 	push	{r4, lr}
    96d8:	e59f4084 	ldr	r4, [pc, #132]	; 9764 <spi_init+0x90>
    96dc:	e1a00004 	mov	r0, r4
    96e0:	eb000335 	bl	a3bc <GET32>
    96e4:	e3801002 	orr	r1, r0, #2
    96e8:	e1a00004 	mov	r0, r4
    96ec:	eb00032a 	bl	a39c <PUT32>
    96f0:	e59f4070 	ldr	r4, [pc, #112]	; 9768 <spi_init+0x94>
    96f4:	e1a00004 	mov	r0, r4
    96f8:	eb00032f 	bl	a3bc <GET32>
    96fc:	e3c005ff 	bic	r0, r0, #1069547520	; 0x3fc00000
    9700:	e3c01602 	bic	r1, r0, #2097152	; 0x200000
    9704:	e1a00004 	mov	r0, r4
    9708:	e3811592 	orr	r1, r1, #612368384	; 0x24800000
    970c:	eb000322 	bl	a39c <PUT32>
    9710:	e2844004 	add	r4, r4, #4
    9714:	e1a00004 	mov	r0, r4
    9718:	eb000327 	bl	a3bc <GET32>
    971c:	e3c0103f 	bic	r1, r0, #63	; 0x3f
    9720:	e1a00004 	mov	r0, r4
    9724:	e3811024 	orr	r1, r1, #36	; 0x24
    9728:	eb00031b 	bl	a39c <PUT32>
    972c:	e2844004 	add	r4, r4, #4
    9730:	e1a00004 	mov	r0, r4
    9734:	eb000320 	bl	a3bc <GET32>
    9738:	e3c0190e 	bic	r1, r0, #229376	; 0x38000
    973c:	e1a00004 	mov	r0, r4
    9740:	e3811902 	orr	r1, r1, #32768	; 0x8000
    9744:	eb000314 	bl	a39c <PUT32>
    9748:	e59f001c 	ldr	r0, [pc, #28]	; 976c <spi_init+0x98>
    974c:	e3a01030 	mov	r1, #48	; 0x30
    9750:	eb000311 	bl	a39c <PUT32>
    9754:	e59f0014 	ldr	r0, [pc, #20]	; 9770 <spi_init+0x9c>
    9758:	e3a0101a 	mov	r1, #26
    975c:	eb00030e 	bl	a39c <PUT32>
    9760:	e8bd8010 	pop	{r4, pc}
    9764:	20215004 	eorcs	r5, r1, r4
    9768:	20200000 	eorcs	r0, r0, r0
    976c:	20204000 	eorcs	r4, r0, r0
    9770:	20204008 	eorcs	r4, r0, r8

00009774 <spi_one_byte>:
    9774:	e92d4038 	push	{r3, r4, r5, lr}
    9778:	e1a05000 	mov	r5, r0
    977c:	e59f0048 	ldr	r0, [pc, #72]	; 97cc <spi_one_byte+0x58>
    9780:	e3a010b0 	mov	r1, #176	; 0xb0
    9784:	eb000304 	bl	a39c <PUT32>
    9788:	e59f403c 	ldr	r4, [pc, #60]	; 97cc <spi_one_byte+0x58>
    978c:	e1a00004 	mov	r0, r4
    9790:	eb000309 	bl	a3bc <GET32>
    9794:	e3100701 	tst	r0, #262144	; 0x40000
    9798:	0afffffb 	beq	978c <spi_one_byte+0x18>
    979c:	e59f002c 	ldr	r0, [pc, #44]	; 97d0 <spi_one_byte+0x5c>
    97a0:	e6ef1075 	uxtb	r1, r5
    97a4:	eb0002fc 	bl	a39c <PUT32>
    97a8:	e59f401c 	ldr	r4, [pc, #28]	; 97cc <spi_one_byte+0x58>
    97ac:	e1a00004 	mov	r0, r4
    97b0:	eb000301 	bl	a3bc <GET32>
    97b4:	e3100801 	tst	r0, #65536	; 0x10000
    97b8:	0afffffb 	beq	97ac <spi_one_byte+0x38>
    97bc:	e59f0008 	ldr	r0, [pc, #8]	; 97cc <spi_one_byte+0x58>
    97c0:	e3a01000 	mov	r1, #0
    97c4:	eb0002f4 	bl	a39c <PUT32>
    97c8:	e8bd8038 	pop	{r3, r4, r5, pc}
    97cc:	20204000 	eorcs	r4, r0, r0
    97d0:	20204004 	eorcs	r4, r0, r4

000097d4 <spi_command>:
    97d4:	e92d4010 	push	{r4, lr}
    97d8:	e1a04000 	mov	r4, r0
    97dc:	e59f0010 	ldr	r0, [pc, #16]	; 97f4 <spi_command+0x20>
    97e0:	e3a01402 	mov	r1, #33554432	; 0x2000000
    97e4:	eb0002ec 	bl	a39c <PUT32>
    97e8:	e1a00004 	mov	r0, r4
    97ec:	ebffffe0 	bl	9774 <spi_one_byte>
    97f0:	e8bd8010 	pop	{r4, pc}
    97f4:	20200028 	eorcs	r0, r0, r8, lsr #32

000097f8 <spi_data>:
    97f8:	e92d4010 	push	{r4, lr}
    97fc:	e1a04000 	mov	r4, r0
    9800:	e59f0010 	ldr	r0, [pc, #16]	; 9818 <spi_data+0x20>
    9804:	e3a01402 	mov	r1, #33554432	; 0x2000000
    9808:	eb0002e3 	bl	a39c <PUT32>
    980c:	e1a00004 	mov	r0, r4
    9810:	ebffffd7 	bl	9774 <spi_one_byte>
    9814:	e8bd8010 	pop	{r4, pc}
    9818:	2020001c 	eorcs	r0, r0, ip, lsl r0

0000981c <SetPageStart>:
    981c:	e92d4008 	push	{r3, lr}
    9820:	e2000007 	and	r0, r0, #7
    9824:	e38000b0 	orr	r0, r0, #176	; 0xb0
    9828:	ebffffe9 	bl	97d4 <spi_command>
    982c:	e8bd8008 	pop	{r3, pc}

00009830 <SetColumn>:
    9830:	e92d4010 	push	{r4, lr}
    9834:	e1a04000 	mov	r4, r0
    9838:	e1a00220 	lsr	r0, r0, #4
    983c:	e200000f 	and	r0, r0, #15
    9840:	e3800010 	orr	r0, r0, #16
    9844:	ebffffe2 	bl	97d4 <spi_command>
    9848:	e204000f 	and	r0, r4, #15
    984c:	ebffffe0 	bl	97d4 <spi_command>
    9850:	e8bd8010 	pop	{r4, pc}

00009854 <show_text>:
    9854:	e92d41f0 	push	{r4, r5, r6, r7, r8, lr}
    9858:	e1a05001 	mov	r5, r1
    985c:	ebffffee 	bl	981c <SetPageStart>
    9860:	e3a00000 	mov	r0, #0
    9864:	ebfffff1 	bl	9830 <SetColumn>
    9868:	e5d53000 	ldrb	r3, [r5]
    986c:	e3530000 	cmp	r3, #0
    9870:	08bd81f0 	popeq	{r4, r5, r6, r7, r8, pc}
    9874:	e2855001 	add	r5, r5, #1
    9878:	e3a08000 	mov	r8, #0
    987c:	e59f7038 	ldr	r7, [pc, #56]	; 98bc <show_text+0x68>
    9880:	ea00000b 	b	98b4 <show_text+0x60>
    9884:	e1a06005 	mov	r6, r5
    9888:	e5553001 	ldrb	r3, [r5, #-1]
    988c:	e0843183 	add	r3, r4, r3, lsl #3
    9890:	e7d70003 	ldrb	r0, [r7, r3]
    9894:	ebffffd7 	bl	97f8 <spi_data>
    9898:	e2844001 	add	r4, r4, #1
    989c:	e3540008 	cmp	r4, #8
    98a0:	1afffff7 	bne	9884 <show_text+0x30>
    98a4:	e2855001 	add	r5, r5, #1
    98a8:	e5d63000 	ldrb	r3, [r6]
    98ac:	e3530000 	cmp	r3, #0
    98b0:	08bd81f0 	popeq	{r4, r5, r6, r7, r8, pc}
    98b4:	e1a04008 	mov	r4, r8
    98b8:	eafffff1 	b	9884 <show_text+0x30>
    98bc:	0000c03c 	andeq	ip, r0, ip, lsr r0

000098c0 <show_text_hex>:
    98c0:	e92d43f8 	push	{r3, r4, r5, r6, r7, r8, r9, lr}
    98c4:	e1a07001 	mov	r7, r1
    98c8:	ebffffd3 	bl	981c <SetPageStart>
    98cc:	e3a00000 	mov	r0, #0
    98d0:	ebffffd6 	bl	9830 <SetColumn>
    98d4:	e3a06008 	mov	r6, #8
    98d8:	e59f903c 	ldr	r9, [pc, #60]	; 991c <show_text_hex+0x5c>
    98dc:	e3a08000 	mov	r8, #0
    98e0:	e1a05e27 	lsr	r5, r7, #28
    98e4:	e3550009 	cmp	r5, #9
    98e8:	82855037 	addhi	r5, r5, #55	; 0x37
    98ec:	92855030 	addls	r5, r5, #48	; 0x30
    98f0:	e1a07207 	lsl	r7, r7, #4
    98f4:	e0895185 	add	r5, r9, r5, lsl #3
    98f8:	e1a04008 	mov	r4, r8
    98fc:	e7d50004 	ldrb	r0, [r5, r4]
    9900:	ebffffbc 	bl	97f8 <spi_data>
    9904:	e2844001 	add	r4, r4, #1
    9908:	e3540008 	cmp	r4, #8
    990c:	1afffffa 	bne	98fc <show_text_hex+0x3c>
    9910:	e2566001 	subs	r6, r6, #1
    9914:	1afffff1 	bne	98e0 <show_text_hex+0x20>
    9918:	e8bd83f8 	pop	{r3, r4, r5, r6, r7, r8, r9, pc}
    991c:	0000c03c 	andeq	ip, r0, ip, lsr r0

00009920 <hex_screen>:
    9920:	e92d4070 	push	{r4, r5, r6, lr}
    9924:	e1a06000 	mov	r6, r0
    9928:	e59f4034 	ldr	r4, [pc, #52]	; 9964 <hex_screen+0x44>
    992c:	e3a00000 	mov	r0, #0
    9930:	e2805001 	add	r5, r0, #1
    9934:	e5941004 	ldr	r1, [r4, #4]
    9938:	e4841004 	str	r1, [r4], #4
    993c:	ebffffdf 	bl	98c0 <show_text_hex>
    9940:	e3550005 	cmp	r5, #5
    9944:	11a00005 	movne	r0, r5
    9948:	1afffff8 	bne	9930 <hex_screen+0x10>
    994c:	e59f3010 	ldr	r3, [pc, #16]	; 9964 <hex_screen+0x44>
    9950:	e5836014 	str	r6, [r3, #20]
    9954:	e3a00005 	mov	r0, #5
    9958:	e1a01006 	mov	r1, r6
    995c:	ebffffd7 	bl	98c0 <show_text_hex>
    9960:	e8bd8070 	pop	{r4, r5, r6, pc}
    9964:	0000ceb0 			; <UNDEFINED> instruction: 0x0000ceb0

00009968 <ClearScreen>:
    9968:	e92d40f8 	push	{r3, r4, r5, r6, r7, lr}
    996c:	e3a06000 	mov	r6, #0
    9970:	e1a05006 	mov	r5, r6
    9974:	e3a07080 	mov	r7, #128	; 0x80
    9978:	e1a00006 	mov	r0, r6
    997c:	ebffffa6 	bl	981c <SetPageStart>
    9980:	e1a00005 	mov	r0, r5
    9984:	ebffffa9 	bl	9830 <SetColumn>
    9988:	e1a04007 	mov	r4, r7
    998c:	e1a00005 	mov	r0, r5
    9990:	ebffff98 	bl	97f8 <spi_data>
    9994:	e2544001 	subs	r4, r4, #1
    9998:	1afffffb 	bne	998c <ClearScreen+0x24>
    999c:	e2866001 	add	r6, r6, #1
    99a0:	e3560008 	cmp	r6, #8
    99a4:	1afffff3 	bne	9978 <ClearScreen+0x10>
    99a8:	e8bd80f8 	pop	{r3, r4, r5, r6, r7, pc}

000099ac <oled_init>:
    99ac:	e92d4008 	push	{r3, lr}
    99b0:	ebffff47 	bl	96d4 <spi_init>
    99b4:	e3a000ae 	mov	r0, #174	; 0xae
    99b8:	ebffff85 	bl	97d4 <spi_command>
    99bc:	e3a000d5 	mov	r0, #213	; 0xd5
    99c0:	ebffff83 	bl	97d4 <spi_command>
    99c4:	e3a00080 	mov	r0, #128	; 0x80
    99c8:	ebffff81 	bl	97d4 <spi_command>
    99cc:	e3a000a8 	mov	r0, #168	; 0xa8
    99d0:	ebffff7f 	bl	97d4 <spi_command>
    99d4:	e3a0002f 	mov	r0, #47	; 0x2f
    99d8:	ebffff7d 	bl	97d4 <spi_command>
    99dc:	e3a000d3 	mov	r0, #211	; 0xd3
    99e0:	ebffff7b 	bl	97d4 <spi_command>
    99e4:	e3a00000 	mov	r0, #0
    99e8:	ebffff79 	bl	97d4 <spi_command>
    99ec:	e3a00040 	mov	r0, #64	; 0x40
    99f0:	ebffff77 	bl	97d4 <spi_command>
    99f4:	e3a0008d 	mov	r0, #141	; 0x8d
    99f8:	ebffff75 	bl	97d4 <spi_command>
    99fc:	e3a00014 	mov	r0, #20
    9a00:	ebffff73 	bl	97d4 <spi_command>
    9a04:	e3a000a6 	mov	r0, #166	; 0xa6
    9a08:	ebffff71 	bl	97d4 <spi_command>
    9a0c:	e3a000a4 	mov	r0, #164	; 0xa4
    9a10:	ebffff6f 	bl	97d4 <spi_command>
    9a14:	e3a000a1 	mov	r0, #161	; 0xa1
    9a18:	ebffff6d 	bl	97d4 <spi_command>
    9a1c:	e3a000c8 	mov	r0, #200	; 0xc8
    9a20:	ebffff6b 	bl	97d4 <spi_command>
    9a24:	e3a000da 	mov	r0, #218	; 0xda
    9a28:	ebffff69 	bl	97d4 <spi_command>
    9a2c:	e3a00012 	mov	r0, #18
    9a30:	ebffff67 	bl	97d4 <spi_command>
    9a34:	e3a00081 	mov	r0, #129	; 0x81
    9a38:	ebffff65 	bl	97d4 <spi_command>
    9a3c:	e3a0007f 	mov	r0, #127	; 0x7f
    9a40:	ebffff63 	bl	97d4 <spi_command>
    9a44:	e3a000d9 	mov	r0, #217	; 0xd9
    9a48:	ebffff61 	bl	97d4 <spi_command>
    9a4c:	e3a000f1 	mov	r0, #241	; 0xf1
    9a50:	ebffff5f 	bl	97d4 <spi_command>
    9a54:	e3a000db 	mov	r0, #219	; 0xdb
    9a58:	ebffff5d 	bl	97d4 <spi_command>
    9a5c:	e3a00040 	mov	r0, #64	; 0x40
    9a60:	ebffff5b 	bl	97d4 <spi_command>
    9a64:	ebffffbf 	bl	9968 <ClearScreen>
    9a68:	e3a000af 	mov	r0, #175	; 0xaf
    9a6c:	ebffff58 	bl	97d4 <spi_command>
    9a70:	ebffffbc 	bl	9968 <ClearScreen>
    9a74:	e8bd8008 	pop	{r3, pc}

00009a78 <rpi_putchar>:
    9a78:	e92d4010 	push	{r4, lr}
    9a7c:	e1a04000 	mov	r4, r0
    9a80:	ebfffef0 	bl	9648 <uart_putc>
    9a84:	e1a00004 	mov	r0, r4
    9a88:	e8bd8010 	pop	{r4, pc}

00009a8c <printk>:
    9a8c:	e92d000f 	push	{r0, r1, r2, r3}
    9a90:	e92d4030 	push	{r4, r5, lr}
    9a94:	e24dd00c 	sub	sp, sp, #12
    9a98:	e28d301c 	add	r3, sp, #28
    9a9c:	e58d3004 	str	r3, [sp, #4]
    9aa0:	e59f4040 	ldr	r4, [pc, #64]	; 9ae8 <printk+0x5c>
    9aa4:	e1a00004 	mov	r0, r4
    9aa8:	e3a01b01 	mov	r1, #1024	; 0x400
    9aac:	e59d2018 	ldr	r2, [sp, #24]
    9ab0:	eb00008c 	bl	9ce8 <va_printk>
    9ab4:	e1a05000 	mov	r5, r0
    9ab8:	e5d40000 	ldrb	r0, [r4]
    9abc:	e3500000 	cmp	r0, #0
    9ac0:	0a000003 	beq	9ad4 <printk+0x48>
    9ac4:	ebfffedf 	bl	9648 <uart_putc>
    9ac8:	e5f40001 	ldrb	r0, [r4, #1]!
    9acc:	e3500000 	cmp	r0, #0
    9ad0:	1afffffb 	bne	9ac4 <printk+0x38>
    9ad4:	e1a00005 	mov	r0, r5
    9ad8:	e28dd00c 	add	sp, sp, #12
    9adc:	e8bd4030 	pop	{r4, r5, lr}
    9ae0:	e28dd010 	add	sp, sp, #16
    9ae4:	e12fff1e 	bx	lr
    9ae8:	0000caac 	andeq	ip, r0, ip, lsr #21

00009aec <emit>:
    9aec:	e92d43f0 	push	{r4, r5, r6, r7, r8, r9, lr}
    9af0:	e24dd044 	sub	sp, sp, #68	; 0x44
    9af4:	e59d5060 	ldr	r5, [sp, #96]	; 0x60
    9af8:	e1550002 	cmp	r5, r2
    9afc:	c2425001 	subgt	r5, r2, #1
    9b00:	e1a0c003 	mov	ip, r3
    9b04:	e2400002 	sub	r0, r0, #2
    9b08:	e350000e 	cmp	r0, #14
    9b0c:	979ff100 	ldrls	pc, [pc, r0, lsl #2]
    9b10:	ea00003f 	b	9c14 <emit+0x128>
    9b14:	00009bec 	andeq	r9, r0, ip, ror #23
    9b18:	00009c14 	andeq	r9, r0, r4, lsl ip
    9b1c:	00009c14 	andeq	r9, r0, r4, lsl ip
    9b20:	00009c14 	andeq	r9, r0, r4, lsl ip
    9b24:	00009c14 	andeq	r9, r0, r4, lsl ip
    9b28:	00009c14 	andeq	r9, r0, r4, lsl ip
    9b2c:	00009be0 	andeq	r9, r0, r0, ror #23
    9b30:	00009c14 	andeq	r9, r0, r4, lsl ip
    9b34:	00009b50 	andeq	r9, r0, r0, asr fp
    9b38:	00009c14 	andeq	r9, r0, r4, lsl ip
    9b3c:	00009c14 	andeq	r9, r0, r4, lsl ip
    9b40:	00009c14 	andeq	r9, r0, r4, lsl ip
    9b44:	00009c14 	andeq	r9, r0, r4, lsl ip
    9b48:	00009c14 	andeq	r9, r0, r4, lsl ip
    9b4c:	00009bb8 			; <UNDEFINED> instruction: 0x00009bb8
    9b50:	e59d0064 	ldr	r0, [sp, #100]	; 0x64
    9b54:	e2900000 	adds	r0, r0, #0
    9b58:	13a00001 	movne	r0, #1
    9b5c:	e0100fa3 	ands	r0, r0, r3, lsr #31
    9b60:	1263c000 	rsbne	ip, r3, #0
    9b64:	13a09001 	movne	r9, #1
    9b68:	03a09000 	moveq	r9, #0
    9b6c:	e1a0000d 	mov	r0, sp
    9b70:	e59f8154 	ldr	r8, [pc, #340]	; 9ccc <emit+0x1e0>
    9b74:	e59f7154 	ldr	r7, [pc, #340]	; 9cd0 <emit+0x1e4>
    9b78:	e1a03000 	mov	r3, r0
    9b7c:	e0846c97 	umull	r6, r4, r7, ip
    9b80:	e1a041a4 	lsr	r4, r4, #3
    9b84:	e0846104 	add	r6, r4, r4, lsl #2
    9b88:	e04cc086 	sub	ip, ip, r6, lsl #1
    9b8c:	e7d8c00c 	ldrb	ip, [r8, ip]
    9b90:	e4c3c001 	strb	ip, [r3], #1
    9b94:	e1a0c004 	mov	ip, r4
    9b98:	e3540000 	cmp	r4, #0
    9b9c:	11a00003 	movne	r0, r3
    9ba0:	1afffff4 	bne	9b78 <emit+0x8c>
    9ba4:	e3590000 	cmp	r9, #0
    9ba8:	12803002 	addne	r3, r0, #2
    9bac:	13a0c02d 	movne	ip, #45	; 0x2d
    9bb0:	15c0c001 	strbne	ip, [r0, #1]
    9bb4:	ea00001c 	b	9c2c <emit+0x140>
    9bb8:	e28d4001 	add	r4, sp, #1
    9bbc:	e59f6110 	ldr	r6, [pc, #272]	; 9cd4 <emit+0x1e8>
    9bc0:	e1a03004 	mov	r3, r4
    9bc4:	e20c000f 	and	r0, ip, #15
    9bc8:	e7d60000 	ldrb	r0, [r6, r0]
    9bcc:	e5440001 	strb	r0, [r4, #-1]
    9bd0:	e2844001 	add	r4, r4, #1
    9bd4:	e1b0c22c 	lsrs	ip, ip, #4
    9bd8:	1afffff8 	bne	9bc0 <emit+0xd4>
    9bdc:	ea000012 	b	9c2c <emit+0x140>
    9be0:	e5cd3000 	strb	r3, [sp]
    9be4:	e28d3001 	add	r3, sp, #1
    9be8:	ea00000f 	b	9c2c <emit+0x140>
    9bec:	e28d4001 	add	r4, sp, #1
    9bf0:	e59f60e0 	ldr	r6, [pc, #224]	; 9cd8 <emit+0x1ec>
    9bf4:	e1a03004 	mov	r3, r4
    9bf8:	e20c0001 	and	r0, ip, #1
    9bfc:	e7d60000 	ldrb	r0, [r6, r0]
    9c00:	e5440001 	strb	r0, [r4, #-1]
    9c04:	e2844001 	add	r4, r4, #1
    9c08:	e1b0c0ac 	lsrs	ip, ip, #1
    9c0c:	1afffff8 	bne	9bf4 <emit+0x108>
    9c10:	ea000005 	b	9c2c <emit+0x140>
    9c14:	e59f00c0 	ldr	r0, [pc, #192]	; 9cdc <emit+0x1f0>
    9c18:	e59f10c0 	ldr	r1, [pc, #192]	; 9ce0 <emit+0x1f4>
    9c1c:	e59f20c0 	ldr	r2, [pc, #192]	; 9ce4 <emit+0x1f8>
    9c20:	e3a0308d 	mov	r3, #141	; 0x8d
    9c24:	ebffff98 	bl	9a8c <printk>
    9c28:	eb00010c 	bl	a060 <rpi_reboot>
    9c2c:	e1a0400d 	mov	r4, sp
    9c30:	e064c003 	rsb	ip, r4, r3
    9c34:	e155000c 	cmp	r5, ip
    9c38:	da000006 	ble	9c58 <emit+0x16c>
    9c3c:	e06cc005 	rsb	ip, ip, r5
    9c40:	e083c00c 	add	ip, r3, ip
    9c44:	e3a00020 	mov	r0, #32
    9c48:	e4c30001 	strb	r0, [r3], #1
    9c4c:	e153000c 	cmp	r3, ip
    9c50:	1afffffc 	bne	9c48 <emit+0x15c>
    9c54:	ea000000 	b	9c5c <emit+0x170>
    9c58:	e1a0c003 	mov	ip, r3
    9c5c:	e3a03000 	mov	r3, #0
    9c60:	e5cc3000 	strb	r3, [ip]
    9c64:	e064400c 	rsb	r4, r4, ip
    9c68:	e2844001 	add	r4, r4, #1
    9c6c:	e1520004 	cmp	r2, r4
    9c70:	b0624004 	rsblt	r4, r2, r4
    9c74:	b08d3003 	addlt	r3, sp, r3
    9c78:	b0834004 	addlt	r4, r3, r4
    9c7c:	a1a0400d 	movge	r4, sp
    9c80:	e24c3001 	sub	r3, ip, #1
    9c84:	e1540003 	cmp	r4, r3
    9c88:	8a000009 	bhi	9cb4 <emit+0x1c8>
    9c8c:	e1a0000c 	mov	r0, ip
    9c90:	e1a0300c 	mov	r3, ip
    9c94:	e1a02001 	mov	r2, r1
    9c98:	e573c001 	ldrb	ip, [r3, #-1]!
    9c9c:	e4c2c001 	strb	ip, [r2], #1
    9ca0:	e1530004 	cmp	r3, r4
    9ca4:	1afffffb 	bne	9c98 <emit+0x1ac>
    9ca8:	e0644000 	rsb	r4, r4, r0
    9cac:	e0814004 	add	r4, r1, r4
    9cb0:	ea000000 	b	9cb8 <emit+0x1cc>
    9cb4:	e1a04001 	mov	r4, r1
    9cb8:	e3a03000 	mov	r3, #0
    9cbc:	e5c43000 	strb	r3, [r4]
    9cc0:	e1a00001 	mov	r0, r1
    9cc4:	e28dd044 	add	sp, sp, #68	; 0x44
    9cc8:	e8bd83f0 	pop	{r4, r5, r6, r7, r8, r9, pc}
    9ccc:	0000bdd0 	ldrdeq	fp, [r0], -r0
    9cd0:	cccccccd 	stclgt	12, cr12, [ip], {205}	; 0xcd
    9cd4:	0000c874 	andeq	ip, r0, r4, ror r8
    9cd8:	0000c888 	andeq	ip, r0, r8, lsl #17
    9cdc:	0000c850 	andeq	ip, r0, r0, asr r8
    9ce0:	0000c864 	andeq	ip, r0, r4, ror #16
    9ce4:	0000c83c 	andeq	ip, r0, ip, lsr r8

00009ce8 <va_printk>:
    9ce8:	e92d4ff0 	push	{r4, r5, r6, r7, r8, r9, sl, fp, lr}
    9cec:	e24dd08c 	sub	sp, sp, #140	; 0x8c
    9cf0:	e1a07000 	mov	r7, r0
    9cf4:	e2411001 	sub	r1, r1, #1
    9cf8:	e0805001 	add	r5, r0, r1
    9cfc:	e3a01000 	mov	r1, #0
    9d00:	e5c01000 	strb	r1, [r0]
    9d04:	e1a04000 	mov	r4, r0
    9d08:	e1a08001 	mov	r8, r1
    9d0c:	e3a0a008 	mov	sl, #8
    9d10:	e3a09080 	mov	r9, #128	; 0x80
    9d14:	ea000088 	b	9f3c <va_printk+0x254>
    9d18:	e3510025 	cmp	r1, #37	; 0x25
    9d1c:	12822001 	addne	r2, r2, #1
    9d20:	15c41000 	strbne	r1, [r4]
    9d24:	12844001 	addne	r4, r4, #1
    9d28:	1a000083 	bne	9f3c <va_printk+0x254>
    9d2c:	e5d21001 	ldrb	r1, [r2, #1]
    9d30:	e3510025 	cmp	r1, #37	; 0x25
    9d34:	05c41000 	strbeq	r1, [r4]
    9d38:	02822002 	addeq	r2, r2, #2
    9d3c:	02844001 	addeq	r4, r4, #1
    9d40:	0a00007d 	beq	9f3c <va_printk+0x254>
    9d44:	e2826001 	add	r6, r2, #1
    9d48:	e1a00001 	mov	r0, r1
    9d4c:	e241c030 	sub	ip, r1, #48	; 0x30
    9d50:	e35c0009 	cmp	ip, #9
    9d54:	8a000012 	bhi	9da4 <va_printk+0xbc>
    9d58:	e2822002 	add	r2, r2, #2
    9d5c:	e1a0c008 	mov	ip, r8
    9d60:	e08cc10c 	add	ip, ip, ip, lsl #2
    9d64:	e080c08c 	add	ip, r0, ip, lsl #1
    9d68:	e24cc030 	sub	ip, ip, #48	; 0x30
    9d6c:	e1a06002 	mov	r6, r2
    9d70:	e4d21001 	ldrb	r1, [r2], #1
    9d74:	e1a00001 	mov	r0, r1
    9d78:	e241b030 	sub	fp, r1, #48	; 0x30
    9d7c:	e35b0009 	cmp	fp, #9
    9d80:	9afffff6 	bls	9d60 <va_printk+0x78>
    9d84:	e35c001f 	cmp	ip, #31
    9d88:	9a000007 	bls	9dac <va_printk+0xc4>
    9d8c:	e59f01e8 	ldr	r0, [pc, #488]	; 9f7c <va_printk+0x294>
    9d90:	e59f11e8 	ldr	r1, [pc, #488]	; 9f80 <va_printk+0x298>
    9d94:	e59f21e8 	ldr	r2, [pc, #488]	; 9f84 <va_printk+0x29c>
    9d98:	e3a030a9 	mov	r3, #169	; 0xa9
    9d9c:	ebffff3a 	bl	9a8c <printk>
    9da0:	eb0000ae 	bl	a060 <rpi_reboot>
    9da4:	e1a00001 	mov	r0, r1
    9da8:	e1a0c008 	mov	ip, r8
    9dac:	e2411062 	sub	r1, r1, #98	; 0x62
    9db0:	e3510016 	cmp	r1, #22
    9db4:	979ff101 	ldrls	pc, [pc, r1, lsl #2]
    9db8:	ea000052 	b	9f08 <va_printk+0x220>
    9dbc:	00009eac 	andeq	r9, r0, ip, lsr #29
    9dc0:	00009ee0 	andeq	r9, r0, r0, ror #29
    9dc4:	00009e30 	andeq	r9, r0, r0, lsr lr
    9dc8:	00009f08 	andeq	r9, r0, r8, lsl #30
    9dcc:	00009e18 	andeq	r9, r0, r8, lsl lr
    9dd0:	00009f08 	andeq	r9, r0, r8, lsl #30
    9dd4:	00009f08 	andeq	r9, r0, r8, lsl #30
    9dd8:	00009f08 	andeq	r9, r0, r8, lsl #30
    9ddc:	00009f08 	andeq	r9, r0, r8, lsl #30
    9de0:	00009f08 	andeq	r9, r0, r8, lsl #30
    9de4:	00009f08 	andeq	r9, r0, r8, lsl #30
    9de8:	00009f08 	andeq	r9, r0, r8, lsl #30
    9dec:	00009f08 	andeq	r9, r0, r8, lsl #30
    9df0:	00009f08 	andeq	r9, r0, r8, lsl #30
    9df4:	00009e84 	andeq	r9, r0, r4, lsl #29
    9df8:	00009f08 	andeq	r9, r0, r8, lsl #30
    9dfc:	00009f08 	andeq	r9, r0, r8, lsl #30
    9e00:	00009ed4 	ldrdeq	r9, [r0], -r4
    9e04:	00009f08 	andeq	r9, r0, r8, lsl #30
    9e08:	00009e5c 	andeq	r9, r0, ip, asr lr
    9e0c:	00009f08 	andeq	r9, r0, r8, lsl #30
    9e10:	00009f08 	andeq	r9, r0, r8, lsl #30
    9e14:	00009e84 	andeq	r9, r0, r4, lsl #29
    9e18:	e59f0168 	ldr	r0, [pc, #360]	; 9f88 <va_printk+0x2a0>
    9e1c:	e59f115c 	ldr	r1, [pc, #348]	; 9f80 <va_printk+0x298>
    9e20:	e59f215c 	ldr	r2, [pc, #348]	; 9f84 <va_printk+0x29c>
    9e24:	e3a030af 	mov	r3, #175	; 0xaf
    9e28:	ebffff17 	bl	9a8c <printk>
    9e2c:	eb00008b 	bl	a060 <rpi_reboot>
    9e30:	e283b004 	add	fp, r3, #4
    9e34:	e5933000 	ldr	r3, [r3]
    9e38:	e58dc000 	str	ip, [sp]
    9e3c:	e3a02001 	mov	r2, #1
    9e40:	e58d2004 	str	r2, [sp, #4]
    9e44:	e3a0000a 	mov	r0, #10
    9e48:	e28d1008 	add	r1, sp, #8
    9e4c:	e1a02009 	mov	r2, r9
    9e50:	ebffff25 	bl	9aec <emit>
    9e54:	e1a0300b 	mov	r3, fp
    9e58:	ea000040 	b	9f60 <va_printk+0x278>
    9e5c:	e283b004 	add	fp, r3, #4
    9e60:	e5933000 	ldr	r3, [r3]
    9e64:	e58dc000 	str	ip, [sp]
    9e68:	e58d8004 	str	r8, [sp, #4]
    9e6c:	e3a0000a 	mov	r0, #10
    9e70:	e28d1008 	add	r1, sp, #8
    9e74:	e1a02009 	mov	r2, r9
    9e78:	ebffff1b 	bl	9aec <emit>
    9e7c:	e1a0300b 	mov	r3, fp
    9e80:	ea000036 	b	9f60 <va_printk+0x278>
    9e84:	e283b004 	add	fp, r3, #4
    9e88:	e5933000 	ldr	r3, [r3]
    9e8c:	e58dc000 	str	ip, [sp]
    9e90:	e58d8004 	str	r8, [sp, #4]
    9e94:	e3a00010 	mov	r0, #16
    9e98:	e28d1008 	add	r1, sp, #8
    9e9c:	e1a02009 	mov	r2, r9
    9ea0:	ebffff11 	bl	9aec <emit>
    9ea4:	e1a0300b 	mov	r3, fp
    9ea8:	ea00002c 	b	9f60 <va_printk+0x278>
    9eac:	e283b004 	add	fp, r3, #4
    9eb0:	e5933000 	ldr	r3, [r3]
    9eb4:	e58dc000 	str	ip, [sp]
    9eb8:	e58d8004 	str	r8, [sp, #4]
    9ebc:	e3a00002 	mov	r0, #2
    9ec0:	e28d1008 	add	r1, sp, #8
    9ec4:	e1a02009 	mov	r2, r9
    9ec8:	ebffff07 	bl	9aec <emit>
    9ecc:	e1a0300b 	mov	r3, fp
    9ed0:	ea000022 	b	9f60 <va_printk+0x278>
    9ed4:	e5930000 	ldr	r0, [r3]
    9ed8:	e2833004 	add	r3, r3, #4
    9edc:	ea00001f 	b	9f60 <va_printk+0x278>
    9ee0:	e283b004 	add	fp, r3, #4
    9ee4:	e5933000 	ldr	r3, [r3]
    9ee8:	e58dc000 	str	ip, [sp]
    9eec:	e58d8004 	str	r8, [sp, #4]
    9ef0:	e1a0000a 	mov	r0, sl
    9ef4:	e28d1008 	add	r1, sp, #8
    9ef8:	e1a02009 	mov	r2, r9
    9efc:	ebfffefa 	bl	9aec <emit>
    9f00:	e1a0300b 	mov	r3, fp
    9f04:	ea000015 	b	9f60 <va_printk+0x278>
    9f08:	e58d0000 	str	r0, [sp]
    9f0c:	e59f0078 	ldr	r0, [pc, #120]	; 9f8c <va_printk+0x2a4>
    9f10:	e59f1068 	ldr	r1, [pc, #104]	; 9f80 <va_printk+0x298>
    9f14:	e59f2068 	ldr	r2, [pc, #104]	; 9f84 <va_printk+0x29c>
    9f18:	e3a030d0 	mov	r3, #208	; 0xd0
    9f1c:	ebfffeda 	bl	9a8c <printk>
    9f20:	eb00004e 	bl	a060 <rpi_reboot>
    9f24:	e4c41001 	strb	r1, [r4], #1
    9f28:	e1540005 	cmp	r4, r5
    9f2c:	0a000002 	beq	9f3c <va_printk+0x254>
    9f30:	e5f01001 	ldrb	r1, [r0, #1]!
    9f34:	e3510000 	cmp	r1, #0
    9f38:	1afffff9 	bne	9f24 <va_printk+0x23c>
    9f3c:	e5d21000 	ldrb	r1, [r2]
    9f40:	e3510000 	cmp	r1, #0
    9f44:	0a000001 	beq	9f50 <va_printk+0x268>
    9f48:	e1540005 	cmp	r4, r5
    9f4c:	3affff71 	bcc	9d18 <va_printk+0x30>
    9f50:	e3a03000 	mov	r3, #0
    9f54:	e4c43001 	strb	r3, [r4], #1
    9f58:	e0670004 	rsb	r0, r7, r4
    9f5c:	ea000004 	b	9f74 <va_printk+0x28c>
    9f60:	e2862001 	add	r2, r6, #1
    9f64:	e5d01000 	ldrb	r1, [r0]
    9f68:	e3510000 	cmp	r1, #0
    9f6c:	0afffff2 	beq	9f3c <va_printk+0x254>
    9f70:	eaffffeb 	b	9f24 <va_printk+0x23c>
    9f74:	e28dd08c 	add	sp, sp, #140	; 0x8c
    9f78:	e8bd8ff0 	pop	{r4, r5, r6, r7, r8, r9, sl, fp, pc}
    9f7c:	0000c88c 	andeq	ip, r0, ip, lsl #17
    9f80:	0000c864 	andeq	ip, r0, r4, ror #16
    9f84:	0000c844 	andeq	ip, r0, r4, asr #16
    9f88:	0000c8a8 	andeq	ip, r0, r8, lsr #17
    9f8c:	0000c8d0 	ldrdeq	ip, [r0], -r0

00009f90 <snprintk>:
    9f90:	e92d000c 	push	{r2, r3}
    9f94:	e52de004 	push	{lr}		; (str lr, [sp, #-4]!)
    9f98:	e24dd00c 	sub	sp, sp, #12
    9f9c:	e28d3014 	add	r3, sp, #20
    9fa0:	e58d3004 	str	r3, [sp, #4]
    9fa4:	e59d2010 	ldr	r2, [sp, #16]
    9fa8:	ebffff4e 	bl	9ce8 <va_printk>
    9fac:	e28dd00c 	add	sp, sp, #12
    9fb0:	e49de004 	pop	{lr}		; (ldr lr, [sp], #4)
    9fb4:	e28dd008 	add	sp, sp, #8
    9fb8:	e12fff1e 	bx	lr

00009fbc <uart_hex>:
    9fbc:	e92d4008 	push	{r3, lr}
    9fc0:	e59f0004 	ldr	r0, [pc, #4]	; 9fcc <uart_hex+0x10>
    9fc4:	ebfffeb0 	bl	9a8c <printk>
    9fc8:	e8bd8008 	pop	{r3, pc}
    9fcc:	0000c908 	andeq	ip, r0, r8, lsl #18

00009fd0 <putk>:
    9fd0:	e92d4010 	push	{r4, lr}
    9fd4:	e1a04000 	mov	r4, r0
    9fd8:	e5d00000 	ldrb	r0, [r0]
    9fdc:	e3500000 	cmp	r0, #0
    9fe0:	0a000003 	beq	9ff4 <putk+0x24>
    9fe4:	ebfffd97 	bl	9648 <uart_putc>
    9fe8:	e5f40001 	ldrb	r0, [r4, #1]!
    9fec:	e3500000 	cmp	r0, #0
    9ff0:	1afffffb 	bne	9fe4 <putk+0x14>
    9ff4:	e3a00001 	mov	r0, #1
    9ff8:	e8bd8010 	pop	{r4, pc}

00009ffc <panic>:
    9ffc:	e92d4008 	push	{r3, lr}
    a000:	e1a06000 	mov	r6, r0
    a004:	e1a05001 	mov	r5, r1
    a008:	e1a04002 	mov	r4, r2
    a00c:	e59f0018 	ldr	r0, [pc, #24]	; a02c <panic+0x30>
    a010:	ebffffee 	bl	9fd0 <putk>
    a014:	e59f0014 	ldr	r0, [pc, #20]	; a030 <panic+0x34>
    a018:	e1a01006 	mov	r1, r6
    a01c:	e1a02005 	mov	r2, r5
    a020:	e1a03004 	mov	r3, r4
    a024:	ebfffe98 	bl	9a8c <printk>
    a028:	eb00000c 	bl	a060 <rpi_reboot>
    a02c:	0000c90c 	andeq	ip, r0, ip, lsl #18
    a030:	0000c918 	andeq	ip, r0, r8, lsl r9

0000a034 <at_user_level>:
    a034:	e10f0000 	mrs	r0, CPSR
    a038:	e200001f 	and	r0, r0, #31
    a03c:	e3500010 	cmp	r0, #16
    a040:	13a00000 	movne	r0, #0
    a044:	03a00001 	moveq	r0, #1
    a048:	e12fff1e 	bx	lr

0000a04c <set_user_level>:
    a04c:	e10f3000 	mrs	r3, CPSR
    a050:	e3c3301f 	bic	r3, r3, #31
    a054:	e3833010 	orr	r3, r3, #16
    a058:	e129f003 	msr	CPSR_fc, r3
    a05c:	e12fff1e 	bx	lr

0000a060 <rpi_reboot>:
    a060:	e92d4008 	push	{r3, lr}
    a064:	ebfffff2 	bl	a034 <at_user_level>
    a068:	e3500000 	cmp	r0, #0
    a06c:	0a000009 	beq	a098 <rpi_reboot+0x38>
    a070:	ebfffff5 	bl	a04c <set_user_level>
    a074:	ebffffee 	bl	a034 <at_user_level>
    a078:	e3500000 	cmp	r0, #0
    a07c:	1a000005 	bne	a098 <rpi_reboot+0x38>
    a080:	e59f0034 	ldr	r0, [pc, #52]	; a0bc <rpi_reboot+0x5c>
    a084:	e59f1034 	ldr	r1, [pc, #52]	; a0c0 <rpi_reboot+0x60>
    a088:	e59f2034 	ldr	r2, [pc, #52]	; a0c4 <rpi_reboot+0x64>
    a08c:	e3a0301f 	mov	r3, #31
    a090:	ebfffe7d 	bl	9a8c <printk>
    a094:	ebfffff1 	bl	a060 <rpi_reboot>
    a098:	e3a0001e 	mov	r0, #30
    a09c:	eb00002a 	bl	a14c <delay_ms>
    a0a0:	e59f0020 	ldr	r0, [pc, #32]	; a0c8 <rpi_reboot+0x68>
    a0a4:	e59f1020 	ldr	r1, [pc, #32]	; a0cc <rpi_reboot+0x6c>
    a0a8:	eb0000bb 	bl	a39c <PUT32>
    a0ac:	e59f001c 	ldr	r0, [pc, #28]	; a0d0 <rpi_reboot+0x70>
    a0b0:	e59f101c 	ldr	r1, [pc, #28]	; a0d4 <rpi_reboot+0x74>
    a0b4:	eb0000b8 	bl	a39c <PUT32>
    a0b8:	eafffffe 	b	a0b8 <rpi_reboot+0x58>
    a0bc:	0000c944 	andeq	ip, r0, r4, asr #18
    a0c0:	0000c964 	andeq	ip, r0, r4, ror #18
    a0c4:	0000c938 	andeq	ip, r0, r8, lsr r9
    a0c8:	20100024 	andscs	r0, r0, r4, lsr #32
    a0cc:	5a000001 	bpl	a0d8 <clean_reboot>
    a0d0:	2010001c 	andscs	r0, r0, ip, lsl r0
    a0d4:	5a000020 	bpl	a15c <delay_ms+0x10>

0000a0d8 <clean_reboot>:
    a0d8:	e92d4008 	push	{r3, lr}
    a0dc:	e59f000c 	ldr	r0, [pc, #12]	; a0f0 <clean_reboot+0x18>
    a0e0:	ebffffba 	bl	9fd0 <putk>
    a0e4:	e3a00032 	mov	r0, #50	; 0x32
    a0e8:	eb000017 	bl	a14c <delay_ms>
    a0ec:	ebffffdb 	bl	a060 <rpi_reboot>
    a0f0:	0000c974 	andeq	ip, r0, r4, ror r9

0000a0f4 <delay_cycles>:
    a0f4:	e2403001 	sub	r3, r0, #1
    a0f8:	e3500000 	cmp	r0, #0
    a0fc:	012fff1e 	bxeq	lr
    a100:	e2811000 	add	r1, r1, #0
    a104:	e2433001 	sub	r3, r3, #1
    a108:	e3730001 	cmn	r3, #1
    a10c:	1afffffb 	bne	a100 <delay_cycles+0xc>
    a110:	e12fff1e 	bx	lr

0000a114 <timer_get_time>:
    a114:	e92d4008 	push	{r3, lr}
    a118:	e59f0004 	ldr	r0, [pc, #4]	; a124 <timer_get_time+0x10>
    a11c:	eb0000a6 	bl	a3bc <GET32>
    a120:	e8bd8008 	pop	{r3, pc}
    a124:	20003004 	andcs	r3, r0, r4

0000a128 <delay_us>:
    a128:	e92d4038 	push	{r3, r4, r5, lr}
    a12c:	e1a05000 	mov	r5, r0
    a130:	ebfffff7 	bl	a114 <timer_get_time>
    a134:	e1a04000 	mov	r4, r0
    a138:	ebfffff5 	bl	a114 <timer_get_time>
    a13c:	e0640000 	rsb	r0, r4, r0
    a140:	e1500005 	cmp	r0, r5
    a144:	3afffffb 	bcc	a138 <delay_us+0x10>
    a148:	e8bd8038 	pop	{r3, r4, r5, pc}

0000a14c <delay_ms>:
    a14c:	e92d4008 	push	{r3, lr}
    a150:	e3a03ffa 	mov	r3, #1000	; 0x3e8
    a154:	e0000093 	mul	r0, r3, r0
    a158:	ebfffff2 	bl	a128 <delay_us>
    a15c:	e8bd8008 	pop	{r3, pc}

0000a160 <memset>:
    a160:	e0802002 	add	r2, r0, r2
    a164:	e1500002 	cmp	r0, r2
    a168:	212fff1e 	bxcs	lr
    a16c:	e1a03000 	mov	r3, r0
    a170:	e4c31001 	strb	r1, [r3], #1
    a174:	e1530002 	cmp	r3, r2
    a178:	1afffffc 	bne	a170 <memset+0x10>
    a17c:	e12fff1e 	bx	lr

0000a180 <memcmp>:
    a180:	e52d4004 	push	{r4}		; (str r4, [sp, #-4]!)
    a184:	e3520000 	cmp	r2, #0
    a188:	0a00000f 	beq	a1cc <memcmp+0x4c>
    a18c:	e5d04000 	ldrb	r4, [r0]
    a190:	e5d13000 	ldrb	r3, [r1]
    a194:	e0543003 	subs	r3, r4, r3
    a198:	1a00000d 	bne	a1d4 <memcmp+0x54>
    a19c:	e1a03000 	mov	r3, r0
    a1a0:	e242c001 	sub	ip, r2, #1
    a1a4:	e080c00c 	add	ip, r0, ip
    a1a8:	ea000003 	b	a1bc <memcmp+0x3c>
    a1ac:	e5f30001 	ldrb	r0, [r3, #1]!
    a1b0:	e5f12001 	ldrb	r2, [r1, #1]!
    a1b4:	e0500002 	subs	r0, r0, r2
    a1b8:	1a000006 	bne	a1d8 <memcmp+0x58>
    a1bc:	e153000c 	cmp	r3, ip
    a1c0:	1afffff9 	bne	a1ac <memcmp+0x2c>
    a1c4:	e3a00000 	mov	r0, #0
    a1c8:	ea000002 	b	a1d8 <memcmp+0x58>
    a1cc:	e3a00000 	mov	r0, #0
    a1d0:	ea000000 	b	a1d8 <memcmp+0x58>
    a1d4:	e1a00003 	mov	r0, r3
    a1d8:	e49d4004 	pop	{r4}		; (ldr r4, [sp], #4)
    a1dc:	e12fff1e 	bx	lr

0000a1e0 <memcpy>:
    a1e0:	e1803001 	orr	r3, r0, r1
    a1e4:	e3130003 	tst	r3, #3
    a1e8:	1a000001 	bne	a1f4 <memcpy+0x14>
    a1ec:	e3120003 	tst	r2, #3
    a1f0:	0a000003 	beq	a204 <memcpy+0x24>
    a1f4:	e3520000 	cmp	r2, #0
    a1f8:	13a03000 	movne	r3, #0
    a1fc:	1a00000a 	bne	a22c <memcpy+0x4c>
    a200:	e12fff1e 	bx	lr
    a204:	e1b02122 	lsrs	r2, r2, #2
    a208:	012fff1e 	bxeq	lr
    a20c:	e1a0c102 	lsl	ip, r2, #2
    a210:	e3a03000 	mov	r3, #0
    a214:	e7912003 	ldr	r2, [r1, r3]
    a218:	e7802003 	str	r2, [r0, r3]
    a21c:	e2833004 	add	r3, r3, #4
    a220:	e153000c 	cmp	r3, ip
    a224:	1afffffa 	bne	a214 <memcpy+0x34>
    a228:	e12fff1e 	bx	lr
    a22c:	e7d1c003 	ldrb	ip, [r1, r3]
    a230:	e7c0c003 	strb	ip, [r0, r3]
    a234:	e2833001 	add	r3, r3, #1
    a238:	e1530002 	cmp	r3, r2
    a23c:	1afffffa 	bne	a22c <memcpy+0x4c>
    a240:	e12fff1e 	bx	lr

0000a244 <strcmp>:
    a244:	e5d03000 	ldrb	r3, [r0]
    a248:	e3530000 	cmp	r3, #0
    a24c:	0a00000b 	beq	a280 <strcmp+0x3c>
    a250:	e5d12000 	ldrb	r2, [r1]
    a254:	e1520003 	cmp	r2, r3
    a258:	1a000008 	bne	a280 <strcmp+0x3c>
    a25c:	e2812001 	add	r2, r1, #1
    a260:	e1a01002 	mov	r1, r2
    a264:	e5f03001 	ldrb	r3, [r0, #1]!
    a268:	e3530000 	cmp	r3, #0
    a26c:	0a000003 	beq	a280 <strcmp+0x3c>
    a270:	e2822001 	add	r2, r2, #1
    a274:	e5d1c000 	ldrb	ip, [r1]
    a278:	e15c0003 	cmp	ip, r3
    a27c:	0afffff7 	beq	a260 <strcmp+0x1c>
    a280:	e5d10000 	ldrb	r0, [r1]
    a284:	e0600003 	rsb	r0, r0, r3
    a288:	e12fff1e 	bx	lr

0000a28c <strncmp>:
    a28c:	e0802002 	add	r2, r0, r2
    a290:	ea000005 	b	a2ac <strncmp+0x20>
    a294:	e4d0c001 	ldrb	ip, [r0], #1
    a298:	e4d13001 	ldrb	r3, [r1], #1
    a29c:	e15c0003 	cmp	ip, r3
    a2a0:	0a000001 	beq	a2ac <strncmp+0x20>
    a2a4:	e063000c 	rsb	r0, r3, ip
    a2a8:	e12fff1e 	bx	lr
    a2ac:	e1500002 	cmp	r0, r2
    a2b0:	1afffff7 	bne	a294 <strncmp+0x8>
    a2b4:	e3a00000 	mov	r0, #0
    a2b8:	e12fff1e 	bx	lr

0000a2bc <dev_barrier>:
    a2bc:	e92d4008 	push	{r3, lr}
    a2c0:	eb000132 	bl	a790 <dmb>
    a2c4:	eb000133 	bl	a798 <dsb>
    a2c8:	e8bd8008 	pop	{r3, pc}

0000a2cc <strcat>:
    a2cc:	e1a02000 	mov	r2, r0
    a2d0:	e1a03002 	mov	r3, r2
    a2d4:	e4d3c001 	ldrb	ip, [r3], #1
    a2d8:	e35c0000 	cmp	ip, #0
    a2dc:	11a02003 	movne	r2, r3
    a2e0:	1afffffa 	bne	a2d0 <strcat+0x4>
    a2e4:	e2422001 	sub	r2, r2, #1
    a2e8:	e4d13001 	ldrb	r3, [r1], #1
    a2ec:	e5e23001 	strb	r3, [r2, #1]!
    a2f0:	e3530000 	cmp	r3, #0
    a2f4:	1afffffb 	bne	a2e8 <strcat+0x1c>
    a2f8:	e12fff1e 	bx	lr

0000a2fc <strlen>:
    a2fc:	e5d03000 	ldrb	r3, [r0]
    a300:	e3530000 	cmp	r3, #0
    a304:	0a000006 	beq	a324 <strlen+0x28>
    a308:	e1a03000 	mov	r3, r0
    a30c:	e3a00000 	mov	r0, #0
    a310:	e2800001 	add	r0, r0, #1
    a314:	e5f32001 	ldrb	r2, [r3, #1]!
    a318:	e3520000 	cmp	r2, #0
    a31c:	1afffffb 	bne	a310 <strlen+0x14>
    a320:	e12fff1e 	bx	lr
    a324:	e3a00000 	mov	r0, #0
    a328:	e12fff1e 	bx	lr

0000a32c <strcpy>:
    a32c:	e1a02000 	mov	r2, r0
    a330:	e4d13001 	ldrb	r3, [r1], #1
    a334:	e4c23001 	strb	r3, [r2], #1
    a338:	e3530000 	cmp	r3, #0
    a33c:	1afffffb 	bne	a330 <strcpy+0x4>
    a340:	e12fff1e 	bx	lr

0000a344 <_cstart>:
    a344:	e92d4008 	push	{r3, lr}
    a348:	e59f3038 	ldr	r3, [pc, #56]	; a388 <_cstart+0x44>
    a34c:	e59f2038 	ldr	r2, [pc, #56]	; a38c <_cstart+0x48>
    a350:	e1520003 	cmp	r2, r3
    a354:	2a000009 	bcs	a380 <_cstart+0x3c>
    a358:	e2423004 	sub	r3, r2, #4
    a35c:	e59f102c 	ldr	r1, [pc, #44]	; a390 <_cstart+0x4c>
    a360:	e0631001 	rsb	r1, r3, r1
    a364:	e3c11003 	bic	r1, r1, #3
    a368:	e2832004 	add	r2, r3, #4
    a36c:	e0811002 	add	r1, r1, r2
    a370:	e3a02000 	mov	r2, #0
    a374:	e5a32004 	str	r2, [r3, #4]!
    a378:	e1530001 	cmp	r3, r1
    a37c:	1afffffc 	bne	a374 <_cstart+0x30>
    a380:	ebfffb29 	bl	902c <notmain>
    a384:	ebffff35 	bl	a060 <rpi_reboot>
    a388:	0000cec8 	andeq	ip, r0, r8, asr #29
    a38c:	0000ca88 	andeq	ip, r0, r8, lsl #21
    a390:	0000cec3 	andeq	ip, r0, r3, asr #29

0000a394 <put32>:
    a394:	e5801000 	str	r1, [r0]
    a398:	e12fff1e 	bx	lr

0000a39c <PUT32>:
    a39c:	e5801000 	str	r1, [r0]
    a3a0:	e12fff1e 	bx	lr

0000a3a4 <PUT16>:
    a3a4:	e1c010b0 	strh	r1, [r0]
    a3a8:	e12fff1e 	bx	lr

0000a3ac <PUT8>:
    a3ac:	e5c01000 	strb	r1, [r0]
    a3b0:	e12fff1e 	bx	lr

0000a3b4 <get32>:
    a3b4:	e5900000 	ldr	r0, [r0]
    a3b8:	e12fff1e 	bx	lr

0000a3bc <GET32>:
    a3bc:	e5900000 	ldr	r0, [r0]
    a3c0:	e12fff1e 	bx	lr

0000a3c4 <GETPC>:
    a3c4:	e1a0000e 	mov	r0, lr
    a3c8:	e12fff1e 	bx	lr

0000a3cc <dummy>:
    a3cc:	e12fff1e 	bx	lr
    a3d0:	6f697067 	svcvs	0x00697067
    a3d4:	696e695f 	stmdbvs	lr!, {r0, r1, r2, r3, r4, r6, r8, fp, sp, lr}^
    a3d8:	00000074 	andeq	r0, r0, r4, ror r0
    a3dc:	ff00000c 			; <UNDEFINED> instruction: 0xff00000c

0000a3e0 <gpio_init>:
    a3e0:	e1a0c00d 	mov	ip, sp
    a3e4:	e92dd800 	push	{fp, ip, lr, pc}
    a3e8:	e24cb004 	sub	fp, ip, #4
    a3ec:	e24bd00c 	sub	sp, fp, #12
    a3f0:	e89d6800 	ldm	sp, {fp, sp, lr}
    a3f4:	e12fff1e 	bx	lr
    a3f8:	6f697067 	svcvs	0x00697067
    a3fc:	7465735f 	strbtvc	r7, [r5], #-863	; 0x35f
    a400:	6e75665f 	mrcvs	6, 3, r6, cr5, cr15, {2}
    a404:	6f697463 	svcvs	0x00697463
    a408:	0000006e 	andeq	r0, r0, lr, rrx
    a40c:	ff000014 			; <UNDEFINED> instruction: 0xff000014

0000a410 <gpio_set_function>:
    a410:	e1a0c00d 	mov	ip, sp
    a414:	e92dd800 	push	{fp, ip, lr, pc}
    a418:	e24cb004 	sub	fp, ip, #4
    a41c:	e3500035 	cmp	r0, #53	; 0x35
    a420:	8a00000f 	bhi	a464 <gpio_set_function+0x54>
    a424:	e3510007 	cmp	r1, #7
    a428:	8a00000d 	bhi	a464 <gpio_set_function+0x54>
    a42c:	e59fc03c 	ldr	ip, [pc, #60]	; a470 <gpio_set_function+0x60>
    a430:	e0832c90 	umull	r2, r3, r0, ip
    a434:	e1a021a3 	lsr	r2, r3, #3
    a438:	e082c102 	add	ip, r2, r2, lsl #2
    a43c:	e1a0308c 	lsl	r3, ip, #1
    a440:	e0403003 	sub	r3, r0, r3
    a444:	e0833083 	add	r3, r3, r3, lsl #1
    a448:	e59fc024 	ldr	ip, [pc, #36]	; a474 <gpio_set_function+0x64>
    a44c:	e79c0102 	ldr	r0, [ip, r2, lsl #2]
    a450:	e3a0e007 	mov	lr, #7
    a454:	e1c0031e 	bic	r0, r0, lr, lsl r3
    a458:	e001100e 	and	r1, r1, lr
    a45c:	e1803311 	orr	r3, r0, r1, lsl r3
    a460:	e78c3102 	str	r3, [ip, r2, lsl #2]
    a464:	e24bd00c 	sub	sp, fp, #12
    a468:	e89d6800 	ldm	sp, {fp, sp, lr}
    a46c:	e12fff1e 	bx	lr
    a470:	cccccccd 	stclgt	12, cr12, [ip], {205}	; 0xcd
    a474:	20200000 	eorcs	r0, r0, r0
    a478:	6f697067 	svcvs	0x00697067
    a47c:	7465675f 	strbtvc	r6, [r5], #-1887	; 0x75f
    a480:	6e75665f 	mrcvs	6, 3, r6, cr5, cr15, {2}
    a484:	6f697463 	svcvs	0x00697463
    a488:	0000006e 	andeq	r0, r0, lr, rrx
    a48c:	ff000014 			; <UNDEFINED> instruction: 0xff000014

0000a490 <gpio_get_function>:
    a490:	e1a0c00d 	mov	ip, sp
    a494:	e92dd800 	push	{fp, ip, lr, pc}
    a498:	e24cb004 	sub	fp, ip, #4
    a49c:	e3500035 	cmp	r0, #53	; 0x35
    a4a0:	8a00000d 	bhi	a4dc <gpio_get_function+0x4c>
    a4a4:	e59f1038 	ldr	r1, [pc, #56]	; a4e4 <gpio_get_function+0x54>
    a4a8:	e0832190 	umull	r2, r3, r0, r1
    a4ac:	e1a021a3 	lsr	r2, r3, #3
    a4b0:	e0821102 	add	r1, r2, r2, lsl #2
    a4b4:	e1a03081 	lsl	r3, r1, #1
    a4b8:	e0403003 	sub	r3, r0, r3
    a4bc:	e0833083 	add	r3, r3, r3, lsl #1
    a4c0:	e59f1020 	ldr	r1, [pc, #32]	; a4e8 <gpio_get_function+0x58>
    a4c4:	e7910102 	ldr	r0, [r1, r2, lsl #2]
    a4c8:	e1a03330 	lsr	r3, r0, r3
    a4cc:	e2030007 	and	r0, r3, #7
    a4d0:	e24bd00c 	sub	sp, fp, #12
    a4d4:	e89d6800 	ldm	sp, {fp, sp, lr}
    a4d8:	e12fff1e 	bx	lr
    a4dc:	e3e00000 	mvn	r0, #0
    a4e0:	eafffffa 	b	a4d0 <gpio_get_function+0x40>
    a4e4:	cccccccd 	stclgt	12, cr12, [ip], {205}	; 0xcd
    a4e8:	20200000 	eorcs	r0, r0, r0
    a4ec:	6f697067 	svcvs	0x00697067
    a4f0:	7465735f 	strbtvc	r7, [r5], #-863	; 0x35f
    a4f4:	706e695f 	rsbvc	r6, lr, pc, asr r9
    a4f8:	00007475 	andeq	r7, r0, r5, ror r4
    a4fc:	ff000010 			; <UNDEFINED> instruction: 0xff000010

0000a500 <gpio_set_input>:
    a500:	e1a0c00d 	mov	ip, sp
    a504:	e92dd800 	push	{fp, ip, lr, pc}
    a508:	e24cb004 	sub	fp, ip, #4
    a50c:	e3a01000 	mov	r1, #0
    a510:	ebffffbe 	bl	a410 <gpio_set_function>
    a514:	e24bd00c 	sub	sp, fp, #12
    a518:	e89d6800 	ldm	sp, {fp, sp, lr}
    a51c:	e12fff1e 	bx	lr
    a520:	6f697067 	svcvs	0x00697067
    a524:	7465735f 	strbtvc	r7, [r5], #-863	; 0x35f
    a528:	74756f5f 	ldrbtvc	r6, [r5], #-3935	; 0xf5f
    a52c:	00747570 	rsbseq	r7, r4, r0, ror r5
    a530:	ff000010 			; <UNDEFINED> instruction: 0xff000010

0000a534 <gpio_set_output>:
    a534:	e1a0c00d 	mov	ip, sp
    a538:	e92dd800 	push	{fp, ip, lr, pc}
    a53c:	e24cb004 	sub	fp, ip, #4
    a540:	e3a01001 	mov	r1, #1
    a544:	ebffffb1 	bl	a410 <gpio_set_function>
    a548:	e24bd00c 	sub	sp, fp, #12
    a54c:	e89d6800 	ldm	sp, {fp, sp, lr}
    a550:	e12fff1e 	bx	lr
    a554:	6f697067 	svcvs	0x00697067
    a558:	6972775f 	ldmdbvs	r2!, {r0, r1, r2, r3, r4, r6, r8, r9, sl, ip, sp, lr}^
    a55c:	00006574 	andeq	r6, r0, r4, ror r5
    a560:	ff00000c 			; <UNDEFINED> instruction: 0xff00000c

0000a564 <gpio_write>:
    a564:	e1a0c00d 	mov	ip, sp
    a568:	e92dd800 	push	{fp, ip, lr, pc}
    a56c:	e24cb004 	sub	fp, ip, #4
    a570:	e3500035 	cmp	r0, #53	; 0x35
    a574:	8a000008 	bhi	a59c <gpio_write+0x38>
    a578:	e1a032a0 	lsr	r3, r0, #5
    a57c:	e200001f 	and	r0, r0, #31
    a580:	e3510000 	cmp	r1, #0
    a584:	1a000007 	bne	a5a8 <gpio_write+0x44>
    a588:	e3a02001 	mov	r2, #1
    a58c:	e1a00012 	lsl	r0, r2, r0
    a590:	e283300a 	add	r3, r3, #10
    a594:	e59f202c 	ldr	r2, [pc, #44]	; a5c8 <gpio_write+0x64>
    a598:	e7820103 	str	r0, [r2, r3, lsl #2]
    a59c:	e24bd00c 	sub	sp, fp, #12
    a5a0:	e89d6800 	ldm	sp, {fp, sp, lr}
    a5a4:	e12fff1e 	bx	lr
    a5a8:	e3a02001 	mov	r2, #1
    a5ac:	e1a00012 	lsl	r0, r2, r0
    a5b0:	e2833006 	add	r3, r3, #6
    a5b4:	e1a03103 	lsl	r3, r3, #2
    a5b8:	e2833202 	add	r3, r3, #536870912	; 0x20000000
    a5bc:	e2833602 	add	r3, r3, #2097152	; 0x200000
    a5c0:	e5830004 	str	r0, [r3, #4]
    a5c4:	eafffff4 	b	a59c <gpio_write+0x38>
    a5c8:	20200000 	eorcs	r0, r0, r0
    a5cc:	6f697067 	svcvs	0x00697067
    a5d0:	6165725f 	cmnvs	r5, pc, asr r2
    a5d4:	00000064 	andeq	r0, r0, r4, rrx
    a5d8:	ff00000c 			; <UNDEFINED> instruction: 0xff00000c

0000a5dc <gpio_read>:
    a5dc:	e1a0c00d 	mov	ip, sp
    a5e0:	e92dd800 	push	{fp, ip, lr, pc}
    a5e4:	e24cb004 	sub	fp, ip, #4
    a5e8:	e3500035 	cmp	r0, #53	; 0x35
    a5ec:	8a00000d 	bhi	a628 <gpio_read+0x4c>
    a5f0:	e1a032a0 	lsr	r3, r0, #5
    a5f4:	e200001f 	and	r0, r0, #31
    a5f8:	e283300c 	add	r3, r3, #12
    a5fc:	e1a03103 	lsl	r3, r3, #2
    a600:	e2833202 	add	r3, r3, #536870912	; 0x20000000
    a604:	e2833602 	add	r3, r3, #2097152	; 0x200000
    a608:	e5933004 	ldr	r3, [r3, #4]
    a60c:	e3a02001 	mov	r2, #1
    a610:	e0133012 	ands	r3, r3, r2, lsl r0
    a614:	11a00002 	movne	r0, r2
    a618:	03a00000 	moveq	r0, #0
    a61c:	e24bd00c 	sub	sp, fp, #12
    a620:	e89d6800 	ldm	sp, {fp, sp, lr}
    a624:	e12fff1e 	bx	lr
    a628:	e3e00000 	mvn	r0, #0
    a62c:	eafffffa 	b	a61c <gpio_read+0x40>

0000a630 <kmalloc_heap_end>:
    a630:	e59f3004 	ldr	r3, [pc, #4]	; a63c <kmalloc_heap_end+0xc>
    a634:	e5930000 	ldr	r0, [r3]
    a638:	e12fff1e 	bx	lr
    a63c:	0000a7d0 	ldrdeq	sl, [r0], -r0

0000a640 <kmalloc_heap_start>:
    a640:	e59f0000 	ldr	r0, [pc]	; a648 <kmalloc_heap_start+0x8>
    a644:	e12fff1e 	bx	lr
    a648:	0000cec8 	andeq	ip, r0, r8, asr #29

0000a64c <kmalloc_set_start>:
    a64c:	e92d4008 	push	{r3, lr}
    a650:	e59f3028 	ldr	r3, [pc, #40]	; a680 <kmalloc_set_start+0x34>
    a654:	e5933000 	ldr	r3, [r3]
    a658:	e1500003 	cmp	r0, r3
    a65c:	859f301c 	ldrhi	r3, [pc, #28]	; a680 <kmalloc_set_start+0x34>
    a660:	85830000 	strhi	r0, [r3]
    a664:	88bd8008 	pophi	{r3, pc}
    a668:	e59f0014 	ldr	r0, [pc, #20]	; a684 <kmalloc_set_start+0x38>
    a66c:	e59f1014 	ldr	r1, [pc, #20]	; a688 <kmalloc_set_start+0x3c>
    a670:	e59f2014 	ldr	r2, [pc, #20]	; a68c <kmalloc_set_start+0x40>
    a674:	e3a03015 	mov	r3, #21
    a678:	ebfffd03 	bl	9a8c <printk>
    a67c:	ebfffe77 	bl	a060 <rpi_reboot>
    a680:	0000a7d0 	ldrdeq	sl, [r0], -r0
    a684:	0000c9a4 	andeq	ip, r0, r4, lsr #19
    a688:	0000c9c0 	andeq	ip, r0, r0, asr #19
    a68c:	0000c980 	andeq	ip, r0, r0, lsl #19

0000a690 <kmalloc>:
    a690:	e92d4010 	push	{r4, lr}
    a694:	e2800007 	add	r0, r0, #7
    a698:	e3c02007 	bic	r2, r0, #7
    a69c:	e59f301c 	ldr	r3, [pc, #28]	; a6c0 <kmalloc+0x30>
    a6a0:	e5934000 	ldr	r4, [r3]
    a6a4:	e0841002 	add	r1, r4, r2
    a6a8:	e5831000 	str	r1, [r3]
    a6ac:	e1a00004 	mov	r0, r4
    a6b0:	e3a01000 	mov	r1, #0
    a6b4:	ebfffea9 	bl	a160 <memset>
    a6b8:	e1a00004 	mov	r0, r4
    a6bc:	e8bd8010 	pop	{r4, pc}
    a6c0:	0000a7d0 	ldrdeq	sl, [r0], -r0

0000a6c4 <kmalloc_aligned>:
    a6c4:	e92d4008 	push	{r3, lr}
    a6c8:	e2612000 	rsb	r2, r1, #0
    a6cc:	e0023001 	and	r3, r2, r1
    a6d0:	e1530001 	cmp	r3, r1
    a6d4:	0a000005 	beq	a6f0 <kmalloc_aligned+0x2c>
    a6d8:	e59f0058 	ldr	r0, [pc, #88]	; a738 <kmalloc_aligned+0x74>
    a6dc:	e59f1058 	ldr	r1, [pc, #88]	; a73c <kmalloc_aligned+0x78>
    a6e0:	e59f2058 	ldr	r2, [pc, #88]	; a740 <kmalloc_aligned+0x7c>
    a6e4:	e3a03026 	mov	r3, #38	; 0x26
    a6e8:	ebfffce7 	bl	9a8c <printk>
    a6ec:	ebfffe5b 	bl	a060 <rpi_reboot>
    a6f0:	e59f104c 	ldr	r1, [pc, #76]	; a744 <kmalloc_aligned+0x80>
    a6f4:	e5911000 	ldr	r1, [r1]
    a6f8:	e2411001 	sub	r1, r1, #1
    a6fc:	e0811003 	add	r1, r1, r3
    a700:	e0012002 	and	r2, r1, r2
    a704:	e2433001 	sub	r3, r3, #1
    a708:	e1120003 	tst	r2, r3
    a70c:	0a000005 	beq	a728 <kmalloc_aligned+0x64>
    a710:	e59f0030 	ldr	r0, [pc, #48]	; a748 <kmalloc_aligned+0x84>
    a714:	e59f1020 	ldr	r1, [pc, #32]	; a73c <kmalloc_aligned+0x78>
    a718:	e59f2020 	ldr	r2, [pc, #32]	; a740 <kmalloc_aligned+0x7c>
    a71c:	e3a0302c 	mov	r3, #44	; 0x2c
    a720:	ebfffcd9 	bl	9a8c <printk>
    a724:	ebfffe4d 	bl	a060 <rpi_reboot>
    a728:	e59f3014 	ldr	r3, [pc, #20]	; a744 <kmalloc_aligned+0x80>
    a72c:	e5832000 	str	r2, [r3]
    a730:	ebffffd6 	bl	a690 <kmalloc>
    a734:	e8bd8008 	pop	{r3, pc}
    a738:	0000c9d4 	ldrdeq	ip, [r0], -r4
    a73c:	0000c9c0 	andeq	ip, r0, r0, asr #19
    a740:	0000c994 	muleq	r0, r4, r9
    a744:	0000a7d0 	ldrdeq	sl, [r0], -r0
    a748:	0000ca34 	andeq	ip, r0, r4, lsr sl

0000a74c <kfree>:
    a74c:	e12fff1e 	bx	lr

0000a750 <kfree_all>:
    a750:	e59f2008 	ldr	r2, [pc, #8]	; a760 <kfree_all+0x10>
    a754:	e59f3008 	ldr	r3, [pc, #8]	; a764 <kfree_all+0x14>
    a758:	e5832000 	str	r2, [r3]
    a75c:	e12fff1e 	bx	lr
    a760:	0000cec8 	andeq	ip, r0, r8, asr #29
    a764:	0000a7d0 	ldrdeq	sl, [r0], -r0

0000a768 <kfree_after>:
    a768:	e59f3004 	ldr	r3, [pc, #4]	; a774 <kfree_after+0xc>
    a76c:	e5830000 	str	r0, [r3]
    a770:	e12fff1e 	bx	lr
    a774:	0000a7d0 	ldrdeq	sl, [r0], -r0

0000a778 <mb>:
    a778:	e3a00000 	mov	r0, #0
    a77c:	ee070f15 	mcr	15, 0, r0, cr7, cr5, {0}
    a780:	ee070fd5 	mcr	15, 0, r0, cr7, cr5, {6}
    a784:	ee070f9a 	mcr	15, 0, r0, cr7, cr10, {4}
    a788:	ee070f95 	mcr	15, 0, r0, cr7, cr5, {4}
    a78c:	e12fff1e 	bx	lr

0000a790 <dmb>:
    a790:	ee070fba 	mcr	15, 0, r0, cr7, cr10, {5}
    a794:	e12fff1e 	bx	lr

0000a798 <dsb>:
    a798:	ee070f9a 	mcr	15, 0, r0, cr7, cr10, {4}
    a79c:	e12fff1e 	bx	lr

Disassembly of section .data:

0000a7a0 <num2ASCII>:
    a7a0:	0000bdd0 	ldrdeq	fp, [r0], -r0

0000a7a4 <num2OP>:
    a7a4:	0000bdcc 	andeq	fp, r0, ip, asr #27

0000a7a8 <ASCII_EQ>:
    a7a8:	0000003d 	andeq	r0, r0, sp, lsr r0

0000a7ac <ASCII_PIPE>:
    a7ac:	0000007c 	andeq	r0, r0, ip, ror r0

0000a7b0 <ASCII_SPACE>:
    a7b0:	00000020 	andeq	r0, r0, r0, lsr #32

0000a7b4 <PWDLEN>:
    a7b4:	00000004 	andeq	r0, r0, r4

0000a7b8 <PASSWORD>:
    a7b8:	0000bddc 	ldrdeq	fp, [r0], -ip

0000a7bc <matrix_script>:
    a7bc:	0000aaf0 	strdeq	sl, [r0], -r0

0000a7c0 <SCREEN_CHAR_WIDTH>:
    a7c0:	00000010 	andeq	r0, r0, r0, lsl r0

0000a7c4 <info_msg>:
    a7c4:	0000aa60 	andeq	sl, r0, r0, ror #20

0000a7c8 <ASCII_SUB>:
    a7c8:	0000002d 	andeq	r0, r0, sp, lsr #32

0000a7cc <ASCII_PLUS>:
    a7cc:	0000002b 	andeq	r0, r0, fp, lsr #32

0000a7d0 <heap>:
    a7d0:	0000cec8 	andeq	ip, r0, r8, asr #29

Disassembly of section .rodata:

0000a7d4 <__FUNCTION__.3825>:
    a7d4:	70696863 	rsbvc	r6, r9, r3, ror #16
    a7d8:	6c65735f 	stclvs	3, cr7, [r5], #-380	; 0xfffffe84
    a7dc:	00746365 	rsbseq	r6, r4, r5, ror #6

0000a7e0 <__FUNCTION__.3829>:
    a7e0:	6e617274 	mcrvs	2, 3, r7, cr1, cr4, {3}
    a7e4:	72656673 	rsbvc	r6, r5, #120586240	; 0x7300000
    a7e8:	7463615f 	strbtvc	r6, [r3], #-351	; 0x15f
    a7ec:	00657669 	rsbeq	r7, r5, r9, ror #12

0000a7f0 <sticky_key_wait_ms>:
    a7f0:	00000064 	andeq	r0, r0, r4, rrx

0000a7f4 <led_pin>:
    a7f4:	00000015 	andeq	r0, r0, r5, lsl r0

0000a7f8 <echo_pin>:
    a7f8:	00000010 	andeq	r0, r0, r0, lsl r0

0000a7fc <trigger_pin>:
    a7fc:	0000000c 	andeq	r0, r0, ip

0000a800 <OLED_RST_PIN>:
    a800:	00000006 	andeq	r0, r0, r6

0000a804 <BUTTON_HI_PIN>:
    a804:	00000004 	andeq	r0, r0, r4

0000a808 <spi0>:
    a808:	20204000 	eorcs	r4, r0, r0
    a80c:	4f525245 	svcmi	0x00525245
    a810:	73253a52 	teqvc	r5, #335872	; 0x52000
    a814:	3a73253a 	bcc	1cd3d04 <__bss_end__+0x1cc6e3c>
    a818:	203a6425 	eorscs	r6, sl, r5, lsr #8
    a81c:	534c4146 	movtpl	r4, #49478	; 0xc146
    a820:	633c2845 	teqvs	ip, #4521984	; 0x450000
    a824:	20706968 	rsbscs	r6, r0, r8, ror #18
    a828:	32203d3c 	eorcc	r3, r0, #60, 26	; 0xf00
    a82c:	203a293e 	eorscs	r2, sl, lr, lsr r9
    a830:	6c6e6f22 	stclvs	15, cr6, [lr], #-136	; 0xffffff78
    a834:	75732079 	ldrbvc	r2, [r3, #-121]!	; 0x79
    a838:	726f7070 	rsbvc	r7, pc, #112	; 0x70
    a83c:	68632074 	stmdavs	r3!, {r2, r4, r5, r6, sp}^
    a840:	73207069 	teqvc	r0, #105	; 0x69
    a844:	63656c65 	cmnvs	r5, #25856	; 0x6500
    a848:	2c302074 	ldccs	0, cr2, [r0], #-464	; 0xfffffe30
    a84c:	202c3120 	eorcs	r3, ip, r0, lsr #2
    a850:	3220726f 	eorcc	r7, r0, #-268435450	; 0xf0000006
    a854:	00000a22 	andeq	r0, r0, r2, lsr #20
    a858:	732d796d 	teqvc	sp, #1785856	; 0x1b4000
    a85c:	682e6970 	stmdavs	lr!, {r4, r5, r6, r8, fp, sp, lr}
    a860:	00000000 	andeq	r0, r0, r0
    a864:	4f525245 	svcmi	0x00525245
    a868:	73253a52 	teqvc	r5, #335872	; 0x52000
    a86c:	3a73253a 	bcc	1cd3d5c <__bss_end__+0x1cc6e94>
    a870:	203a6425 	eorscs	r6, sl, r5, lsr #8
    a874:	534c4146 	movtpl	r4, #49478	; 0xc146
    a878:	543c2845 	ldrtpl	r2, [ip], #-2117	; 0x845
    a87c:	3d3c2041 	ldccc	0, cr2, [ip, #-260]!	; 0xfffffefc
    a880:	293e3120 	ldmdbcs	lr!, {r5, r8, ip, sp}
    a884:	5422203a 	strtpl	r2, [r2], #-58	; 0x3a
    a888:	203d2041 	eorscs	r2, sp, r1, asr #32
    a88c:	726f2031 	rsbvc	r2, pc, #49	; 0x31
    a890:	0a223020 	beq	896918 <__bss_end__+0x889a50>
    a894:	00000000 	andeq	r0, r0, r0
    a898:	65682020 	strbvs	r2, [r8, #-32]!
    a89c:	206f6c6c 	rsbcs	r6, pc, ip, ror #24
    a8a0:	706d6973 	rsbvc	r6, sp, r3, ror r9
    a8a4:	6620656c 	strtvs	r6, [r0], -ip, ror #10
    a8a8:	206d6f72 	rsbcs	r6, sp, r2, ror pc
    a8ac:	6166696d 	cmnvs	r6, sp, ror #18
    a8b0:	64206572 	strtvs	r6, [r0], #-1394	; 0x572
    a8b4:	63697665 	cmnvs	r9, #105906176	; 0x6500000
    a8b8:	00212165 	eoreq	r2, r1, r5, ror #2
    a8bc:	74747570 	ldrbtvc	r7, [r4], #-1392	; 0x570
    a8c0:	20676e69 	rsbcs	r6, r7, r9, ror #28
    a8c4:	7373656d 	cmnvc	r3, #457179136	; 0x1b400000
    a8c8:	20656761 	rsbcs	r6, r5, r1, ror #14
    a8cc:	66206e69 	strtvs	r6, [r0], -r9, ror #28
    a8d0:	0a6f6669 	beq	1be427c <__bss_end__+0x1bd73b4>
    a8d4:	00000000 	andeq	r0, r0, r0
    a8d8:	6c6c6568 	cfstr64vs	mvdx6, [ip], #-416	; 0xfffffe60
    a8dc:	6973206f 	ldmdbvs	r3!, {r0, r1, r2, r3, r5, r6, sp}^
    a8e0:	656c706d 	strbvs	r7, [ip, #-109]!	; 0x6d
    a8e4:	6f726620 	svcvs	0x00726620
    a8e8:	696d206d 	stmdbvs	sp!, {r0, r2, r3, r5, r6, sp}^
    a8ec:	65726166 	ldrbvs	r6, [r2, #-358]!	; 0x166
    a8f0:	76656420 	strbtvc	r6, [r5], -r0, lsr #8
    a8f4:	21656369 	cmncs	r5, r9, ror #6
    a8f8:	00000021 	andeq	r0, r0, r1, lsr #32
    a8fc:	64696672 	strbtvs	r6, [r9], #-1650	; 0x672
    a900:	6f6f6c5f 	svcvs	0x006f6c5f
    a904:	63616270 	cmnvs	r1, #112, 4
    a908:	69735f6b 	ldmdbvs	r3!, {r0, r1, r3, r5, r6, r8, r9, sl, fp, ip, lr}^
    a90c:	656c706d 	strbvs	r7, [ip, #-109]!	; 0x6d
    a910:	25203d20 	strcs	r3, [r0, #-3360]!	; 0xd20
    a914:	00000a73 	andeq	r0, r0, r3, ror sl
    a918:	64696672 	strbtvs	r6, [r9], #-1650	; 0x672
    a91c:	6f6f6c5f 	svcvs	0x006f6c5f
    a920:	63616270 	cmnvs	r1, #112, 4
    a924:	65725f6b 	ldrbvs	r5, [r2, #-3947]!	; 0xf6b
    a928:	3d207367 	stccc	3, cr7, [r0, #-412]!	; 0xfffffe64
    a92c:	0a732520 	beq	1cd3db4 <__bss_end__+0x1cc6eec>
    a930:	00000000 	andeq	r0, r0, r0
    a934:	636c6163 	cmnvs	ip, #-1073741800	; 0xc0000018
    a938:	74616c75 	strbtvc	r6, [r1], #-3189	; 0xc75
    a93c:	0000726f 	andeq	r7, r0, pc, ror #4
    a940:	74747562 	ldrbtvc	r7, [r4], #-1378	; 0x562
    a944:	20736e6f 	rsbscs	r6, r3, pc, ror #28
    a948:	20202020 	eorcs	r2, r0, r0, lsr #32
    a94c:	20202020 	eorcs	r2, r0, r0, lsr #32
    a950:	00000000 	andeq	r0, r0, r0
    a954:	20202020 	eorcs	r2, r0, r0, lsr #32
    a958:	20202020 	eorcs	r2, r0, r0, lsr #32
    a95c:	20202020 	eorcs	r2, r0, r0, lsr #32
    a960:	20202020 	eorcs	r2, r0, r0, lsr #32
    a964:	00000000 	andeq	r0, r0, r0
    a968:	45434341 	strbmi	r4, [r3, #-833]	; 0x341
    a96c:	47205353 			; <UNDEFINED> instruction: 0x47205353
    a970:	544e4152 	strbpl	r4, [lr], #-338	; 0x152
    a974:	00004445 	andeq	r4, r0, r5, asr #8
    a978:	45434341 	strbmi	r4, [r3, #-833]	; 0x341
    a97c:	44205353 	strtmi	r5, [r0], #-851	; 0x353
    a980:	45494e45 	strbmi	r4, [r9, #-3653]	; 0xe45
    a984:	00000044 	andeq	r0, r0, r4, asr #32
    a988:	434c4557 	movtmi	r4, #50519	; 0xc557
    a98c:	00454d4f 	subeq	r4, r5, pc, asr #26
    a990:	202d202d 	eorcs	r2, sp, sp, lsr #32
    a994:	202d202d 	eorcs	r2, sp, sp, lsr #32
    a998:	202d202d 	eorcs	r2, sp, sp, lsr #32
    a99c:	202d202d 	eorcs	r2, sp, sp, lsr #32
    a9a0:	00000000 	andeq	r0, r0, r0
    a9a4:	41455245 	cmpmi	r5, r5, asr #4
    a9a8:	00524544 	subseq	r4, r2, r4, asr #10
    a9ac:	6f666e49 	svcvs	0x00666e49
    a9b0:	74616d72 	strbtvc	r6, [r1], #-3442	; 0xd72
    a9b4:	006e6f69 	rsbeq	r6, lr, r9, ror #30
    a9b8:	73657250 	cmnvc	r5, #80, 4
    a9bc:	20312073 	eorscs	r2, r1, r3, ror r0
    a9c0:	6c206f74 	stcvs	15, cr6, [r0], #-464	; 0xfffffe30
    a9c4:	6e726165 	rpwvssz	f6, f2, f5
    a9c8:	00000000 	andeq	r0, r0, r0
    a9cc:	756f6261 	strbvc	r6, [pc, #-609]!	; a773 <kfree_after+0xb>
    a9d0:	68742074 	ldmdavs	r4!, {r2, r4, r5, r6, sp}^
    a9d4:	00007369 	andeq	r7, r0, r9, ror #6
    a9d8:	69766564 	ldmdbvs	r6!, {r2, r5, r6, r8, sl, sp, lr}^
    a9dc:	002e6563 	eoreq	r6, lr, r3, ror #10
    a9e0:	74696e69 	strbtvc	r6, [r9], #-3689	; 0xe69
    a9e4:	696c6169 	stmdbvs	ip!, {r0, r3, r5, r6, r8, sp, lr}^
    a9e8:	676e697a 			; <UNDEFINED> instruction: 0x676e697a
    a9ec:	74756220 	ldrbtvc	r6, [r5], #-544	; 0x220
    a9f0:	736e6f74 	cmnvc	lr, #116, 30	; 0x1d0
    a9f4:	0000000a 	andeq	r0, r0, sl
    a9f8:	74696e69 	strbtvc	r6, [r9], #-3689	; 0xe69
    a9fc:	696c6169 	stmdbvs	ip!, {r0, r3, r5, r6, r8, sp, lr}^
    aa00:	676e697a 			; <UNDEFINED> instruction: 0x676e697a
    aa04:	69707320 	ldmdbvs	r0!, {r5, r8, r9, ip, sp, lr}^
    aa08:	00000a30 	andeq	r0, r0, r0, lsr sl
    aa0c:	74696e69 	strbtvc	r6, [r9], #-3689	; 0xe69
    aa10:	696c6169 	stmdbvs	ip!, {r0, r3, r5, r6, r8, sp, lr}^
    aa14:	676e697a 			; <UNDEFINED> instruction: 0x676e697a
    aa18:	69667220 	stmdbvs	r6!, {r5, r9, ip, sp, lr}^
    aa1c:	00000a64 	andeq	r0, r0, r4, ror #20
    aa20:	65736572 	ldrbvs	r6, [r3, #-1394]!	; 0x572
    aa24:	6e697474 	mcrvs	4, 3, r7, cr9, cr4, {3}
    aa28:	6c6f2067 	stclvs	0, cr2, [pc], #-412	; a894 <spi0+0x8c>
    aa2c:	000a6465 	andeq	r6, sl, r5, ror #8
    aa30:	74696e69 	strbtvc	r6, [r9], #-3689	; 0xe69
    aa34:	696c6169 	stmdbvs	ip!, {r0, r3, r5, r6, r8, sp, lr}^
    aa38:	676e697a 			; <UNDEFINED> instruction: 0x676e697a
    aa3c:	656c6f20 	strbvs	r6, [ip, #-3872]!	; 0xf20
    aa40:	00000a64 	andeq	r0, r0, r4, ror #20
    aa44:	49474f4c 	stmdbmi	r7, {r2, r3, r6, r8, r9, sl, fp, lr}^
    aa48:	4150204e 	cmpmi	r0, lr, asr #32
    aa4c:	4f575353 	svcmi	0x00575353
    aa50:	003a4452 	eorseq	r4, sl, r2, asr r4
    aa54:	64696672 	strbtvs	r6, [r9], #-1650	; 0x672
    aa58:	41463220 	cmpmi	r6, r0, lsr #4
    aa5c:	00000000 	andeq	r0, r0, r0
    aa60:	73696854 	cmnvc	r9, #84, 16	; 0x540000
    aa64:	6d6f6320 	stclvs	3, cr6, [pc, #-128]!	; a9ec <spi0+0x1e4>
    aa68:	65747570 	ldrbvs	r7, [r4, #-1392]!	; 0x570
    aa6c:	61772072 	cmnvs	r7, r2, ror r0
    aa70:	65642073 	strbvs	r2, [r4, #-115]!	; 0x73
    aa74:	6e676973 	mcrvs	9, 3, r6, cr7, cr3, {3}
    aa78:	61206465 	teqvs	r0, r5, ror #8
    aa7c:	6220646e 	eorvs	r6, r0, #1845493760	; 0x6e000000
    aa80:	746c6975 	strbtvc	r6, [ip], #-2421	; 0x975
    aa84:	20796220 	rsbscs	r6, r9, r0, lsr #4
    aa88:	6964614e 	stmdbvs	r4!, {r1, r2, r3, r6, r8, sp, lr}^
    aa8c:	6e61206e 	cdpvs	0, 6, cr2, cr1, cr14, {3}
    aa90:	6f4e2064 	svcvs	0x004e2064
    aa94:	69206861 	stmdbvs	r0!, {r0, r5, r6, fp, sp, lr}
    aa98:	6144206e 	cmpvs	r4, lr, rrx
    aa9c:	6e6f7377 	mcrvs	3, 3, r7, cr15, cr7, {3}
    aaa0:	676e4520 	strbvs	r4, [lr, -r0, lsr #10]!
    aaa4:	2772656c 	ldrbcs	r6, [r2, -ip, ror #10]!
    aaa8:	53432073 	movtpl	r2, #12403	; 0x3073
    aaac:	65303431 	ldrvs	r3, [r0, #-1073]!	; 0x431
    aab0:	756f6320 	strbvc	r6, [pc, #-800]!	; a798 <dsb>
    aab4:	20657372 	rsbcs	r7, r5, r2, ror r3
    aab8:	53207461 	teqpl	r0, #1627389952	; 0x61000000
    aabc:	666e6174 			; <UNDEFINED> instruction: 0x666e6174
    aac0:	2064726f 	rsbcs	r7, r4, pc, ror #4
    aac4:	76696e55 			; <UNDEFINED> instruction: 0x76696e55
    aac8:	69737265 	ldmdbvs	r3!, {r0, r2, r5, r6, r9, ip, sp, lr}^
    aacc:	69207974 	stmdbvs	r0!, {r2, r4, r5, r6, r8, fp, ip, sp, lr}
    aad0:	6874206e 	ldmdavs	r4!, {r1, r2, r3, r5, r6, sp}^
    aad4:	69572065 	ldmdbvs	r7, {r0, r2, r5, r6, sp}^
    aad8:	7265746e 	rsbvc	r7, r5, #1845493760	; 0x6e000000
    aadc:	61755120 	cmnvs	r5, r0, lsr #2
    aae0:	72657472 	rsbvc	r7, r5, #1912602624	; 0x72000000
    aae4:	20666f20 	rsbcs	r6, r6, r0, lsr #30
    aae8:	39313032 	ldmdbcc	r1!, {r1, r4, r5, ip, sp}
    aaec:	0000002e 	andeq	r0, r0, lr, lsr #32
    aaf0:	66206548 	strtvs	r6, [r0], -r8, asr #10
    aaf4:	73696e69 	cmnvc	r9, #1680	; 0x690
    aaf8:	20736568 	rsbscs	r6, r3, r8, ror #10
    aafc:	20736968 	rsbscs	r6, r3, r8, ror #18
    ab00:	65726563 	ldrbvs	r6, [r2, #-1379]!	; 0x563
    ab04:	61206c61 	teqvs	r0, r1, ror #24
    ab08:	6920646e 	stmdbvs	r0!, {r1, r2, r3, r5, r6, sl, sp, lr}
    ab0c:	62612073 	rsbvs	r2, r1, #115	; 0x73
    ab10:	2074756f 	rsbscs	r7, r4, pc, ror #10
    ab14:	64206f74 	strtvs	r6, [r0], #-3956	; 0xf74
    ab18:	6f637369 	svcvs	0x00637369
    ab1c:	63656e6e 	cmnvs	r5, #1760	; 0x6e0
    ab20:	68772074 	ldmdavs	r7!, {r2, r4, r5, r6, sp}^
    ab24:	61206e65 	teqvs	r0, r5, ror #28
    ab28:	6e61206e 	cdpvs	0, 6, cr2, cr1, cr14, {3}
    ab2c:	6e796e6f 	cdpvs	14, 7, cr6, cr9, cr15, {3}
    ab30:	2073756f 	rsbscs	r7, r3, pc, ror #10
    ab34:	7373656d 	cmnvc	r3, #457179136	; 0x1b400000
    ab38:	20656761 	rsbcs	r6, r5, r1, ror #14
    ab3c:	63696c73 	cmnvs	r9, #29440	; 0x7300
    ab40:	6f207365 	svcvs	0x00207365
    ab44:	206f746e 	rsbcs	r7, pc, lr, ror #8
    ab48:	20656874 	rsbcs	r6, r5, r4, ror r8
    ab4c:	65726373 	ldrbvs	r6, [r2, #-883]!	; 0x373
    ab50:	202e6e65 	eorcs	r6, lr, r5, ror #28
    ab54:	45524353 	ldrbmi	r4, [r2, #-851]	; 0x353
    ab58:	44204e45 	strtmi	r4, [r0], #-3653	; 0xe45
    ab5c:	6f79206f 	svcvs	0x0079206f
    ab60:	61772075 	cmnvs	r7, r5, ror r0
    ab64:	7420746e 	strtvc	r7, [r0], #-1134	; 0x46e
    ab68:	6e6b206f 	cdpvs	0, 6, cr2, cr11, cr15, {3}
    ab6c:	7720776f 	strvc	r7, [r0, -pc, ror #14]!
    ab70:	20746168 	rsbscs	r6, r4, r8, ror #2
    ab74:	20656874 	rsbcs	r6, r5, r4, ror r8
    ab78:	7274614d 	rsbsvc	r6, r4, #1073741843	; 0x40000013
    ab7c:	69207869 	stmdbvs	r0!, {r0, r3, r5, r6, fp, ip, sp, lr}
    ab80:	4e202c73 	mcrmi	12, 1, r2, cr0, cr3, {3}
    ab84:	203f6f65 	eorscs	r6, pc, r5, ror #30
    ab88:	206f654e 	rsbcs	r6, pc, lr, asr #10
    ab8c:	66207369 	strtvs	r7, [r0], -r9, ror #6
    ab90:	657a6f72 	ldrbvs	r6, [sl, #-3954]!	; 0xf72
    ab94:	6877206e 	ldmdavs	r7!, {r1, r2, r3, r5, r6, sp}^
    ab98:	68206e65 	stmdavs	r0!, {r0, r2, r5, r6, r9, sl, fp, sp, lr}
    ab9c:	65722065 	ldrbvs	r2, [r2, #-101]!	; 0x65
    aba0:	20736461 	rsbscs	r6, r3, r1, ror #8
    aba4:	20736968 	rsbscs	r6, r3, r8, ror #18
    aba8:	656d616e 	strbvs	r6, [sp, #-366]!	; 0x16e
    abac:	4353202e 	cmpmi	r3, #46	; 0x2e
    abb0:	4e454552 	mcrmi	5, 2, r4, cr5, cr2, {2}
    abb4:	50555320 	subspl	r5, r5, r0, lsr #6
    abb8:	53415245 	movtpl	r5, #4677	; 0x1245
    abbc:	3a434954 	bcc	10dd114 <__bss_end__+0x10d024c>
    abc0:	6f685720 	svcvs	0x00685720
    abc4:	69617320 	stmdbvs	r1!, {r5, r8, r9, ip, sp, lr}^
    abc8:	68742064 	ldmdavs	r4!, {r2, r5, r6, sp}^
    abcc:	203f7461 	eorscs	r7, pc, r1, ror #8
    abd0:	4b43414a 	blmi	10db100 <__bss_end__+0x10ce238>
    abd4:	203a4e4f 	eorscs	r4, sl, pc, asr #28
    abd8:	276f6857 			; <UNDEFINED> instruction: 0x276f6857
    abdc:	654e2073 	strbvs	r2, [lr, #-115]	; 0x73
    abe0:	47203f6f 	strmi	r3, [r0, -pc, ror #30]!
    abe4:	4f534249 	svcmi	0x00534249
    abe8:	54203a4e 	strtpl	r3, [r0], #-2638	; 0xa4e
    abec:	20736968 	rsbscs	r6, r3, r8, ror #18
    abf0:	61207369 	teqvs	r0, r9, ror #6
    abf4:	69727020 	ldmdbvs	r2!, {r5, ip, sp, lr}^
    abf8:	65746176 	ldrbvs	r6, [r4, #-374]!	; 0x176
    abfc:	616f6220 	cmnvs	pc, r0, lsr #4
    ac00:	202e6472 	eorcs	r6, lr, r2, ror r4
    ac04:	79206649 	stmdbvc	r0!, {r0, r3, r6, r9, sl, sp, lr}
    ac08:	7720756f 	strvc	r7, [r0, -pc, ror #10]!
    ac0c:	20746e61 	rsbscs	r6, r4, r1, ror #28
    ac10:	6b206f74 	blvs	8269e8 <__bss_end__+0x819b20>
    ac14:	2c776f6e 	ldclcs	15, cr6, [r7], #-440	; 0xfffffe48
    ac18:	6c6f6620 	stclvs	6, cr6, [pc], #-128	; aba0 <spi0+0x398>
    ac1c:	20776f6c 	rsbscs	r6, r7, ip, ror #30
    ac20:	20656874 	rsbcs	r6, r5, r4, ror r8
    ac24:	74696877 	strbtvc	r6, [r9], #-2167	; 0x877
    ac28:	61722065 	cmnvs	r2, r5, rrx
    ac2c:	74696262 	strbtvc	r6, [r9], #-610	; 0x262
    ac30:	454e202e 	strbmi	r2, [lr, #-46]	; 0x2e
    ac34:	6857204f 	ldmdavs	r7, {r0, r1, r2, r3, r6, sp}^
    ac38:	74207461 	strtvc	r7, [r0], #-1121	; 0x461
    ac3c:	68206568 	stmdavs	r0!, {r3, r5, r6, r8, sl, sp, lr}
    ac40:	2e6c6c65 	cdpcs	12, 6, cr6, cr12, cr5, {3}
    ac44:	53202e2e 	teqpl	r0, #736	; 0x2e0
    ac48:	45455243 	strbmi	r5, [r5, #-579]	; 0x243
    ac4c:	4954204e 	ldmdbmi	r4, {r1, r2, r3, r6, sp}^
    ac50:	4558414d 	ldrbmi	r4, [r8, #-333]	; 0x14d
    ac54:	6f53203a 	svcvs	0x0053203a
    ac58:	6e6f656d 	cdpvs	5, 6, cr6, cr15, cr13, {3}
    ac5c:	73692065 	cmnvc	r9, #101	; 0x65
    ac60:	63616820 	cmnvs	r1, #32, 16	; 0x200000
    ac64:	676e696b 	strbvs	r6, [lr, -fp, ror #18]!
    ac68:	65687420 	strbvs	r7, [r8, #-1056]!	; 0x420
    ac6c:	63616820 	cmnvs	r1, #32, 16	; 0x200000
    ac70:	7372656b 	cmnvc	r2, #448790528	; 0x1ac00000
    ac74:	4f462021 	svcmi	0x00462021
    ac78:	203a3453 	eorscs	r3, sl, r3, asr r4
    ac7c:	73277449 	teqvc	r7, #1224736768	; 0x49000000
    ac80:	726f4d20 	rsbvc	r4, pc, #32, 26	; 0x800
    ac84:	75656870 	strbvc	r6, [r5, #-2160]!	; 0x870
    ac88:	21212173 	teqcs	r1, r3, ror r1
    ac8c:	4a202121 	bmi	813118 <__bss_end__+0x806250>
    ac90:	4f4b4341 	svcmi	0x004b4341
    ac94:	49203a4e 	stmdbmi	r0!, {r1, r2, r3, r6, r9, fp, ip, sp}
    ac98:	746e6564 	strbtvc	r6, [lr], #-1380	; 0x564
    ac9c:	20796669 	rsbscs	r6, r9, r9, ror #12
    aca0:	72756f79 	rsbsvc	r6, r5, #484	; 0x1e4
    aca4:	666c6573 			; <UNDEFINED> instruction: 0x666c6573
    aca8:	6e4b202e 	cdpvs	0, 4, cr2, cr11, cr14, {1}
    acac:	2c6b636f 	stclcs	3, cr6, [fp], #-444	; 0xfffffe44
    acb0:	6f6e6b20 	svcvs	0x006e6b20
    acb4:	202c6b63 	eorcs	r6, ip, r3, ror #22
    acb8:	2e6f654e 	cdpcs	5, 6, cr6, cr15, cr14, {2}
    acbc:	63204120 	teqvs	r0, #32, 2
    acc0:	6c6c6968 	stclvs	9, cr6, [ip], #-416	; 0xfffffe60
    acc4:	6e757220 	cdpvs	2, 7, cr7, cr5, cr0, {1}
    acc8:	6f642073 	svcvs	0x00642073
    accc:	68206e77 	stmdavs	r0!, {r0, r1, r2, r4, r5, r6, r9, sl, fp, sp, lr}
    acd0:	73207369 	teqvc	r0, #-1543503871	; 0xa4000001
    acd4:	656e6970 	strbvs	r6, [lr, #-2416]!	; 0x970
    acd8:	646e6120 	strbtvs	r6, [lr], #-288	; 0x120
    acdc:	65687720 	strbvs	r7, [r8, #-1824]!	; 0x720
    ace0:	6f73206e 	svcvs	0x0073206e
    ace4:	6e6f656d 	cdpvs	5, 6, cr6, cr15, cr13, {3}
    ace8:	4e4b2065 	cdpmi	0, 4, cr2, cr11, cr5, {3}
    acec:	534b434f 	movtpl	r4, #45903	; 0xb34f
    acf0:	206e6f20 	rsbcs	r6, lr, r0, lsr #30
    acf4:	20736968 	rsbscs	r6, r3, r8, ror #18
    acf8:	726f6f64 	rsbvc	r6, pc, #100, 30	; 0x190
    acfc:	20656820 	rsbcs	r6, r5, r0, lsr #16
    ad00:	6f6d6c61 	svcvs	0x006d6c61
    ad04:	6a207473 	bvs	827ed8 <__bss_end__+0x81b010>
    ad08:	73706d75 	cmnvc	r0, #7488	; 0x1d40
    ad0c:	74756f20 	ldrbtvc	r6, [r5], #-3872	; 0xf20
    ad10:	20666f20 	rsbcs	r6, r6, r0, lsr #30
    ad14:	20736968 	rsbscs	r6, r3, r8, ror #18
    ad18:	69616863 	stmdbvs	r1!, {r0, r1, r5, r6, fp, sp, lr}^
    ad1c:	48202e72 	stmdami	r0!, {r1, r4, r5, r6, r9, sl, fp, sp}
    ad20:	6f6c2065 	svcvs	0x006c2065
    ad24:	20736b6f 	rsbscs	r6, r3, pc, ror #22
    ad28:	74207461 	strtvc	r7, [r0], #-1121	; 0x461
    ad2c:	64206568 	strtvs	r6, [r0], #-1384	; 0x568
    ad30:	2c726f6f 	ldclcs	15, cr6, [r2], #-444	; 0xfffffe44
    ad34:	65687420 	strbvs	r7, [r8, #-1056]!	; 0x420
    ad38:	6162206e 	cmnvs	r2, lr, rrx
    ad3c:	61206b63 	teqvs	r0, r3, ror #22
    ad40:	68742074 	ldmdavs	r4!, {r2, r4, r5, r6, sp}^
    ad44:	6f632065 	svcvs	0x00632065
    ad48:	7475706d 	ldrbtvc	r7, [r5], #-109	; 0x6d
    ad4c:	62207265 	eorvs	r7, r0, #1342177286	; 0x50000006
    ad50:	74207475 	strtvc	r7, [r0], #-1141	; 0x475
    ad54:	6d206568 	cfstr32vs	mvfx6, [r0, #-416]!	; 0xfffffe60
    ad58:	61737365 	cmnvs	r3, r5, ror #6
    ad5c:	69206567 	stmdbvs	r0!, {r0, r1, r2, r5, r6, r8, sl, sp, lr}
    ad60:	6f672073 	svcvs	0x00672073
    ad64:	202e656e 	eorcs	r6, lr, lr, ror #10
    ad68:	73206548 	teqvc	r0, #72, 10	; 0x12000000
    ad6c:	656b6168 	strbvs	r6, [fp, #-360]!	; 0x168
    ad70:	69682073 	stmdbvs	r8!, {r0, r1, r4, r5, r6, sp}^
    ad74:	65682073 	strbvs	r2, [r8, #-115]!	; 0x73
    ad78:	202c6461 	eorcs	r6, ip, r1, ror #8
    ad7c:	20746f6e 	rsbscs	r6, r4, lr, ror #30
    ad80:	706d6f63 	rsbvc	r6, sp, r3, ror #30
    ad84:	6574656c 	ldrbvs	r6, [r4, #-1388]!	; 0x56c
    ad88:	7320796c 	teqvc	r0, #108, 18	; 0x1b0000
    ad8c:	20657275 	rsbcs	r7, r5, r5, ror r2
    ad90:	74616877 	strbtvc	r6, [r1], #-2167	; 0x877
    ad94:	70616820 	rsbvc	r6, r1, r0, lsr #16
    ad98:	656e6570 	strbvs	r6, [lr, #-1392]!	; 0x570
    ad9c:	41202e64 	teqmi	r0, r4, ror #28
    ada0:	6e696167 	powvsez	f6, f1, f7
    ada4:	6f73202c 	svcvs	0x0073202c
    ada8:	6e6f656d 	cdpvs	5, 6, cr6, cr15, cr13, {3}
    adac:	6e6b2065 	cdpvs	0, 6, cr2, cr11, cr5, {3}
    adb0:	736b636f 	cmnvc	fp, #-1140850687	; 0xbc000001
    adb4:	6143202e 	cmpvs	r3, lr, lsr #32
    adb8:	6f697475 	svcvs	0x00697475
    adbc:	796c7375 	stmdbvc	ip!, {r0, r2, r4, r5, r6, r8, r9, ip, sp, lr}^
    adc0:	654e202c 	strbvs	r2, [lr, #-44]	; 0x2c
    adc4:	7061206f 	rsbvc	r2, r1, pc, rrx
    adc8:	616f7270 	smcvs	63264	; 0xf720
    adcc:	73656863 	cmnvc	r5, #6488064	; 0x630000
    add0:	65687420 	strbvs	r7, [r8, #-1056]!	; 0x420
    add4:	6f6f6420 	svcvs	0x006f6420
    add8:	56202e72 			; <UNDEFINED> instruction: 0x56202e72
    addc:	4543494f 	strbmi	r4, [r3, #-2383]	; 0x94f
    ade0:	2e4f2820 	cdpcs	8, 4, cr2, cr15, cr0, {1}
    ade4:	20292e53 	eorcs	r2, r9, r3, asr lr
    ade8:	2c796548 	cfldr64cs	mvdx6, [r9], #-288	; 0xfffffee0
    adec:	6d6f5420 	cfstrdvs	mvd5, [pc, #-128]!	; ad74 <spi0+0x56c>
    adf0:	622d796d 	eorvs	r7, sp, #1785856	; 0x1b4000
    adf4:	2021796f 	eorcs	r7, r1, pc, ror #18
    adf8:	20756f59 	rsbscs	r6, r5, r9, asr pc
    adfc:	74206e69 	strtvc	r6, [r0], #-3689	; 0xe69
    ae00:	65726568 	ldrbvs	r6, [r2, #-1384]!	; 0x568
    ae04:	6552203f 	ldrbvs	r2, [r2, #-63]	; 0x3f
    ae08:	6e676f63 	cdpvs	15, 6, cr6, cr7, cr3, {3}
    ae0c:	6e697a69 	vnmulvs.f32	s15, s18, s19
    ae10:	68742067 	ldmdavs	r4!, {r0, r1, r2, r5, r6, sp}^
    ae14:	6f762065 	svcvs	0x00762065
    ae18:	2c656369 	stclcs	3, cr6, [r5], #-420	; 0xfffffe5c
    ae1c:	20656820 	rsbcs	r6, r5, r0, lsr #16
    ae20:	616c6572 	smcvs	50770	; 0xc652
    ae24:	20736578 	rsbscs	r6, r3, r8, ror r5
    ae28:	20646e61 	rsbcs	r6, r4, r1, ror #28
    ae2c:	6e65706f 	cdpvs	0, 6, cr7, cr5, cr15, {3}
    ae30:	74692073 	strbtvc	r2, [r9], #-115	; 0x73
    ae34:	4e41202e 	cdpmi	0, 4, cr2, cr1, cr14, {1}
    ae38:	4e4f4854 	mcrmi	8, 2, r4, cr15, cr4, {2}
    ae3c:	77202c59 			; <UNDEFINED> instruction: 0x77202c59
    ae40:	6c206f68 	stcvs	15, cr6, [r0], #-416	; 0xfffffe60
    ae44:	73657669 	cmnvc	r5, #110100480	; 0x6900000
    ae48:	776f6420 	strbvc	r6, [pc, -r0, lsr #8]!
    ae4c:	6874206e 	ldmdavs	r4!, {r1, r2, r3, r5, r6, sp}^
    ae50:	61682065 	cmnvs	r8, r5, rrx
    ae54:	202c6c6c 	eorcs	r6, ip, ip, ror #24
    ae58:	73207369 	teqvc	r0, #-1543503871	; 0xa4000001
    ae5c:	646e6174 	strbtvs	r6, [lr], #-372	; 0x174
    ae60:	20676e69 	rsbcs	r6, r7, r9, ror #28
    ae64:	7374756f 	cmnvc	r4, #465567744	; 0x1bc00000
    ae68:	20656469 	rsbcs	r6, r5, r9, ror #8
    ae6c:	68746977 	ldmdavs	r4!, {r0, r1, r2, r4, r5, r6, r8, fp, sp, lr}^
    ae70:	67206120 	strvs	r6, [r0, -r0, lsr #2]!
    ae74:	70756f72 	rsbsvc	r6, r5, r2, ror pc
    ae78:	20666f20 	rsbcs	r6, r6, r0, lsr #30
    ae7c:	65697266 	strbvs	r7, [r9, #-614]!	; 0x266
    ae80:	2e73646e 	cdpcs	4, 7, cr6, cr3, cr14, {3}
    ae84:	4f454e20 	svcmi	0x00454e20
    ae88:	61685720 	cmnvs	r8, r0, lsr #14
    ae8c:	6f642074 	svcvs	0x00642074
    ae90:	756f7920 	strbvc	r7, [pc, #-2336]!	; a578 <gpio_write+0x14>
    ae94:	6e617720 	cdpvs	7, 6, cr7, cr1, cr0, {1}
    ae98:	41202c74 	teqmi	r0, r4, ror ip
    ae9c:	6f68746e 	svcvs	0x0068746e
    aea0:	203f796e 	eorscs	r7, pc, lr, ror #18
    aea4:	48544e41 	ldmdami	r4, {r0, r6, r9, sl, fp, lr}^
    aea8:	20594e4f 	subscs	r4, r9, pc, asr #28
    aeac:	656e2049 	strbvs	r2, [lr, #-73]!	; 0x49
    aeb0:	79206465 	stmdbvc	r0!, {r0, r2, r5, r6, sl, sp, lr}
    aeb4:	2072756f 	rsbscs	r7, r2, pc, ror #10
    aeb8:	706c6568 	rsbvc	r6, ip, r8, ror #10
    aebc:	616d202c 	cmnvs	sp, ip, lsr #32
    aec0:	44202e6e 	strtmi	r2, [r0], #-3694	; 0xe6e
    aec4:	65707365 	ldrbvs	r7, [r0, #-869]!	; 0x365
    aec8:	65746172 	ldrbvs	r6, [r4, #-370]!	; 0x172
    aecc:	6854202e 	ldmdavs	r4, {r1, r2, r3, r5, sp}^
    aed0:	67207965 	strvs	r7, [r0, -r5, ror #18]!
    aed4:	6d20746f 	cfstrsvs	mvf7, [r0, #-444]!	; 0xfffffe44
    aed8:	6d202c65 	stcvs	12, cr2, [r0, #-404]!	; 0xfffffe6c
    aedc:	202e6e61 	eorcs	r6, lr, r1, ror #28
    aee0:	20656854 	rsbcs	r6, r5, r4, asr r8
    aee4:	63616873 	cmnvs	r1, #7536640	; 0x730000
    aee8:	73656c6b 	cmnvc	r5, #27392	; 0x6b00
    aeec:	20666f20 	rsbcs	r6, r6, r0, lsr #30
    aef0:	63736166 	cmnvs	r3, #-2147483623	; 0x80000019
    aef4:	2e6d7369 	cdpcs	3, 6, cr7, cr13, cr9, {3}
    aef8:	20654820 	rsbcs	r4, r5, r0, lsr #16
    aefc:	646c6f68 	strbtvs	r6, [ip], #-3944	; 0xf68
    af00:	70752073 	rsbsvc	r2, r5, r3, ror r0
    af04:	65687420 	strbvs	r7, [r8, #-1056]!	; 0x420
    af08:	64657220 	strbtvs	r7, [r5], #-544	; 0x220
    af0c:	746f6e20 	strbtvc	r6, [pc], #-3616	; af14 <spi0+0x70c>
    af10:	20656369 	rsbcs	r6, r5, r9, ror #6
    af14:	74616874 	strbtvc	r6, [r1], #-2164	; 0x874
    af18:	63636120 	cmnvs	r3, #32, 2
    af1c:	61706d6f 	cmnvs	r0, pc, ror #26
    af20:	7365696e 	cmnvc	r5, #1802240	; 0x1b8000
    af24:	65687420 	strbvs	r7, [r8, #-1056]!	; 0x420
    af28:	6e654420 	cdpvs	4, 6, cr4, cr5, cr0, {1}
    af2c:	20726576 	rsbscs	r6, r2, r6, ror r5
    af30:	746f6f62 	strbtvc	r6, [pc], #-3938	; af38 <spi0+0x730>
    af34:	454e202e 	strbmi	r2, [lr, #-46]	; 0x2e
    af38:	6f59204f 	svcvs	0x0059204f
    af3c:	6f672075 	svcvs	0x00672075
    af40:	68742074 	ldmdavs	r4!, {r2, r4, r5, r6, sp}^
    af44:	6f6d2065 	svcvs	0x006d2065
    af48:	2079656e 	rsbscs	r6, r9, lr, ror #10
    af4c:	73696874 	cmnvc	r9, #116, 16	; 0x740000
    af50:	6d697420 	cfstrdvs	mvd7, [r9, #-128]!	; 0xffffff80
    af54:	48203f65 	stmdami	r0!, {r0, r2, r5, r6, r8, r9, sl, fp, ip, sp}
    af58:	6f682065 	svcvs	0x00682065
    af5c:	2073646c 	rsbscs	r6, r3, ip, ror #8
    af60:	74207075 	strtvc	r7, [r0], #-117	; 0x75
    af64:	68206f77 	stmdavs	r0!, {r0, r1, r2, r4, r5, r6, r8, r9, sl, fp, sp, lr}
    af68:	72646e75 	rsbvc	r6, r4, #1872	; 0x750
    af6c:	64206465 	strtvs	r6, [r0], #-1125	; 0x465
    af70:	616c6c6f 	cmnvs	ip, pc, ror #24
    af74:	61207372 	teqvs	r0, r2, ror r3
    af78:	4e20646e 	cdpmi	4, 2, cr6, cr0, cr14, {3}
    af7c:	6f206f65 	svcvs	0x00206f65
    af80:	736e6570 	cmnvc	lr, #112, 10	; 0x1c000000
    af84:	65687420 	strbvs	r7, [r8, #-1056]!	; 0x420
    af88:	6f6f6420 	svcvs	0x006f6420
    af8c:	41202e72 	teqmi	r0, r2, ror lr
    af90:	6f68746e 	svcvs	0x0068746e
    af94:	7327796e 	teqvc	r7, #1802240	; 0x1b8000
    af98:	72696720 	rsbvc	r6, r9, #32, 14	; 0x800000
    af9c:	6972666c 	ldmdbvs	r2!, {r2, r3, r5, r6, r9, sl, sp, lr}^
    afa0:	2c646e65 	stclcs	14, cr6, [r4], #-404	; 0xfffffe6c
    afa4:	4a554420 	bmi	155c02c <__bss_end__+0x154f164>
    afa8:	2c52554f 	cfldr64cs	mvdx5, [r2], {79}	; 0x4f
    afac:	6f747320 	svcvs	0x00747320
    afb0:	69207370 	stmdbvs	r0!, {r4, r5, r6, r8, r9, ip, sp, lr}
    afb4:	7266206e 	rsbvc	r2, r6, #110	; 0x6e
    afb8:	20746e6f 	rsbscs	r6, r4, pc, ror #28
    afbc:	4e20666f 	cfmadda32mi	mvax3, mvax6, mvfx0, mvfx15
    afc0:	202e6f65 	eorcs	r6, lr, r5, ror #30
    afc4:	4f4a5544 	svcmi	0x004a5544
    afc8:	59205255 	stmdbpl	r0!, {r0, r2, r4, r6, r9, ip, lr}
    afcc:	6320756f 	teqvs	r0, #465567744	; 0x1bc00000
    afd0:	72206e61 	eorvc	r6, r0, #1552	; 0x610
    afd4:	6c6c6165 	stfvse	f6, [ip], #-404	; 0xfffffe6c
    afd8:	65672079 	strbvs	r2, [r7, #-121]!	; 0x79
    afdc:	68742074 	ldmdavs	r4!, {r2, r4, r5, r6, sp}^
    afe0:	74207461 	strtvc	r7, [r0], #-1121	; 0x461
    afe4:	676e6968 	strbvs	r6, [lr, -r8, ror #18]!
    afe8:	66666f20 	strbtvs	r6, [r6], -r0, lsr #30
    afec:	6972202c 	ldmdbvs	r2!, {r2, r3, r5, sp}^
    aff0:	20746867 	rsbscs	r6, r4, r7, ror #16
    aff4:	3f776f6e 	svccc	0x00776f6e
    aff8:	544e4120 	strbpl	r4, [lr], #-288	; 0x120
    affc:	594e4f48 	stmdbpl	lr, {r3, r6, r8, r9, sl, fp, lr}^
    b000:	74204920 	strtvc	r4, [r0], #-2336	; 0x920
    b004:	20646c6f 	rsbcs	r6, r4, pc, ror #24
    b008:	2c756f79 	ldclcs	15, cr6, [r5], #-484	; 0xfffffe1c
    b00c:	6e6f6820 	cdpvs	8, 6, cr6, cr15, cr0, {1}
    b010:	202c7965 	eorcs	r7, ip, r5, ror #18
    b014:	6d206568 	cfstr32vs	mvfx6, [r0, #-416]!	; 0xfffffe60
    b018:	6c207961 	stcvs	9, cr7, [r0], #-388	; 0xfffffe7c
    b01c:	206b6f6f 	rsbcs	r6, fp, pc, ror #30
    b020:	656b696c 	strbvs	r6, [fp, #-2412]!	; 0x96c
    b024:	73756a20 	cmnvc	r5, #32, 20	; 0x20000
    b028:	6e612074 	mcrvs	0, 3, r2, cr1, cr4, {3}
    b02c:	6568746f 	strbvs	r7, [r8, #-1135]!	; 0x46f
    b030:	65672072 	strbvs	r2, [r7, #-114]!	; 0x72
    b034:	62206b65 	eorvs	r6, r0, #103424	; 0x19400
    b038:	74207475 	strtvc	r7, [r0], #-1141	; 0x475
    b03c:	20736968 	rsbscs	r6, r3, r8, ror #18
    b040:	65726568 	ldrbvs	r6, [r2, #-1384]!	; 0x568
    b044:	20736920 	rsbscs	r6, r3, r0, lsr #18
    b048:	206c6c61 	rsbcs	r6, ip, r1, ror #24
    b04c:	67206577 			; <UNDEFINED> instruction: 0x67206577
    b050:	6c20746f 	cfstrsvs	mvf7, [r0], #-444	; 0xfffffe44
    b054:	20746665 	rsbscs	r6, r4, r5, ror #12
    b058:	6e617473 	mcrvs	4, 3, r7, cr1, cr3, {3}
    b05c:	676e6964 	strbvs	r6, [lr, -r4, ror #18]!
    b060:	74656220 	strbtvc	r6, [r5], #-544	; 0x220
    b064:	6e656577 	mcrvs	5, 3, r6, cr5, cr7, {3}
    b068:	67694220 	strbvs	r4, [r9, -r0, lsr #4]!
    b06c:	6f724220 	svcvs	0x00724220
    b070:	72656874 	rsbvc	r6, r5, #116, 16	; 0x740000
    b074:	646e6120 	strbtvs	r6, [lr], #-288	; 0x120
    b078:	65687420 	strbvs	r7, [r8, #-1056]!	; 0x420
    b07c:	77654e20 	strbvc	r4, [r5, -r0, lsr #28]!
    b080:	726f5720 	rsbvc	r5, pc, #32, 14	; 0x800000
    b084:	4f20646c 	svcmi	0x0020646c
    b088:	72656472 	rsbvc	r6, r5, #1912602624	; 0x72000000
    b08c:	5845202e 	stmdapl	r5, {r1, r2, r3, r5, sp}^
    b090:	53202e54 	teqpl	r0, #84, 28	; 0x540
    b094:	45455254 	strbmi	r5, [r5, #-596]	; 0x254
    b098:	20412054 	subcs	r2, r1, r4, asr r0
    b09c:	696c6f70 	stmdbvs	ip!, {r4, r5, r6, r8, r9, sl, fp, sp, lr}^
    b0a0:	6f206563 	svcvs	0x00206563
    b0a4:	63696666 	cmnvs	r9, #106954752	; 0x6600000
    b0a8:	75207265 	strvc	r7, [r0, #-613]!	; 0x265
    b0ac:	636f6c6e 	cmnvs	pc, #28160	; 0x6e00
    b0b0:	6120736b 	teqvs	r0, fp, ror #6
    b0b4:	6c657920 	stclvs	9, cr7, [r5], #-128	; 0xffffff80
    b0b8:	20776f6c 	rsbscs	r6, r7, ip, ror #30
    b0bc:	6174656d 	cmnvs	r4, sp, ror #10
    b0c0:	6f62206c 	svcvs	0x0062206c
    b0c4:	6620746f 	strtvs	r7, [r0], -pc, ror #8
    b0c8:	206d6f72 	rsbcs	r6, sp, r2, ror pc
    b0cc:	20656874 	rsbcs	r6, r5, r4, ror r8
    b0d0:	65656877 	strbvs	r6, [r5, #-2167]!	; 0x877
    b0d4:	666f206c 	strbtvs	r2, [pc], -ip, rrx
    b0d8:	206e6120 	rsbcs	r6, lr, r0, lsr #2
    b0dc:	726f6e65 	rsbvc	r6, pc, #1616	; 0x650
    b0e0:	73756f6d 	cmnvc	r5, #436	; 0x1b4
    b0e4:	646c6f20 	strbtvs	r6, [ip], #-3872	; 0xf20
    b0e8:	626f6d73 	rsbvs	r6, pc, #7360	; 0x1cc0
    b0ec:	2e656c69 	cdpcs	12, 6, cr6, cr5, cr9, {3}
    b0f0:	544e4920 	strbpl	r4, [lr], #-2336	; 0x920
    b0f4:	454e202e 	strbmi	r2, [lr, #-46]	; 0x2e
    b0f8:	2053274f 	subscs	r2, r3, pc, asr #14
    b0fc:	52415041 	subpl	r5, r1, #65	; 0x41
    b100:	4e454d54 	mcrmi	13, 2, r4, cr5, cr4, {2}
    b104:	68542054 	ldmdavs	r4, {r2, r4, r6, sp}^
    b108:	77207965 	strvc	r7, [r0, -r5, ror #18]!
    b10c:	68637461 	stmdavs	r3!, {r0, r5, r6, sl, ip, sp, lr}^
    b110:	6f726620 	svcvs	0x00726620
    b114:	6874206d 	ldmdavs	r4!, {r0, r2, r3, r5, r6, sp}^
    b118:	69772065 	ldmdbvs	r7!, {r0, r2, r5, r6, sp}^
    b11c:	776f646e 	strbvc	r6, [pc, -lr, ror #8]!
    b120:	20736120 	rsbscs	r6, r3, r0, lsr #2
    b124:	20656874 	rsbcs	r6, r5, r4, ror r8
    b128:	73706f63 	cmnvc	r0, #396	; 0x18c
    b12c:	6973202c 	ldmdbvs	r3!, {r2, r3, r5, sp}^
    b130:	746e656c 	strbtvc	r6, [lr], #-1388	; 0x56c
    b134:	202c796c 	eorcs	r7, ip, ip, ror #18
    b138:	6f626f72 	svcvs	0x00626f72
    b13c:	61636974 	smcvs	13972	; 0x3694
    b140:	2c796c6c 	ldclcs	12, cr6, [r9], #-432	; 0xfffffe50
    b144:	696c6320 	stmdbvs	ip!, {r5, r8, r9, sp, lr}^
    b148:	6920626d 	stmdbvs	r0!, {r0, r2, r3, r5, r6, r9, sp, lr}
    b14c:	206f746e 	rsbcs	r7, pc, lr, ror #8
    b150:	69656874 	stmdbvs	r5!, {r2, r4, r5, r6, fp, sp, lr}^
    b154:	61762072 	cmnvs	r6, r2, ror r0
    b158:	41202e6e 	teqmi	r0, lr, ror #28
    b15c:	4f48544e 	svcmi	0x0048544e
    b160:	4c20594e 	stcmi	9, cr5, [r0], #-312	; 0xfffffec8
    b164:	206b6f6f 	rsbcs	r6, fp, pc, ror #30
    b168:	27207461 	strcs	r7, [r0, -r1, ror #8]!
    b16c:	202e6d65 	eorcs	r6, lr, r5, ror #26
    b170:	6f747541 	svcvs	0x00747541
    b174:	6f74616d 	svcvs	0x0074616d
    b178:	202e736e 	eorcs	r7, lr, lr, ror #6
    b17c:	276e6f44 	strbcs	r6, [lr, -r4, asr #30]!
    b180:	68742074 	ldmdavs	r4!, {r2, r4, r5, r6, sp}^
    b184:	206b6e69 	rsbcs	r6, fp, r9, ror #28
    b188:	756f6261 	strbvc	r6, [pc, #-609]!	; af2f <spi0+0x727>
    b18c:	68772074 	ldmdavs	r7!, {r2, r4, r5, r6, sp}^
    b190:	74207461 	strtvc	r7, [r0], #-1121	; 0x461
    b194:	27796568 	ldrbcs	r6, [r9, -r8, ror #10]!
    b198:	202d6572 	eorcs	r6, sp, r2, ror r5
    b19c:	6e696f64 	cdpvs	15, 6, cr6, cr9, cr4, {3}
    b1a0:	726f2067 	rsbvc	r2, pc, #103	; 0x67
    b1a4:	79687720 	stmdbvc	r8!, {r5, r8, r9, sl, ip, sp, lr}^
    b1a8:	6f43202e 	svcvs	0x0043202e
    b1ac:	7475706d 	ldrbtvc	r7, [r5], #-109	; 0x6d
    b1b0:	74207265 	strtvc	r7, [r0], #-613	; 0x265
    b1b4:	736c6c65 	cmnvc	ip, #25856	; 0x6500
    b1b8:	6d652720 	stclvs	7, cr2, [r5, #-128]!	; 0xffffff80
    b1bc:	61687720 	cmnvs	r8, r0, lsr #14
    b1c0:	6f742074 	svcvs	0x00742074
    b1c4:	206f6420 	rsbcs	r6, pc, r0, lsr #8
    b1c8:	20646e61 	rsbcs	r6, r4, r1, ror #28
    b1cc:	79656874 	stmdbvc	r5!, {r2, r4, r5, r6, fp, sp, lr}^
    b1d0:	206f6420 	rsbcs	r6, pc, r0, lsr #8
    b1d4:	202e7469 	eorcs	r7, lr, r9, ror #8
    b1d8:	45495246 	strbmi	r5, [r9, #-582]	; 0x246
    b1dc:	2320444e 	teqcs	r0, #1308622848	; 0x4e000000
    b1e0:	6854206c 	ldmdavs	r4, {r2, r3, r5, r6, sp}^
    b1e4:	61622063 	cmnvs	r2, r3, rrx
    b1e8:	696c616e 	stmdbvs	ip!, {r1, r2, r3, r5, r6, r8, sp, lr}^
    b1ec:	6f207974 	svcvs	0x00207974
    b1f0:	76652066 	strbtvc	r2, [r5], -r6, rrx
    b1f4:	202e6c69 	eorcs	r6, lr, r9, ror #24
    b1f8:	73206548 	teqvc	r0, #72, 10	; 0x12000000
    b1fc:	7370616c 	cmnvc	r0, #108, 2
    b200:	65687420 	strbvs	r7, [r8, #-1056]!	; 0x420
    b204:	6e6f6d20 	cdpvs	13, 6, cr6, cr15, cr0, {1}
    b208:	69207965 	stmdbvs	r0!, {r0, r2, r5, r6, r8, fp, ip, sp, lr}
    b20c:	654e206e 	strbvs	r2, [lr, #-110]	; 0x6e
    b210:	2073276f 	rsbscs	r2, r3, pc, ror #14
    b214:	646e6168 	strbtvs	r6, [lr], #-360	; 0x168
    b218:	4e41202e 	cdpmi	0, 4, cr2, cr1, cr14, {1}
    b21c:	4e4f4854 	mcrmi	8, 2, r4, cr15, cr4, {2}
    b220:	68542059 	ldmdavs	r4, {r0, r3, r4, r6, sp}^
    b224:	736b6e61 	cmnvc	fp, #1552	; 0x610
    b228:	656e202c 	strbvs	r2, [lr, #-44]!	; 0x2c
    b22c:	62686769 	rsbvs	r6, r8, #27525120	; 0x1a40000
    b230:	202e726f 	eorcs	r7, lr, pc, ror #4
    b234:	4f4a5544 	svcmi	0x004a5544
    b238:	57205255 			; <UNDEFINED> instruction: 0x57205255
    b23c:	64207968 	strtvs	r7, [r0], #-2408	; 0x968
    b240:	74276e6f 	strtvc	r6, [r7], #-3695	; 0xe6f
    b244:	756f7920 	strbvc	r7, [pc, #-2336]!	; a92c <spi0+0x124>
    b248:	6d6f6320 	stclvs	3, cr6, [pc, #-128]!	; b1d0 <spi0+0x9c8>
    b24c:	6f742065 	svcvs	0x00742065
    b250:	65687420 	strbvs	r7, [r8, #-1056]!	; 0x420
    b254:	72617020 	rsbvc	r7, r1, #32
    b258:	77207974 			; <UNDEFINED> instruction: 0x77207974
    b25c:	20687469 	rsbcs	r7, r8, r9, ror #8
    b260:	203f7375 	eorscs	r7, pc, r5, ror r3	; <UNPREDICTABLE>
    b264:	204f454e 	subcs	r4, pc, lr, asr #10
    b268:	6f642049 	svcvs	0x00642049
    b26c:	2074276e 	rsbscs	r2, r4, lr, ror #14
    b270:	776f6e6b 	strbvc	r6, [pc, -fp, ror #28]!
    b274:	2049202e 	subcs	r2, r9, lr, lsr #32
    b278:	65766168 	ldrbvs	r6, [r6, #-360]!	; 0x168
    b27c:	206f7420 	rsbcs	r7, pc, r0, lsr #8
    b280:	6b726f77 	blvs	1ca7064 <__bss_end__+0x1c9a19c>
    b284:	6d6f7420 	cfstrdvs	mvd7, [pc, #-128]!	; b20c <spi0+0xa04>
    b288:	6f72726f 	svcvs	0x0072726f
    b28c:	44202e77 	strtmi	r2, [r0], #-3703	; 0xe77
    b290:	554f4a55 	strbpl	r4, [pc, #-2645]	; a843 <spi0+0x3b>
    b294:	6f432052 	svcvs	0x00432052
    b298:	6f20656d 	svcvs	0x0020656d
    b29c:	49202e6e 	stmdbmi	r0!, {r1, r2, r3, r5, r6, r9, sl, fp, sp}
    b2a0:	6c6c2774 	stclvs	7, cr2, [ip], #-464	; 0xfffffe30
    b2a4:	20656220 	rsbcs	r6, r5, r0, lsr #4
    b2a8:	2e6e7566 	cdpcs	5, 6, cr7, cr14, cr6, {3}
    b2ac:	20654820 	rsbcs	r4, r5, r0, lsr #16
    b2b0:	6b6f6f6c 	blvs	1be7068 <__bss_end__+0x1bda1a0>
    b2b4:	70752073 	rsbsvc	r2, r5, r3, ror r0
    b2b8:	20746120 	rsbscs	r6, r4, r0, lsr #2
    b2bc:	20726568 	rsbscs	r6, r2, r8, ror #10
    b2c0:	20646e61 	rsbcs	r6, r4, r1, ror #28
    b2c4:	64647573 	strbtvs	r7, [r4], #-1395	; 0x573
    b2c8:	796c6e65 	stmdbvc	ip!, {r0, r2, r5, r6, r9, sl, fp, sp, lr}^
    b2cc:	746f6e20 	strbtvc	r6, [pc], #-3616	; b2d4 <spi0+0xacc>
    b2d0:	73656369 	cmnvc	r5, #-1543503871	; 0xa4000001
    b2d4:	206e6f20 	rsbcs	r6, lr, r0, lsr #30
    b2d8:	20726568 	rsbscs	r6, r2, r8, ror #10
    b2dc:	63616c62 	cmnvs	r1, #25088	; 0x6200
    b2e0:	656c206b 	strbvs	r2, [ip, #-107]!	; 0x6b
    b2e4:	65687461 	strbvs	r7, [r8, #-1121]!	; 0x461
    b2e8:	6f6d2072 	svcvs	0x006d2072
    b2ec:	63726f74 	cmnvs	r2, #116, 30	; 0x1d0
    b2f0:	656c6379 	strbvs	r6, [ip, #-889]!	; 0x379
    b2f4:	63616a20 	cmnvs	r1, #32, 20	; 0x20000
    b2f8:	2074656b 	rsbscs	r6, r4, fp, ror #10
    b2fc:	657a6f64 	ldrbvs	r6, [sl, #-3940]!	; 0xf64
    b300:	6f20736e 	svcvs	0x0020736e
    b304:	69702066 	ldmdbvs	r0!, {r1, r2, r5, r6, sp}^
    b308:	203a736e 	eorscs	r7, sl, lr, ror #6
    b30c:	646e6162 	strbtvs	r6, [lr], #-354	; 0x162
    b310:	73202c73 	teqvc	r0, #29440	; 0x7300
    b314:	6f626d79 	svcvs	0x00626d79
    b318:	202c736c 	eorcs	r7, ip, ip, ror #6
    b31c:	676f6c73 			; <UNDEFINED> instruction: 0x676f6c73
    b320:	2c736e61 	ldclcs	14, cr6, [r3], #-388	; 0xfffffe7c
    b324:	6c696d20 	stclvs	13, cr6, [r9], #-128	; 0xffffff80
    b328:	72617469 	rsbvc	r7, r1, #1761607680	; 0x69000000
    b32c:	656d2079 	strbvs	r2, [sp, #-121]!	; 0x79
    b330:	736c6164 	cmnvc	ip, #100, 2
    b334:	646e6120 	strbtvs	r6, [lr], #-288	; 0x120
    b338:	202d2d20 	eorcs	r2, sp, r0, lsr #26
    b33c:	6d732041 	ldclvs	0, cr2, [r3, #-260]!	; 0xfffffefc
    b340:	206c6c61 	rsbcs	r6, ip, r1, ror #24
    b344:	74696877 	strbtvc	r6, [r9], #-2167	; 0x877
    b348:	61722065 	cmnvs	r2, r5, rrx
    b34c:	74696262 	strbtvc	r6, [r9], #-610	; 0x262
    b350:	6854202e 	ldmdavs	r4, {r1, r2, r3, r5, sp}^
    b354:	4f522065 	svcmi	0x00522065
    b358:	54204d4f 	strtpl	r4, [r0], #-3407	; 0xd4f
    b35c:	53544c49 	cmppl	r4, #18688	; 0x4900
    b360:	454e202e 	strbmi	r2, [lr, #-46]	; 0x2e
    b364:	6559204f 	ldrbvs	r2, [r9, #-79]	; 0x4f
    b368:	202c6861 	eorcs	r6, ip, r1, ror #16
    b36c:	68616579 	stmdavs	r1!, {r0, r3, r4, r5, r6, r8, sl, sp, lr}^
    b370:	7553202e 	ldrbvc	r2, [r3, #-46]	; 0x2e
    b374:	202c6572 	eorcs	r6, ip, r2, ror r5
    b378:	6c6c2749 	stclvs	7, cr2, [ip], #-292	; 0xfffffedc
    b37c:	2e6f6720 	cdpcs	7, 6, cr6, cr15, cr0, {1}
    b380:	544e4920 	strbpl	r4, [lr], #-2336	; 0x920
    b384:	5041202e 	subpl	r2, r1, lr, lsr #32
    b388:	4d545241 	lfmmi	f5, 2, [r4, #-260]	; 0xfffffefc
    b38c:	20544e45 	subscs	r4, r4, r5, asr #28
    b390:	6f206e41 	svcvs	0x00206e41
    b394:	7265646c 	rsbvc	r6, r5, #108, 8	; 0x6c000000
    b398:	69684320 	stmdbvs	r8!, {r5, r8, r9, lr}^
    b39c:	6f676163 	svcvs	0x00676163
    b3a0:	61706120 	cmnvs	r0, r0, lsr #2
    b3a4:	656d7472 	strbvs	r7, [sp, #-1138]!	; 0x472
    b3a8:	203b746e 	eorscs	r7, fp, lr, ror #8
    b3ac:	65732061 	ldrbvs	r2, [r3, #-97]!	; 0x61
    b3b0:	73656972 	cmnvc	r5, #1867776	; 0x1c8000
    b3b4:	20666f20 	rsbcs	r6, r6, r0, lsr #30
    b3b8:	6c6c6168 	stfvse	f6, [ip], #-416	; 0xfffffe60
    b3bc:	6f632073 	svcvs	0x00632073
    b3c0:	63656e6e 	cmnvs	r5, #1760	; 0x6e0
    b3c4:	61207374 	teqvs	r0, r4, ror r3
    b3c8:	61686320 	cmnvs	r8, r0, lsr #6
    b3cc:	6f206e69 	svcvs	0x00206e69
    b3d0:	6d732066 	ldclvs	0, cr2, [r3, #-408]!	; 0xfffffe68
    b3d4:	206c6c61 	rsbcs	r6, ip, r1, ror #24
    b3d8:	68676968 	stmdavs	r7!, {r3, r5, r6, r8, fp, sp, lr}^
    b3dc:	6965632d 	stmdbvs	r5!, {r0, r2, r3, r5, r8, r9, sp, lr}^
    b3e0:	676e696c 	strbvs	r6, [lr, -ip, ror #18]!
    b3e4:	72206465 	eorvc	r6, r0, #1694498816	; 0x65000000
    b3e8:	736d6f6f 	cmnvc	sp, #444	; 0x1bc
    b3ec:	6e696c20 	cdpvs	12, 6, cr6, cr9, cr0, {1}
    b3f0:	77206465 	strvc	r6, [r0, -r5, ror #8]!
    b3f4:	20687469 	rsbcs	r7, r8, r9, ror #8
    b3f8:	76616568 	strbtvc	r6, [r1], -r8, ror #10
    b3fc:	61632079 	smcvs	12809	; 0x3209
    b400:	656d6573 	strbvs	r6, [sp, #-1395]!	; 0x573
    b404:	2e73746e 	cdpcs	4, 7, cr7, cr3, cr14, {3}
    b408:	6f6d5320 	svcvs	0x006d5320
    b40c:	6820656b 	stmdavs	r0!, {r0, r1, r3, r5, r6, r8, sl, sp, lr}
    b410:	73676e61 	cmnvc	r7, #1552	; 0x610
    b414:	6b696c20 	blvs	1a6649c <__bss_end__+0x1a595d4>
    b418:	20612065 	rsbcs	r2, r1, r5, rrx
    b41c:	6c696576 	cfstr64vs	mvdx6, [r9], #-472	; 0xfffffe28
    b420:	6c62202c 	stclvs	0, cr2, [r2], #-176	; 0xffffff50
    b424:	69727275 	ldmdbvs	r2!, {r0, r2, r4, r5, r6, r9, ip, sp, lr}^
    b428:	7420676e 	strtvc	r6, [r0], #-1902	; 0x76e
    b42c:	66206568 	strtvs	r6, [r0], -r8, ror #10
    b430:	6c207765 	stcvs	7, cr7, [r0], #-404	; 0xfffffe6c
    b434:	74686769 	strbtvc	r6, [r8], #-1897	; 0x769
    b438:	68742073 	ldmdavs	r4!, {r0, r1, r4, r5, r6, sp}^
    b43c:	20657265 	rsbcs	r7, r5, r5, ror #4
    b440:	2e657261 	cdpcs	2, 6, cr7, cr5, cr1, {3}
    b444:	65724420 	ldrbvs	r4, [r2, #-1056]!	; 0x420
    b448:	64657373 	strbtvs	r7, [r5], #-883	; 0x373
    b44c:	65727020 	ldrbvs	r7, [r2, #-32]!
    b450:	696d6f64 	stmdbvs	sp!, {r2, r5, r6, r8, r9, sl, fp, sp, lr}^
    b454:	746e616e 	strbtvc	r6, [lr], #-366	; 0x16e
    b458:	6920796c 	stmdbvs	r0!, {r2, r3, r5, r6, r8, fp, ip, sp, lr}
    b45c:	6c62206e 	stclvs	0, cr2, [r2], #-440	; 0xfffffe48
    b460:	2c6b6361 	stclcs	3, cr6, [fp], #-388	; 0xfffffe7c
    b464:	6f657020 	svcvs	0x00657020
    b468:	20656c70 	rsbcs	r6, r5, r0, ror ip
    b46c:	20657261 	rsbcs	r7, r5, r1, ror #4
    b470:	72657665 	rsbvc	r7, r5, #105906176	; 0x6500000
    b474:	65687779 	strbvs	r7, [r8, #-1913]!	; 0x779
    b478:	202c6572 	eorcs	r6, ip, r2, ror r5
    b47c:	68746167 	ldmdavs	r4!, {r0, r1, r2, r5, r6, r8, sp, lr}^
    b480:	64657265 	strbtvs	r7, [r5], #-613	; 0x265
    b484:	206e6920 	rsbcs	r6, lr, r0, lsr #18
    b488:	71696c63 	cmnvc	r9, r3, ror #24
    b48c:	20736575 	rsbscs	r6, r3, r5, ror r5
    b490:	756f7261 	strbvc	r7, [pc, #-609]!	; b237 <spi0+0xa2f>
    b494:	7020646e 	eorvc	r6, r0, lr, ror #8
    b498:	65636569 	strbvs	r6, [r3, #-1385]!	; 0x569
    b49c:	666f2073 			; <UNDEFINED> instruction: 0x666f2073
    b4a0:	72756620 	rsbsvc	r6, r5, #32, 12	; 0x2000000
    b4a4:	7574696e 	ldrbvc	r6, [r4, #-2414]!	; 0x96e
    b4a8:	6c206572 	cfstr32vs	mvfx6, [r0], #-456	; 0xfffffe38
    b4ac:	20656b69 	rsbcs	r6, r5, r9, ror #22
    b4b0:	676e756a 	strbvs	r7, [lr, -sl, ror #10]!
    b4b4:	6320656c 	teqvs	r0, #108, 10	; 0x1b000000
    b4b8:	20737461 	rsbscs	r7, r3, r1, ror #8
    b4bc:	756f7261 	strbvc	r7, [pc, #-609]!	; b263 <spi0+0xa5b>
    b4c0:	6120646e 	teqvs	r0, lr, ror #8
    b4c4:	65727420 	ldrbvs	r7, [r2, #-1056]!	; 0x420
    b4c8:	4e202e65 	cdpmi	14, 2, cr2, cr0, cr5, {3}
    b4cc:	73206f65 	teqvc	r0, #404	; 0x194
    b4d0:	646e6174 	strbtvs	r6, [lr], #-372	; 0x174
    b4d4:	67612073 			; <UNDEFINED> instruction: 0x67612073
    b4d8:	736e6961 	cmnvc	lr, #1589248	; 0x184000
    b4dc:	20612074 	rsbcs	r2, r1, r4, ror r0
    b4e0:	6c6c6177 	stfvse	f6, [ip], #-476	; 0xfffffe24
    b4e4:	6c61202c 	stclvs	0, cr2, [r1], #-176	; 0xffffff50
    b4e8:	2c656e6f 	stclcs	14, cr6, [r5], #-444	; 0xfffffe44
    b4ec:	70697320 	rsbvc	r7, r9, r0, lsr #6
    b4f0:	676e6970 			; <UNDEFINED> instruction: 0x676e6970
    b4f4:	6f726620 	svcvs	0x00726620
    b4f8:	2061206d 	rsbcs	r2, r1, sp, rrx
    b4fc:	74746f62 	ldrbtvc	r6, [r4], #-3938	; 0xf62
    b500:	6f20656c 	svcvs	0x0020656c
    b504:	65622066 	strbvs	r2, [r2, #-102]!	; 0x66
    b508:	202c7265 	eorcs	r7, ip, r5, ror #4
    b50c:	6c656566 	cfstr64vs	mvdx6, [r5], #-408	; 0xfffffe68
    b510:	20676e69 	rsbcs	r6, r7, r9, ror #28
    b514:	706d6f63 	rsbvc	r6, sp, r3, ror #30
    b518:	6574656c 	ldrbvs	r6, [r4, #-1388]!	; 0x56c
    b51c:	6f20796c 	svcvs	0x0020796c
    b520:	6f207475 	svcvs	0x00207475
    b524:	6c702066 	ldclvs	0, cr2, [r0], #-408	; 0xfffffe68
    b528:	2c656361 	stclcs	3, cr6, [r5], #-388	; 0xfffffe7c
    b52c:	20656820 	rsbcs	r6, r5, r0, lsr #16
    b530:	61207369 	teqvs	r0, r9, ror #6
    b534:	74756f62 	ldrbtvc	r6, [r5], #-3938	; 0xf62
    b538:	206f7420 	rsbcs	r7, pc, r0, lsr #8
    b53c:	7661656c 	strbtvc	r6, [r1], -ip, ror #10
    b540:	68772065 	ldmdavs	r7!, {r0, r2, r5, r6, sp}^
    b544:	68206e65 	stmdavs	r0!, {r0, r2, r5, r6, r9, sl, fp, sp, lr}
    b548:	6f6e2065 	svcvs	0x006e2065
    b54c:	65636974 	strbvs	r6, [r3, #-2420]!	; 0x974
    b550:	20612073 	rsbcs	r2, r1, r3, ror r0
    b554:	616d6f77 	smcvs	55031	; 0xd6f7
    b558:	7473206e 	ldrbtvc	r2, [r3], #-110	; 0x6e
    b55c:	6e697261 	cdpvs	2, 6, cr7, cr9, cr1, {3}
    b560:	74612067 	strbtvc	r2, [r1], #-103	; 0x67
    b564:	6d696820 	stclvs	8, cr6, [r9, #-128]!	; 0xffffff80
    b568:	6854202e 	ldmdavs	r4, {r1, r2, r3, r5, sp}^
    b56c:	6f772065 	svcvs	0x00772065
    b570:	206e616d 	rsbcs	r6, lr, sp, ror #2
    b574:	54207369 	strtpl	r7, [r0], #-873	; 0x369
    b578:	696e6972 	stmdbvs	lr!, {r1, r4, r5, r6, r8, fp, sp, lr}^
    b57c:	202e7974 	eorcs	r7, lr, r4, ror r9
    b580:	20656853 	rsbcs	r6, r5, r3, asr r8
    b584:	6b6c6177 	blvs	1b23b68 <__bss_end__+0x1b16ca0>
    b588:	74732073 	ldrbtvc	r2, [r3], #-115	; 0x73
    b58c:	67696172 			; <UNDEFINED> instruction: 0x67696172
    b590:	75207468 	strvc	r7, [r0, #-1128]!	; 0x468
    b594:	6f742070 	svcvs	0x00742070
    b598:	6d696820 	stclvs	8, cr6, [r9, #-128]!	; 0xffffff80
    b59c:	6e49202e 	cdpvs	0, 4, cr2, cr9, cr14, {1}
    b5a0:	65687420 	strbvs	r7, [r8, #-1056]!	; 0x420
    b5a4:	61656e20 	cmnvs	r5, r0, lsr #28
    b5a8:	74736572 	ldrbtvc	r6, [r3], #-1394	; 0x572
    b5ac:	6f6f7220 	svcvs	0x006f7220
    b5b0:	73202c6d 	teqvc	r0, #27904	; 0x6d00
    b5b4:	6f646168 	svcvs	0x00646168
    b5b8:	696c2d77 	stmdbvs	ip!, {r0, r1, r2, r4, r5, r6, r8, sl, fp, sp}^
    b5bc:	6620656b 	strtvs	r6, [r0], -fp, ror #10
    b5c0:	72756769 	rsbsvc	r6, r5, #27525120	; 0x1a40000
    b5c4:	67207365 	strvs	r7, [r0, -r5, ror #6]!
    b5c8:	646e6972 	strbtvs	r6, [lr], #-2418	; 0x972
    b5cc:	61676120 	cmnvs	r7, r0, lsr #2
    b5d0:	74736e69 	ldrbtvc	r6, [r3], #-3689	; 0xe69
    b5d4:	63616520 	cmnvs	r1, #32, 10	; 0x8000000
    b5d8:	746f2068 	strbtvc	r2, [pc], #-104	; b5e0 <spi0+0xdd8>
    b5dc:	20726568 	rsbscs	r6, r2, r8, ror #10
    b5e0:	74206f74 	strtvc	r6, [r0], #-3956	; 0xf74
    b5e4:	70206568 	eorvc	r6, r0, r8, ror #10
    b5e8:	6d75656e 	cfldr64vs	mvdx6, [r5, #-440]!	; 0xfffffe48
    b5ec:	63697461 	cmnvs	r9, #1627389952	; 0x61000000
    b5f0:	61656220 	cmnvs	r5, r0, lsr #4
    b5f4:	666f2074 			; <UNDEFINED> instruction: 0x666f2074
    b5f8:	444e4920 	strbmi	r4, [lr], #-2336	; 0x920
    b5fc:	52545355 	subspl	r5, r4, #1409286145	; 0x54000001
    b600:	204c4149 	subcs	r4, ip, r9, asr #2
    b604:	4953554d 	ldmdbmi	r3, {r0, r2, r3, r6, r8, sl, ip, lr}^
    b608:	54202e43 	strtpl	r2, [r0], #-3651	; 0xe43
    b60c:	494e4952 	stmdbmi	lr, {r1, r4, r6, r8, fp, lr}^
    b610:	48205954 	stmdami	r0!, {r2, r4, r6, r8, fp, ip, lr}
    b614:	6f6c6c65 	svcvs	0x006c6c65
    b618:	654e202c 	strbvs	r2, [lr, #-44]	; 0x2c
    b61c:	4e202e6f 	cdpmi	14, 2, cr2, cr0, cr15, {3}
    b620:	48204f45 	stmdami	r0!, {r0, r2, r6, r8, r9, sl, fp, lr}
    b624:	6420776f 	strtvs	r7, [r0], #-1903	; 0x76f
    b628:	79206469 	stmdbvc	r0!, {r0, r3, r5, r6, sl, sp, lr}
    b62c:	6b20756f 	blvs	828bf0 <__bss_end__+0x81bd28>
    b630:	20776f6e 	rsbscs	r6, r7, lr, ror #30
    b634:	74616874 	strbtvc	r6, [r1], #-2164	; 0x874
    b638:	202d2d20 	eorcs	r2, sp, r0, lsr #26
    b63c:	4e495254 	mcrmi	2, 2, r5, cr9, cr4, {2}
    b640:	20595449 	subscs	r5, r9, r9, asr #8
    b644:	6e6b2049 	cdpvs	0, 6, cr2, cr11, cr9, {2}
    b648:	6120776f 	teqvs	r0, pc, ror #14
    b64c:	746f6c20 	strbtvc	r6, [pc], #-3104	; b654 <spi0+0xe4c>
    b650:	6f626120 	svcvs	0x00626120
    b654:	79207475 	stmdbvc	r0!, {r0, r2, r4, r5, r6, sl, ip, sp, lr}
    b658:	202e756f 	eorcs	r7, lr, pc, ror #10
    b65c:	65762749 	ldrbvs	r2, [r6, #-1865]!	; 0x749
    b660:	65656220 	strbvs	r6, [r5, #-544]!	; 0x220
    b664:	6177206e 	cmnvs	r7, lr, rrx
    b668:	6e69746e 	cdpvs	4, 6, cr7, cr9, cr14, {3}
    b66c:	6f742067 	svcvs	0x00742067
    b670:	65656d20 	strbvs	r6, [r5, #-3360]!	; 0xd20
    b674:	6f792074 	svcvs	0x00792074
    b678:	6f662075 	svcvs	0x00662075
    b67c:	6f732072 	svcvs	0x00732072
    b680:	7420656d 	strtvc	r6, [r0], #-1389	; 0x56d
    b684:	2e656d69 	cdpcs	13, 6, cr6, cr5, cr9, {3}
    b688:	4f454e20 	svcmi	0x00454e20
    b68c:	6f685720 	svcvs	0x00685720
    b690:	65726120 	ldrbvs	r6, [r2, #-288]!	; 0x120
    b694:	756f7920 	strbvc	r7, [pc, #-2336]!	; ad7c <spi0+0x574>
    b698:	5254203f 	subspl	r2, r4, #63	; 0x3f
    b69c:	54494e49 	strbpl	r4, [r9], #-3657	; 0xe49
    b6a0:	794d2059 	stmdbvc	sp, {r0, r3, r4, r6, sp}^
    b6a4:	6d616e20 	stclvs	14, cr6, [r1, #-128]!	; 0xffffff80
    b6a8:	73692065 	cmnvc	r9, #101	; 0x65
    b6ac:	69725420 	ldmdbvs	r2!, {r5, sl, ip, lr}^
    b6b0:	7974696e 	ldmdbvc	r4!, {r1, r2, r3, r5, r6, r8, fp, sp, lr}^
    b6b4:	454e202e 	strbmi	r2, [lr, #-46]	; 0x2e
    b6b8:	7254204f 	subsvc	r2, r4, #79	; 0x4f
    b6bc:	74696e69 	strbtvc	r6, [r9], #-3689	; 0xe69
    b6c0:	54203f79 	strtpl	r3, [r0], #-3961	; 0xf79
    b6c4:	54206568 	strtpl	r6, [r0], #-1384	; 0x568
    b6c8:	696e6972 	stmdbvs	lr!, {r1, r4, r5, r6, r8, fp, sp, lr}^
    b6cc:	203f7974 	eorscs	r7, pc, r4, ror r9	; <UNPREDICTABLE>
    b6d0:	20656854 	rsbcs	r6, r5, r4, asr r8
    b6d4:	6e697254 	mcrvs	2, 3, r7, cr9, cr4, {2}
    b6d8:	20797469 	rsbscs	r7, r9, r9, ror #8
    b6dc:	74616874 	strbtvc	r6, [r1], #-2164	; 0x874
    b6e0:	61726320 	cmnvs	r2, r0, lsr #6
    b6e4:	64656b63 	strbtvs	r6, [r5], #-2915	; 0xb63
    b6e8:	65687420 	strbvs	r7, [r8, #-1056]!	; 0x420
    b6ec:	522e4920 	eorpl	r4, lr, #32, 18	; 0x80000
    b6f0:	202e532e 	eorcs	r5, lr, lr, lsr #6
    b6f4:	736e614b 	cmnvc	lr, #-1073741806	; 0xc0000012
    b6f8:	43207361 	teqmi	r0, #-2080374783	; 0x84000001
    b6fc:	20797469 	rsbscs	r7, r9, r9, ror #8
    b700:	61422d44 	cmpvs	r2, r4, asr #26
    b704:	203f6573 	eorscs	r6, pc, r3, ror r5	; <UNPREDICTABLE>
    b708:	4e495254 	mcrmi	2, 2, r5, cr9, cr4, {2}
    b70c:	20595449 	subscs	r5, r9, r9, asr #8
    b710:	74616854 	strbtvc	r6, [r1], #-2132	; 0x854
    b714:	73617720 	cmnvc	r1, #32, 14	; 0x800000
    b718:	6c206120 	stfvss	f6, [r0], #-128	; 0xffffff80
    b71c:	20676e6f 	rsbcs	r6, r7, pc, ror #28
    b720:	656d6974 	strbvs	r6, [sp, #-2420]!	; 0x974
    b724:	6f676120 	svcvs	0x00676120
    b728:	454e202e 	strbmi	r2, [lr, #-46]	; 0x2e
    b72c:	6547204f 	strbvs	r2, [r7, #-79]	; 0x4f
    b730:	757a2d65 	ldrbvc	r2, [sl, #-3429]!	; 0xd65
    b734:	54202e73 	strtpl	r2, [r0], #-3699	; 0xe73
    b738:	494e4952 	stmdbmi	lr, {r1, r4, r6, r8, fp, lr}^
    b73c:	57205954 			; <UNDEFINED> instruction: 0x57205954
    b740:	3f746168 	svccc	0x00746168
    b744:	4f454e20 	svcmi	0x00454e20
    b748:	6a204920 	bvs	81dbd0 <__bss_end__+0x810d08>
    b74c:	20747375 	rsbscs	r7, r4, r5, ror r3
    b750:	756f6874 	strbvc	r6, [pc, #-2164]!	; aee4 <spi0+0x6dc>
    b754:	2e746867 	cdpcs	8, 7, cr6, cr4, cr7, {3}
    b758:	79202e2e 	stmdbvc	r0!, {r1, r2, r3, r5, r9, sl, fp, sp}
    b75c:	7720756f 	strvc	r7, [r0, -pc, ror #10]!
    b760:	20657265 	rsbcs	r7, r5, r5, ror #4
    b764:	75672061 	strbvc	r2, [r7, #-97]!	; 0x61
    b768:	54202e79 	strtpl	r2, [r0], #-3705	; 0xe79
    b76c:	494e4952 	stmdbmi	lr, {r1, r4, r6, r8, fp, lr}^
    b770:	4d205954 	stcmi	9, cr5, [r0, #-336]!	; 0xfffffeb0
    b774:	2074736f 	rsbscs	r7, r4, pc, ror #6
    b778:	73797567 	cmnvc	r9, #432013312	; 0x19c00000
    b77c:	2e6f6420 	cdpcs	4, 6, cr6, cr15, cr0, {1}
    b780:	6f654e20 	svcvs	0x00654e20
    b784:	20736920 	rsbscs	r6, r3, r0, lsr #18
    b788:	696c2061 	stmdbvs	ip!, {r0, r5, r6, sp}^
    b78c:	656c7474 	strbvs	r7, [ip, #-1140]!	; 0x474
    b790:	626d6520 	rsbvs	r6, sp, #32, 10	; 0x8000000
    b794:	61727261 	cmnvs	r2, r1, ror #4
    b798:	64657373 	strbtvs	r7, [r5], #-883	; 0x373
    b79c:	454e202e 	strbmi	r2, [lr, #-46]	; 0x2e
    b7a0:	6f44204f 	svcvs	0x0044204f
    b7a4:	756f7920 	strbvc	r7, [pc, #-2336]!	; ae8c <spi0+0x684>
    b7a8:	6e617720 	cdpvs	7, 6, cr7, cr1, cr0, {1}
    b7ac:	6f742074 	svcvs	0x00742074
    b7b0:	206f6720 	rsbcs	r6, pc, r0, lsr #14
    b7b4:	65726f73 	ldrbvs	r6, [r2, #-3955]!	; 0xf73
    b7b8:	72656877 	rsbvc	r6, r5, #7798784	; 0x770000
    b7bc:	6e612065 	cdpvs	0, 6, cr2, cr1, cr5, {3}
    b7c0:	61742064 	cmnvs	r4, r4, rrx
    b7c4:	203f6b6c 	eorscs	r6, pc, ip, ror #22
    b7c8:	4e495254 	mcrmi	2, 2, r5, cr9, cr4, {2}
    b7cc:	20595449 	subscs	r5, r9, r9, asr #8
    b7d0:	202e6f4e 	eorcs	r6, lr, lr, asr #30
    b7d4:	73277449 	teqvc	r7, #1224736768	; 0x49000000
    b7d8:	66617320 	strbtvs	r7, [r1], -r0, lsr #6
    b7dc:	65682065 	strbvs	r2, [r8, #-101]!	; 0x65
    b7e0:	61206572 	teqvs	r0, r2, ror r5
    b7e4:	4920646e 	stmdbmi	r0!, {r1, r2, r3, r5, r6, sl, sp, lr}
    b7e8:	6e6f6420 	cdpvs	4, 6, cr6, cr15, cr0, {1}
    b7ec:	68207427 	stmdavs	r0!, {r0, r1, r2, r5, sl, ip, sp, lr}
    b7f0:	20657661 	rsbcs	r7, r5, r1, ror #12
    b7f4:	6863756d 	stmdavs	r3!, {r0, r2, r3, r5, r6, r8, sl, ip, sp, lr}^
    b7f8:	6d697420 	cfstrdvs	mvd7, [r9, #-128]!	; 0xffffff80
    b7fc:	54202e65 	strtpl	r2, [r0], #-3685	; 0xe65
    b800:	4d206568 	cfstr32mi	mvfx6, [r0, #-416]!	; 0xfffffe60
    b804:	43495355 	movtmi	r5, #37717	; 0x9355
    b808:	20736920 	rsbscs	r6, r3, r0, lsr #18
    b80c:	6c206f73 	stcvs	15, cr6, [r0], #-460	; 0xfffffe34
    b810:	2064756f 	rsbcs	r7, r4, pc, ror #10
    b814:	79656874 	stmdbvc	r5!, {r2, r4, r5, r6, fp, sp, lr}^
    b818:	73756d20 	cmnvc	r5, #32, 26	; 0x800
    b81c:	74732074 	ldrbtvc	r2, [r3], #-116	; 0x74
    b820:	20646e61 	rsbcs	r6, r4, r1, ror #28
    b824:	79726576 	ldmdbvc	r2!, {r1, r2, r4, r5, r6, r8, sl, sp, lr}^
    b828:	6f6c6320 	svcvs	0x006c6320
    b82c:	202c6573 	eorcs	r6, ip, r3, ror r5
    b830:	6b6c6174 	blvs	1b23e08 <__bss_end__+0x1b16f40>
    b834:	20676e69 	rsbcs	r6, r7, r9, ror #28
    b838:	65726964 	ldrbvs	r6, [r2, #-2404]!	; 0x964
    b83c:	796c7463 	stmdbvc	ip!, {r0, r1, r5, r6, sl, ip, sp, lr}^
    b840:	746e6920 	strbtvc	r6, [lr], #-2336	; 0x920
    b844:	6165206f 	cmnvs	r5, pc, rrx
    b848:	6f206863 	svcvs	0x00206863
    b84c:	72656874 	rsbvc	r6, r5, #116, 16	; 0x740000
    b850:	65207327 	strvs	r7, [r0, #-807]!	; 0x327
    b854:	202e7261 	eorcs	r7, lr, r1, ror #4
    b858:	204f454e 	subcs	r4, pc, lr, asr #10
    b85c:	74616854 	strbtvc	r6, [r1], #-2132	; 0x854
    b860:	73617720 	cmnvc	r1, #32, 14	; 0x800000
    b864:	756f7920 	strbvc	r7, [pc, #-2336]!	; af4c <spi0+0x744>
    b868:	206e6f20 	rsbcs	r6, lr, r0, lsr #30
    b86c:	20656874 	rsbcs	r6, r5, r4, ror r8
    b870:	72616f62 	rsbvc	r6, r1, #392	; 0x188
    b874:	6f742064 	svcvs	0x00742064
    b878:	6867696e 	stmdavs	r7!, {r1, r2, r3, r5, r6, r8, fp, sp, lr}^
    b87c:	54202e74 	strtpl	r2, [r0], #-3700	; 0xe74
    b880:	20746168 	rsbscs	r6, r4, r8, ror #2
    b884:	20736177 	rsbscs	r6, r3, r7, ror r1
    b888:	72756f79 	rsbsvc	r6, r5, #484	; 0x1e4
    b88c:	746f6e20 	strbtvc	r6, [pc], #-3616	; b894 <spi0+0x108c>
    b890:	77202c65 	strvc	r2, [r0, -r5, ror #24]!
    b894:	276e7361 	strbcs	r7, [lr, -r1, ror #6]!
    b898:	74692074 	strbtvc	r2, [r9], #-116	; 0x74
    b89c:	5254203f 	subspl	r2, r4, #63	; 0x3f
    b8a0:	54494e49 	strbpl	r4, [r9], #-3657	; 0xe49
    b8a4:	20492059 	subcs	r2, r9, r9, asr r0
    b8a8:	20646168 	rsbcs	r6, r4, r8, ror #2
    b8ac:	67206f74 			; <UNDEFINED> instruction: 0x67206f74
    b8b0:	6c626d61 	stclvs	13, cr6, [r2], #-388	; 0xfffffe7c
    b8b4:	68742065 	ldmdavs	r4!, {r0, r2, r5, r6, sp}^
    b8b8:	79207461 	stmdbvc	r0!, {r0, r5, r6, sl, ip, sp, lr}
    b8bc:	7720756f 	strvc	r7, [r0, -pc, ror #10]!
    b8c0:	646c756f 	strbtvs	r7, [ip], #-1391	; 0x56f
    b8c4:	65657320 	strbvs	r7, [r5, #-800]!	; 0x320
    b8c8:	646e6120 	strbtvs	r6, [lr], #-288	; 0x120
    b8cc:	65687420 	strbvs	r7, [r8, #-1056]!	; 0x420
    b8d0:	6f772079 	svcvs	0x00772079
    b8d4:	6e646c75 	mcrvs	12, 3, r6, cr4, cr5, {3}
    b8d8:	202e7427 	eorcs	r7, lr, r7, lsr #8
    b8dc:	204f454e 	subcs	r4, pc, lr, asr #10
    b8e0:	206f6857 	rsbcs	r6, pc, r7, asr r8	; <UNPREDICTABLE>
    b8e4:	6c756f77 	ldclvs	15, cr6, [r5], #-476	; 0xfffffe24
    b8e8:	74276e64 	strtvc	r6, [r7], #-3684	; 0xe64
    b8ec:	5254203f 	subspl	r2, r4, #63	; 0x3f
    b8f0:	54494e49 	strbpl	r4, [r9], #-3657	; 0xe49
    b8f4:	20492059 	subcs	r2, r9, r9, asr r0
    b8f8:	276e6163 	strbcs	r6, [lr, -r3, ror #2]!
    b8fc:	78652074 	stmdavc	r5!, {r2, r4, r5, r6, sp}^
    b900:	69616c70 	stmdbvs	r1!, {r4, r5, r6, sl, fp, sp, lr}^
    b904:	7665206e 	strbtvc	r2, [r5], -lr, rrx
    b908:	74797265 	ldrbtvc	r7, [r9], #-613	; 0x265
    b90c:	676e6968 	strbvs	r6, [lr, -r8, ror #18]!
    b910:	206f7420 	rsbcs	r7, pc, r0, lsr #8
    b914:	2e756f79 	mrccs	15, 3, r6, cr5, cr9, {3}
    b918:	6d274920 	stcvs	9, cr4, [r7, #-128]!	; 0xffffff80
    b91c:	72757320 	rsbsvc	r7, r5, #32, 6	; 0x80000000
    b920:	68742065 	ldmdavs	r4!, {r0, r2, r5, r6, sp}^
    b924:	69207461 	stmdbvs	r0!, {r0, r5, r6, sl, ip, sp, lr}
    b928:	20732774 	rsbscs	r2, r3, r4, ror r7
    b92c:	206c6c61 	rsbcs	r6, ip, r1, ror #24
    b930:	6e696f67 	cdpvs	15, 6, cr6, cr9, cr7, {3}
    b934:	6f742067 	svcvs	0x00742067
    b938:	65657320 	strbvs	r7, [r5, #-800]!	; 0x320
    b93c:	6576206d 	ldrbvs	r2, [r6, #-109]!	; 0x6d
    b940:	73207972 	teqvc	r0, #1867776	; 0x1c8000
    b944:	6e617274 	mcrvs	2, 3, r7, cr1, cr4, {3}
    b948:	202c6567 	eorcs	r6, ip, r7, ror #10
    b94c:	20747562 	rsbscs	r7, r4, r2, ror #10
    b950:	72622049 	rsbvc	r2, r2, #73	; 0x49
    b954:	6867756f 	stmdavs	r7!, {r0, r1, r2, r3, r5, r6, r8, sl, ip, sp, lr}^
    b958:	6f792074 	svcvs	0x00792074
    b95c:	65682075 	strbvs	r2, [r8, #-117]!	; 0x75
    b960:	74206572 	strtvc	r6, [r0], #-1394	; 0x572
    b964:	6177206f 	cmnvs	r7, pc, rrx
    b968:	79206e72 	stmdbvc	r0!, {r1, r4, r5, r6, r9, sl, fp, sp, lr}
    b96c:	202c756f 	eorcs	r7, ip, pc, ror #10
    b970:	2e6f654e 	cdpcs	5, 6, cr6, cr15, cr14, {2}
    b974:	756f5920 	strbvc	r5, [pc, #-2336]!	; b05c <spi0+0x854>
    b978:	65726120 	ldrbvs	r6, [r2, #-288]!	; 0x120
    b97c:	206e6920 	rsbcs	r6, lr, r0, lsr #18
    b980:	6f6c2061 	svcvs	0x006c2061
    b984:	666f2074 			; <UNDEFINED> instruction: 0x666f2074
    b988:	6e616420 	cdpvs	4, 6, cr6, cr1, cr0, {1}
    b98c:	2e726567 	cdpcs	5, 7, cr6, cr2, cr7, {3}
    b990:	4f454e20 	svcmi	0x00454e20
    b994:	61685720 	cmnvs	r8, r0, lsr #14
    b998:	57203f74 			; <UNDEFINED> instruction: 0x57203f74
    b99c:	203f7968 	eorscs	r7, pc, r8, ror #18
    b9a0:	4e495254 	mcrmi	2, 2, r5, cr9, cr4, {2}
    b9a4:	20595449 	subscs	r5, r9, r9, asr #8
    b9a8:	79656854 	stmdbvc	r5!, {r2, r4, r6, fp, sp, lr}^
    b9ac:	20657227 	rsbcs	r7, r5, r7, lsr #4
    b9b0:	63746177 	cmnvs	r4, #-1073741795	; 0xc000001d
    b9b4:	676e6968 	strbvs	r6, [lr, -r8, ror #18]!
    b9b8:	756f7920 	strbvc	r7, [pc, #-2336]!	; b0a0 <spi0+0x898>
    b9bc:	6f53202e 	svcvs	0x0053202e
    b9c0:	6874656d 	ldmdavs	r4!, {r0, r2, r3, r5, r6, r8, sl, sp, lr}^
    b9c4:	20676e69 	rsbcs	r6, r7, r9, ror #28
    b9c8:	70706168 	rsbsvc	r6, r0, r8, ror #2
    b9cc:	64656e65 	strbtvs	r6, [r5], #-3685	; 0xe65
    b9d0:	646e6120 	strbtvs	r6, [lr], #-288	; 0x120
    b9d4:	65687420 	strbvs	r7, [r8, #-1056]!	; 0x420
    b9d8:	6f662079 	svcvs	0x00662079
    b9dc:	20646e75 	rsbcs	r6, r4, r5, ror lr
    b9e0:	2074756f 	rsbscs	r7, r4, pc, ror #10
    b9e4:	756f6261 	strbvc	r6, [pc, #-609]!	; b78b <spi0+0xf83>
    b9e8:	6f792074 	svcvs	0x00792074
    b9ec:	4e202e75 	mcrmi	14, 1, r2, cr0, cr5, {3}
    b9f0:	616d726f 	cmnvs	sp, pc, ror #4
    b9f4:	2c796c6c 	ldclcs	12, cr6, [r9], #-432	; 0xfffffe50
    b9f8:	20666920 	rsbcs	r6, r6, r0, lsr #18
    b9fc:	2072756f 	rsbscs	r7, r2, pc, ror #10
    ba00:	67726174 			; <UNDEFINED> instruction: 0x67726174
    ba04:	69207465 	stmdbvs	r0!, {r0, r2, r5, r6, sl, ip, sp, lr}
    ba08:	78652073 	stmdavc	r5!, {r0, r1, r4, r5, r6, sp}^
    ba0c:	65736f70 	ldrbvs	r6, [r3, #-3952]!	; 0xf70
    ba10:	65772064 	ldrbvs	r2, [r7, #-100]!	; 0x64
    ba14:	74656c20 	strbtvc	r6, [r5], #-3104	; 0xc20
    ba18:	20746920 	rsbscs	r6, r4, r0, lsr #18
    ba1c:	202e6f67 	eorcs	r6, lr, r7, ror #30
    ba20:	20747542 	rsbscs	r7, r4, r2, asr #10
    ba24:	73696874 	cmnvc	r9, #116, 16	; 0x740000
    ba28:	6d697420 	cfstrdvs	mvd7, [r9, #-128]!	; 0xffffff80
    ba2c:	77202c65 	strvc	r2, [r0, -r5, ror #24]!
    ba30:	61632065 	cmnvs	r3, r5, rrx
    ba34:	2074276e 	rsbscs	r2, r4, lr, ror #14
    ba38:	74206f64 	strtvc	r6, [r0], #-3940	; 0xf64
    ba3c:	2e746168 	rpwcssz	f6, f4, #0.0
    ba40:	4f454e20 	svcmi	0x00454e20
    ba44:	64204920 	strtvs	r4, [r0], #-2336	; 0x920
    ba48:	74276e6f 	strtvc	r6, [r7], #-3695	; 0xe6f
    ba4c:	646e7520 	strbtvs	r7, [lr], #-1312	; 0x520
    ba50:	74737265 	ldrbtvc	r7, [r3], #-613	; 0x265
    ba54:	20646e61 	rsbcs	r6, r4, r1, ror #28
    ba58:	54202d2d 	strtpl	r2, [r0], #-3373	; 0xd2d
    ba5c:	494e4952 	stmdbmi	lr, {r1, r4, r6, r8, fp, lr}^
    ba60:	59205954 	stmdbpl	r0!, {r2, r4, r6, r8, fp, ip, lr}
    ba64:	6320756f 	teqvs	r0, #465567744	; 0x1bc00000
    ba68:	20656d61 	rsbcs	r6, r5, r1, ror #26
    ba6c:	65726568 	ldrbvs	r6, [r2, #-1384]!	; 0x568
    ba70:	63656220 	cmnvs	r5, #32, 4
    ba74:	65737561 	ldrbvs	r7, [r3, #-1377]!	; 0x561
    ba78:	756f7920 	strbvc	r7, [pc, #-2336]!	; b160 <spi0+0x958>
    ba7c:	6e617720 	cdpvs	7, 6, cr7, cr1, cr0, {1}
    ba80:	20646574 	rsbcs	r6, r4, r4, ror r5
    ba84:	6b206f74 	blvs	82785c <__bss_end__+0x81a994>
    ba88:	20776f6e 	rsbscs	r6, r7, lr, ror #30
    ba8c:	20656874 	rsbcs	r6, r5, r4, ror r8
    ba90:	77736e61 	ldrbvc	r6, [r3, -r1, ror #28]!
    ba94:	74207265 	strtvc	r7, [r0], #-613	; 0x265
    ba98:	2061206f 	rsbcs	r2, r1, pc, rrx
    ba9c:	6b636168 	blvs	18e4044 <__bss_end__+0x18d717c>
    baa0:	73277265 	teqvc	r7, #1342177286	; 0x50000006
    baa4:	65757120 	ldrbvs	r7, [r5, #-288]!	; 0x120
    baa8:	6f697473 	svcvs	0x00697473
    baac:	4e202e6e 	cdpmi	14, 2, cr2, cr0, cr14, {3}
    bab0:	54204f45 	strtpl	r4, [r0], #-3909	; 0xf45
    bab4:	4d206568 	cfstr32mi	mvfx6, [r0, #-416]!	; 0xfffffe60
    bab8:	69727461 	ldmdbvs	r2!, {r0, r5, r6, sl, ip, sp, lr}^
    babc:	57202e78 			; <UNDEFINED> instruction: 0x57202e78
    bac0:	20746168 	rsbscs	r6, r4, r8, ror #2
    bac4:	74207369 	strtvc	r7, [r0], #-873	; 0x369
    bac8:	4d206568 	cfstr32mi	mvfx6, [r0, #-416]!	; 0xfffffe60
    bacc:	69727461 	ldmdbvs	r2!, {r0, r5, r6, sl, ip, sp, lr}^
    bad0:	54203f78 	strtpl	r3, [r0], #-3960	; 0xf78
    bad4:	494e4952 	stmdbmi	lr, {r1, r4, r6, r8, fp, lr}^
    bad8:	54205954 	strtpl	r5, [r0], #-2388	; 0x954
    badc:	766c6577 			; <UNDEFINED> instruction: 0x766c6577
    bae0:	65792065 	ldrbvs	r2, [r9, #-101]!	; 0x65
    bae4:	20737261 	rsbscs	r7, r3, r1, ror #4
    bae8:	206f6761 	rsbcs	r6, pc, r1, ror #14
    baec:	656d2049 	strbvs	r2, [sp, #-73]!	; 0x49
    baf0:	20612074 	rsbcs	r2, r1, r4, ror r0
    baf4:	2c6e616d 	stfcse	f6, [lr], #-436	; 0xfffffe4c
    baf8:	67206120 	strvs	r6, [r0, -r0, lsr #2]!
    bafc:	74616572 	strbtvc	r6, [r1], #-1394	; 0x572
    bb00:	6e616d20 	cdpvs	13, 6, cr6, cr1, cr0, {1}
    bb04:	6877202c 	ldmdavs	r7!, {r2, r3, r5, sp}^
    bb08:	6173206f 	cmnvs	r3, pc, rrx
    bb0c:	74206469 	strtvc	r6, [r0], #-1129	; 0x469
    bb10:	20746168 	rsbscs	r6, r4, r8, ror #2
    bb14:	6f206f6e 	svcvs	0x00206f6e
    bb18:	6320656e 	teqvs	r0, #461373440	; 0x1b800000
    bb1c:	646c756f 	strbtvs	r7, [ip], #-1391	; 0x56f
    bb20:	20656220 	rsbcs	r6, r5, r0, lsr #4
    bb24:	646c6f74 	strbtvs	r6, [ip], #-3956	; 0xf74
    bb28:	65687420 	strbvs	r7, [r8, #-1056]!	; 0x420
    bb2c:	736e6120 	cmnvc	lr, #32, 2
    bb30:	20726577 	rsbscs	r6, r2, r7, ror r5
    bb34:	74206f74 	strtvc	r6, [r0], #-3956	; 0xf74
    bb38:	20746168 	rsbscs	r6, r4, r8, ror #2
    bb3c:	73657571 	cmnvc	r5, #473956352	; 0x1c400000
    bb40:	6e6f6974 	mcrvs	9, 3, r6, cr15, cr4, {3}
    bb44:	6854202e 	ldmdavs	r4, {r1, r2, r3, r5, sp}^
    bb48:	74207461 	strtvc	r7, [r0], #-1121	; 0x461
    bb4c:	20796568 	rsbscs	r6, r9, r8, ror #10
    bb50:	20646168 	rsbcs	r6, r4, r8, ror #2
    bb54:	73206f74 	teqvc	r0, #116, 30	; 0x1d0
    bb58:	69206565 	stmdbvs	r0!, {r0, r2, r5, r6, r8, sl, sp, lr}
    bb5c:	74202c74 	strtvc	r2, [r0], #-3188	; 0xc74
    bb60:	6562206f 	strbvs	r2, [r2, #-111]!	; 0x6f
    bb64:	7665696c 	strbtvc	r6, [r5], -ip, ror #18
    bb68:	74692065 	strbtvc	r2, [r9], #-101	; 0x65
    bb6c:	6548202e 	strbvs	r2, [r8, #-46]	; 0x2e
    bb70:	6f622072 	svcvs	0x00622072
    bb74:	69207964 	stmdbvs	r0!, {r2, r5, r6, r8, fp, ip, sp, lr}
    bb78:	67612073 			; <UNDEFINED> instruction: 0x67612073
    bb7c:	736e6961 	cmnvc	lr, #1589248	; 0x184000
    bb80:	69682074 	stmdbvs	r8!, {r2, r4, r5, r6, sp}^
    bb84:	68203b73 	stmdavs	r0!, {r0, r1, r4, r5, r6, r8, r9, fp, ip, sp}
    bb88:	6c207265 	sfmvs	f7, 4, [r0], #-404	; 0xfffffe6c
    bb8c:	20737069 	rsbscs	r7, r3, r9, rrx
    bb90:	79726576 	ldmdbvc	r2!, {r1, r2, r4, r5, r6, r8, sl, sp, lr}^
    bb94:	6f6c6320 	svcvs	0x006c6320
    bb98:	74206573 	strtvc	r6, [r0], #-1395	; 0x573
    bb9c:	6968206f 	stmdbvs	r8!, {r0, r1, r2, r3, r5, r6, sp}^
    bba0:	61652073 	smcvs	20995	; 0x5203
    bba4:	54202e72 	strtpl	r2, [r0], #-3698	; 0xe72
    bba8:	494e4952 	stmdbmi	lr, {r1, r4, r6, r8, fp, lr}^
    bbac:	48205954 	stmdami	r0!, {r2, r4, r6, r8, fp, ip, lr}
    bbb0:	6f742065 	svcvs	0x00742065
    bbb4:	6d20646c 	cfstrsvs	mvf6, [r0, #-432]!	; 0xfffffe50
    bbb8:	68742065 	ldmdavs	r4!, {r0, r2, r5, r6, sp}^
    bbbc:	6e207461 	cdpvs	4, 2, cr7, cr0, cr1, {3}
    bbc0:	6e6f206f 	cdpvs	0, 6, cr2, cr15, cr15, {3}
    bbc4:	68732065 	ldmdavs	r3!, {r0, r2, r5, r6, sp}^
    bbc8:	646c756f 	strbtvs	r7, [ip], #-1391	; 0x56f
    bbcc:	6f6f6c20 	svcvs	0x006f6c20
    bbd0:	6f66206b 	svcvs	0x0066206b
    bbd4:	68742072 	ldmdavs	r4!, {r1, r4, r5, r6, sp}^
    bbd8:	6e612065 	cdpvs	0, 6, cr2, cr1, cr5, {3}
    bbdc:	72657773 	rsbvc	r7, r5, #30146560	; 0x1cc0000
    bbe0:	6c6e7520 	cfstr64vs	mvdx7, [lr], #-128	; 0xffffff80
    bbe4:	20737365 	rsbscs	r7, r3, r5, ror #6
    bbe8:	79656874 	stmdbvc	r5!, {r2, r4, r5, r6, fp, sp, lr}^
    bbec:	76616820 	strbtvc	r6, [r1], -r0, lsr #16
    bbf0:	6f742065 	svcvs	0x00742065
    bbf4:	63656220 	cmnvs	r5, #32, 4
    bbf8:	65737561 	ldrbvs	r7, [r3, #-1377]!	; 0x561
    bbfc:	636e6f20 	cmnvs	lr, #32, 30	; 0x80
    bc00:	6f792065 	svcvs	0x00792065
    bc04:	65732075 	ldrbvs	r2, [r3, #-117]!	; 0x75
    bc08:	74692065 	strbtvc	r2, [r9], #-101	; 0x65
    bc0c:	7665202c 	strbtvc	r2, [r5], -ip, lsr #32
    bc10:	74797265 	ldrbtvc	r7, [r9], #-613	; 0x265
    bc14:	676e6968 	strbvs	r6, [lr, -r8, ror #18]!
    bc18:	61686320 	cmnvs	r8, r0, lsr #6
    bc1c:	7365676e 	cmnvc	r5, #28835840	; 0x1b80000
    bc20:	6f59202e 	svcvs	0x0059202e
    bc24:	6c207275 	sfmvs	f7, 4, [r0], #-468	; 0xfffffe2c
    bc28:	20656669 	rsbcs	r6, r5, r9, ror #12
    bc2c:	20646e61 	rsbcs	r6, r4, r1, ror #28
    bc30:	20656874 	rsbcs	r6, r5, r4, ror r8
    bc34:	6c726f77 	ldclvs	15, cr6, [r2], #-476	; 0xfffffe24
    bc38:	6f792064 	svcvs	0x00792064
    bc3c:	696c2075 	stmdbvs	ip!, {r0, r2, r4, r5, r6, sp}^
    bc40:	69206576 	stmdbvs	r0!, {r1, r2, r4, r5, r6, r8, sl, sp, lr}
    bc44:	6977206e 	ldmdbvs	r7!, {r1, r2, r3, r5, r6, sp}^
    bc48:	6e206c6c 	cdpvs	12, 2, cr6, cr0, cr12, {3}
    bc4c:	72657665 	rsbvc	r7, r5, #105906176	; 0x6500000
    bc50:	20656220 	rsbcs	r6, r5, r0, lsr #4
    bc54:	20656874 	rsbcs	r6, r5, r4, ror r8
    bc58:	656d6173 	strbvs	r6, [sp, #-371]!	; 0x173
    bc5c:	7449202e 	strbvc	r2, [r9], #-46	; 0x2e
    bc60:	61207327 	teqvs	r0, r7, lsr #6
    bc64:	66692073 			; <UNDEFINED> instruction: 0x66692073
    bc68:	756f7920 	strbvc	r7, [pc, #-2336]!	; b350 <spi0+0xb48>
    bc6c:	6b617720 	blvs	18698f4 <__bss_end__+0x185ca2c>
    bc70:	70752065 	rsbsvc	r2, r5, r5, rrx
    bc74:	656e6f20 	strbvs	r6, [lr, #-3872]!	; 0xf20
    bc78:	726f6d20 	rsbvc	r6, pc, #32, 26	; 0x800
    bc7c:	676e696e 	strbvs	r6, [lr, -lr, ror #18]!
    bc80:	646e6120 	strbtvs	r6, [lr], #-288	; 0x120
    bc84:	65687420 	strbvs	r7, [r8, #-1056]!	; 0x420
    bc88:	796b7320 	stmdbvc	fp!, {r5, r8, r9, ip, sp, lr}^
    bc8c:	20736920 	rsbscs	r6, r3, r0, lsr #18
    bc90:	6c6c6166 	stfvse	f6, [ip], #-408	; 0xfffffe68
    bc94:	2e676e69 	cdpcs	14, 6, cr6, cr7, cr9, {3}
    bc98:	65685420 	strbvs	r5, [r8, #-1056]!	; 0x420
    bc9c:	69206572 	stmdbvs	r0!, {r1, r4, r5, r6, r8, sl, sp, lr}
    bca0:	20612073 	rsbcs	r2, r1, r3, ror r0
    bca4:	6e707968 	cdpvs	9, 7, cr7, cr0, cr8, {3}
    bca8:	6369746f 	cmnvs	r9, #1862270976	; 0x6f000000
    bcac:	61757120 	cmnvs	r5, r0, lsr #2
    bcb0:	7974696c 	ldmdbvc	r4!, {r2, r3, r5, r6, r8, fp, sp, lr}^
    bcb4:	206f7420 	rsbcs	r7, pc, r0, lsr #8
    bcb8:	20726568 	rsbscs	r6, r2, r8, ror #10
    bcbc:	63696f76 	cmnvs	r9, #472	; 0x1d8
    bcc0:	6e612065 	cdpvs	0, 6, cr2, cr1, cr5, {3}
    bcc4:	654e2064 	strbvs	r2, [lr, #-100]	; 0x64
    bcc8:	6566206f 	strbvs	r2, [r6, #-111]!	; 0x6f
    bccc:	20736c65 	rsbscs	r6, r3, r5, ror #24
    bcd0:	20656874 	rsbcs	r6, r5, r4, ror r8
    bcd4:	64726f77 	ldrbtvs	r6, [r2], #-3959	; 0xf77
    bcd8:	696c2073 	stmdbvs	ip!, {r0, r1, r4, r5, r6, sp}^
    bcdc:	6120656b 	teqvs	r0, fp, ror #10
    bce0:	75726420 	ldrbvc	r6, [r2, #-1056]!	; 0x420
    bce4:	73202c67 	teqvc	r0, #26368	; 0x6700
    bce8:	69706565 	ldmdbvs	r0!, {r0, r2, r5, r6, r8, sl, sp, lr}^
    bcec:	6920676e 	stmdbvs	r0!, {r1, r2, r3, r5, r6, r8, r9, sl, sp, lr}
    bcf0:	206f746e 	rsbcs	r7, pc, lr, ror #8
    bcf4:	2e6d6968 	cdpcs	9, 6, cr6, cr13, cr8, {3}
    bcf8:	49525420 	ldmdbmi	r2, {r5, sl, ip, lr}^
    bcfc:	5954494e 	ldmdbpl	r4, {r1, r2, r3, r6, r8, fp, lr}^
    bd00:	65685420 	strbvs	r5, [r8, #-1056]!	; 0x420
    bd04:	75727420 	ldrbvc	r7, [r2, #-1056]!	; 0x420
    bd08:	69206874 	stmdbvs	r0!, {r2, r4, r5, r6, fp, sp, lr}
    bd0c:	756f2073 	strbvc	r2, [pc, #-115]!	; bca1 <spi0+0x1499>
    bd10:	68742074 	ldmdavs	r4!, {r2, r4, r5, r6, sp}^
    bd14:	2c657265 	sfmcs	f7, 2, [r5], #-404	; 0xfffffe6c
    bd18:	6f654e20 	svcvs	0x00654e20
    bd1c:	7449202e 	strbvc	r2, [r9], #-46	; 0x2e
    bd20:	6c207327 	stcvs	3, cr7, [r0], #-156	; 0xffffff64
    bd24:	696b6f6f 	stmdbvs	fp!, {r0, r1, r2, r3, r5, r6, r8, r9, sl, fp, sp, lr}^
    bd28:	6620676e 	strtvs	r6, [r0], -lr, ror #14
    bd2c:	7920726f 	stmdbvc	r0!, {r0, r1, r2, r3, r5, r6, r9, ip, sp, lr}
    bd30:	6120756f 	teqvs	r0, pc, ror #10
    bd34:	6920646e 	stmdbvs	r0!, {r1, r2, r3, r5, r6, sl, sp, lr}
    bd38:	69772074 	ldmdbvs	r7!, {r2, r4, r5, r6, sp}^
    bd3c:	66206c6c 	strtvs	r6, [r0], -ip, ror #24
    bd40:	20646e69 	rsbcs	r6, r4, r9, ror #28
    bd44:	2c756f79 	ldclcs	15, cr6, [r5], #-484	; 0xfffffe1c
    bd48:	20666920 	rsbcs	r6, r6, r0, lsr #18
    bd4c:	20756f79 	rsbscs	r6, r5, r9, ror pc
    bd50:	746e6177 	strbtvc	r6, [lr], #-375	; 0x177
    bd54:	20746920 	rsbscs	r6, r4, r0, lsr #18
    bd58:	202e6f74 	eorcs	r6, lr, r4, ror pc
    bd5c:	20656853 	rsbcs	r6, r5, r3, asr r8
    bd60:	656b6174 	strbvs	r6, [fp, #-372]!	; 0x174
    bd64:	6f682073 	svcvs	0x00682073
    bd68:	6f20646c 	svcvs	0x0020646c
    bd6c:	69682066 	stmdbvs	r8!, {r1, r2, r5, r6, sp}^
    bd70:	6977206d 	ldmdbvs	r7!, {r0, r2, r3, r5, r6, sp}^
    bd74:	68206874 	stmdavs	r0!, {r2, r4, r5, r6, fp, sp, lr}
    bd78:	65207265 	strvs	r7, [r0, #-613]!	; 0x265
    bd7c:	2e736579 	mrccs	5, 3, r6, cr3, cr9, {3}
    bd80:	49525420 	ldmdbmi	r2, {r5, sl, ip, lr}^
    bd84:	5954494e 	ldmdbpl	r4, {r1, r2, r3, r6, r8, fp, lr}^
    bd88:	61685420 	cmnvs	r8, r0, lsr #8
    bd8c:	20732774 	rsbscs	r2, r3, r4, ror r7
    bd90:	206c6c61 	rsbcs	r6, ip, r1, ror #24
    bd94:	61632049 	cmnvs	r3, r9, asr #32
    bd98:	6574206e 	ldrbvs	r2, [r4, #-110]!	; 0x6e
    bd9c:	79206c6c 	stmdbvc	r0!, {r2, r3, r5, r6, sl, fp, sp, lr}
    bda0:	7220756f 	eorvc	r7, r0, #465567744	; 0x1bc00000
    bda4:	74686769 	strbtvc	r6, [r8], #-1897	; 0x769
    bda8:	776f6e20 	strbvc	r6, [pc, -r0, lsr #28]!
    bdac:	6f47202e 	svcvs	0x0047202e
    bdb0:	622d646f 	eorvs	r6, sp, #1862270976	; 0x6f000000
    bdb4:	202c6579 	eorcs	r6, ip, r9, ror r5
    bdb8:	2e6f654e 	cdpcs	5, 6, cr6, cr15, cr14, {2}
    bdbc:	646e4120 	strbtvs	r4, [lr], #-288	; 0x120
    bdc0:	6f6f6720 	svcvs	0x006f6720
    bdc4:	756c2064 	strbvc	r2, [ip, #-100]!	; 0x64
    bdc8:	002e6b63 	eoreq	r6, lr, r3, ror #22
    bdcc:	002a2d2b 	eoreq	r2, sl, fp, lsr #26
    bdd0:	33323130 	teqcc	r2, #48, 2
    bdd4:	37363534 			; <UNDEFINED> instruction: 0x37363534
    bdd8:	00003938 	andeq	r3, r0, r8, lsr r9
    bddc:	34323133 	ldrtcc	r3, [r2], #-307	; 0x133
    bde0:	00000000 	andeq	r0, r0, r0

0000bde4 <__FUNCTION__.3844>:
    bde4:	6f705f51 	svcvs	0x00705f51
    bde8:	00000070 	andeq	r0, r0, r0, ror r0

0000bdec <__FUNCTION__.3887>:
    bdec:	5f697072 	svcpl	0x00697072
    bdf0:	65726874 	ldrbvs	r6, [r2, #-2164]!	; 0x874
    bdf4:	735f6461 	cmpvc	pc, #1627389952	; 0x61000000
    bdf8:	74726174 	ldrbtvc	r6, [r2], #-372	; 0x174
    bdfc:	00000000 	andeq	r0, r0, r0
    be00:	4f525245 	svcmi	0x00525245
    be04:	73253a52 	teqvc	r5, #335872	; 0x52000
    be08:	3a73253a 	bcc	1cd52f8 <__bss_end__+0x1cc8430>
    be0c:	203a6425 	eorscs	r6, sl, r5, lsr #8
    be10:	534c4146 	movtpl	r4, #49478	; 0xc146
    be14:	713c2845 	teqvc	ip, r5, asr #16
    be18:	203d2120 	eorscs	r2, sp, r0, lsr #2
    be1c:	3a293e30 	bcc	a5b6e4 <__bss_end__+0xa4e81c>
    be20:	64616220 	strbtvs	r6, [r1], #-544	; 0x220
    be24:	706e6920 	rsbvc	r6, lr, r0, lsr #18
    be28:	000a7475 	andeq	r7, sl, r5, ror r4
    be2c:	2e2f2e2e 	cdpcs	14, 2, cr2, cr15, cr14, {1}
    be30:	616c2f2e 	cmnvs	ip, lr, lsr #30
    be34:	742d3962 	strtvc	r3, [sp], #-2402	; 0x962
    be38:	61657268 	cmnvs	r5, r8, ror #4
    be3c:	632f7364 	teqvs	pc, #100, 6	; 0x90000001
    be40:	2f65646f 	svccs	0x0065646f
    be44:	00682e51 	rsbeq	r2, r8, r1, asr lr
    be48:	4f525245 	svcmi	0x00525245
    be4c:	73253a52 	teqvc	r5, #335872	; 0x52000
    be50:	3a73253a 	bcc	1cd5340 <__bss_end__+0x1cc8478>
    be54:	203a6425 	eorscs	r6, sl, r5, lsr #8
    be58:	534c4146 	movtpl	r4, #49478	; 0xc146
    be5c:	213c2845 	teqcs	ip, r5, asr #16
    be60:	743e2d71 	ldrtvc	r2, [lr], #-3441	; 0xd71
    be64:	3e6c6961 	cdpcc	9, 6, cr6, cr12, cr1, {3}
    be68:	69203a29 	stmdbvs	r0!, {r0, r3, r5, r9, fp, ip, sp}
    be6c:	6c61766e 	stclvs	6, cr7, [r1], #-440	; 0xfffffe48
    be70:	51206469 	teqpl	r0, r9, ror #8
    be74:	0000000a 	andeq	r0, r0, sl
    be78:	000a6425 	andeq	r6, sl, r5, lsr #8
    be7c:	45524854 	ldrbmi	r4, [r2, #-2132]	; 0x854
    be80:	203a4441 	eorscs	r4, sl, r1, asr #8
    be84:	656e6f64 	strbvs	r6, [lr, #-3940]!	; 0xf64
    be88:	74697720 	strbtvc	r7, [r9], #-1824	; 0x720
    be8c:	6c612068 	stclvs	0, cr2, [r1], #-416	; 0xfffffe60
    be90:	6874206c 	ldmdavs	r4!, {r2, r3, r5, r6, sp}^
    be94:	64616572 	strbtvs	r6, [r1], #-1394	; 0x572
    be98:	73202c73 	teqvc	r0, #29440	; 0x7300
    be9c:	63746977 	cmnvs	r4, #1949696	; 0x1dc000
    bea0:	676e6968 	strbvs	r6, [lr, -r8, ror #18]!
    bea4:	206f7420 	rsbcs	r7, pc, r0, lsr #8
    bea8:	65686373 	strbvs	r6, [r8, #-883]!	; 0x373
    beac:	656c7564 	strbvs	r7, [ip, #-1380]!	; 0x564
    beb0:	68742072 	ldmdavs	r4!, {r1, r4, r5, r6, sp}^
    beb4:	64616572 	strbtvs	r6, [r1], #-1394	; 0x572
    beb8:	0000000a 	andeq	r0, r0, sl
    bebc:	45524854 	ldrbmi	r4, [r2, #-2132]	; 0x854
    bec0:	203a4441 	eorscs	r4, sl, r1, asr #8
    bec4:	5f697072 	svcpl	0x00697072
    bec8:	74697865 	strbtvc	r7, [r9], #-2149	; 0x865
    becc:	69777320 	ldmdbvs	r7!, {r5, r8, r9, ip, sp, lr}^
    bed0:	69686374 	stmdbvs	r8!, {r2, r4, r5, r6, r8, r9, sp, lr}^
    bed4:	7420676e 	strtvc	r6, [r0], #-1902	; 0x76e
    bed8:	2061206f 	rsbcs	r2, r1, pc, rrx
    bedc:	2077656e 	rsbscs	r6, r7, lr, ror #10
    bee0:	65726874 	ldrbvs	r6, [r2, #-2164]!	; 0x874
    bee4:	000a6461 	andeq	r6, sl, r1, ror #8
    bee8:	45524854 	ldrbmi	r4, [r2, #-2132]	; 0x854
    beec:	203a4441 	eorscs	r4, sl, r1, asr #8
    bef0:	656e6f64 	strbvs	r6, [lr, #-3940]!	; 0xf64
    bef4:	74697720 	strbtvc	r7, [r9], #-1824	; 0x720
    bef8:	6c612068 	stclvs	0, cr2, [r1], #-416	; 0xfffffe60
    befc:	6874206c 	ldmdavs	r4!, {r2, r3, r5, r6, sp}^
    bf00:	64616572 	strbtvs	r6, [r1], #-1394	; 0x572
    bf04:	72202c73 	eorvc	r2, r0, #29440	; 0x7300
    bf08:	72757465 	rsbsvc	r7, r5, #1694498816	; 0x65000000
    bf0c:	676e696e 	strbvs	r6, [lr, -lr, ror #18]!
    bf10:	6f726620 	svcvs	0x00726620
    bf14:	7072206d 	rsbsvc	r2, r2, sp, rrx
    bf18:	69795f69 	ldmdbvs	r9!, {r0, r3, r5, r6, r8, r9, sl, fp, ip, lr}^
    bf1c:	0a646c65 	beq	19270b8 <__bss_end__+0x191a1f0>
    bf20:	00000000 	andeq	r0, r0, r0
    bf24:	494e4150 	stmdbmi	lr, {r4, r6, r8, lr}^
    bf28:	73253a43 	teqvc	r5, #274432	; 0x43000
    bf2c:	3a73253a 	bcc	1cd541c <__bss_end__+0x1cc8554>
    bf30:	213a6425 	teqcs	sl, r5, lsr #8
    bf34:	65657270 	strbvs	r7, [r5, #-624]!	; 0x270
    bf38:	6974706d 	ldmdbvs	r4!, {r0, r2, r3, r5, r6, ip, sp, lr}^
    bf3c:	705f6576 	subsvc	r6, pc, r6, ror r5	; <UNPREDICTABLE>
    bf40:	0000000a 	andeq	r0, r0, sl
    bf44:	2e2f2e2e 	cdpcs	14, 2, cr2, cr15, cr14, {1}
    bf48:	616c2f2e 	cmnvs	ip, lr, lsr #30
    bf4c:	742d3962 	strtvc	r3, [sp], #-2402	; 0x962
    bf50:	61657268 	cmnvs	r5, r8, ror #4
    bf54:	632f7364 	teqvs	pc, #100, 6	; 0x90000001
    bf58:	2f65646f 	svccs	0x0065646f
    bf5c:	2d697072 	stclcs	0, cr7, [r9, #-456]!	; 0xfffffe38
    bf60:	65726874 	ldrbvs	r6, [r2, #-2164]!	; 0x874
    bf64:	632e6461 	teqvs	lr, #1627389952	; 0x61000000
    bf68:	00000000 	andeq	r0, r0, r0
    bf6c:	45524854 	ldrbmi	r4, [r2, #-2132]	; 0x854
    bf70:	203a4441 	eorscs	r4, sl, r1, asr #8
    bf74:	656e6f64 	strbvs	r6, [lr, #-3940]!	; 0xf64
    bf78:	74697720 	strbtvc	r7, [r9], #-1824	; 0x720
    bf7c:	6c612068 	stclvs	0, cr2, [r1], #-416	; 0xfffffe60
    bf80:	6874206c 	ldmdavs	r4!, {r2, r3, r5, r6, sp}^
    bf84:	64616572 	strbtvs	r6, [r1], #-1394	; 0x572
    bf88:	72202c73 	eorvc	r2, r0, #29440	; 0x7300
    bf8c:	72757465 	rsbsvc	r7, r5, #1694498816	; 0x65000000
    bf90:	676e696e 	strbvs	r6, [lr, -lr, ror #18]!
    bf94:	6f726620 	svcvs	0x00726620
    bf98:	7072206d 	rsbsvc	r2, r2, sp, rrx
    bf9c:	68745f69 	ldmdavs	r4!, {r0, r3, r5, r6, r8, r9, sl, fp, ip, lr}^
    bfa0:	64616572 	strbtvs	r6, [r1], #-1394	; 0x572
    bfa4:	6174735f 	cmnvs	r4, pc, asr r3
    bfa8:	000a7472 	andeq	r7, sl, r2, ror r4
    bfac:	45524854 	ldrbmi	r4, [r2, #-2132]	; 0x854
    bfb0:	203a4441 	eorscs	r4, sl, r1, asr #8
    bfb4:	5f697072 	svcpl	0x00697072
    bfb8:	65726874 	ldrbvs	r6, [r2, #-2164]!	; 0x874
    bfbc:	735f6461 	cmpvc	pc, #1627389952	; 0x61000000
    bfc0:	74726174 	ldrbtvc	r6, [r2], #-372	; 0x174
    bfc4:	61747320 	cmnvs	r4, r0, lsr #6
    bfc8:	6e697472 	mcrvs	4, 3, r7, cr9, cr2, {3}
    bfcc:	68742067 	ldmdavs	r4!, {r0, r1, r2, r5, r6, sp}^
    bfd0:	64616572 	strbtvs	r6, [r1], #-1394	; 0x572
    bfd4:	0000000a 	andeq	r0, r0, sl
    bfd8:	65686373 	strbvs	r6, [r8, #-883]!	; 0x373
    bfdc:	656c7564 	strbvs	r7, [ip, #-1380]!	; 0x564
    bfe0:	68745f72 	ldmdavs	r4!, {r1, r4, r5, r6, r8, r9, sl, fp, ip, lr}^
    bfe4:	64616572 	strbtvs	r6, [r1], #-1394	; 0x572
    bfe8:	25203d20 	strcs	r3, [r0, #-3360]!	; 0xd20
    bfec:	00000a78 	andeq	r0, r0, r8, ror sl
    bff0:	5f727563 	svcpl	0x00727563
    bff4:	65726874 	ldrbvs	r6, [r2, #-2164]!	; 0x874
    bff8:	3e2d6461 	cdpcc	4, 2, cr6, cr13, cr1, {3}
    bffc:	3d207073 	stccc	0, cr7, [r0, #-460]!	; 0xfffffe34
    c000:	2c782520 	cfldr64cs	mvdx2, [r8], #-128	; 0xffffff80
    c004:	68637320 	stmdavs	r3!, {r5, r8, r9, ip, sp, lr}^
    c008:	6c756465 	cfldrdvs	mvd6, [r5], #-404	; 0xfffffe6c
    c00c:	745f7265 	ldrbvc	r7, [pc], #-613	; c014 <__FUNCTION__.3887+0x228>
    c010:	61657268 	cmnvs	r5, r8, ror #4
    c014:	733e2d64 	teqvc	lr, #100, 26	; 0x1900
    c018:	203d2070 	eorscs	r2, sp, r0, ror r0
    c01c:	000a7825 	andeq	r7, sl, r5, lsr #16
    c020:	253d3072 	ldrcs	r3, [sp, #-114]!	; 0x72
    c024:	72202c78 	eorvc	r2, r0, #120, 24	; 0x7800
    c028:	78253d31 	stmdavc	r5!, {r0, r4, r5, r8, sl, fp, ip, sp}
    c02c:	3d726c20 	ldclcc	12, cr6, [r2, #-128]!	; 0xffffff80
    c030:	73207825 	teqvc	r0, #2424832	; 0x250000
    c034:	78253d70 	stmdavc	r5!, {r4, r5, r6, r8, sl, fp, ip, sp}
    c038:	0000000a 	andeq	r0, r0, sl

0000c03c <fontdata>:
	...
    c044:	b195817e 	orrslt	r8, r5, lr, ror r1
    c048:	7e8195b1 	mcrvc	5, 4, r9, cr1, cr1, {5}
    c04c:	cfebff7e 	svcgt	0x00ebff7e
    c050:	7effebcf 	vcvtvc.u32.f64	d30, d30, #2
    c054:	7e3f1f0e 	cdpvc	15, 3, cr1, cr15, cr14, {0}
    c058:	000e1f3f 	andeq	r1, lr, pc, lsr pc
    c05c:	7f3e1c08 	svcvc	0x003e1c08
    c060:	00081c3e 	andeq	r1, r8, lr, lsr ip
    c064:	6f5b1818 	svcvs	0x005b1818
    c068:	18185b6f 	ldmdane	r8, {r0, r1, r2, r3, r5, r6, r8, r9, fp, ip, lr}
    c06c:	6f5e1c18 	svcvs	0x005e1c18
    c070:	00181c5e 	andseq	r1, r8, lr, asr ip
    c074:	3c180000 	ldccc	0, cr0, [r8], {-0}
    c078:	0000183c 	andeq	r1, r0, ip, lsr r8
    c07c:	c3e7ffff 	mvngt	pc, #1020	; 0x3fc
    c080:	ffffe7c3 			; <UNDEFINED> instruction: 0xffffe7c3
    c084:	42663c00 	rsbmi	r3, r6, #0, 24
    c088:	003c6642 	eorseq	r6, ip, r2, asr #12
    c08c:	bd99c3ff 	ldclt	3, cr12, [r9, #1020]	; 0x3fc
    c090:	ffc399bd 			; <UNDEFINED> instruction: 0xffc399bd
    c094:	8888f870 	stmhi	r8, {r4, r5, r6, fp, ip, sp, lr, pc}
    c098:	0f077ffd 	svceq	0x00077ffd
    c09c:	f15f4e00 			; <UNDEFINED> instruction: 0xf15f4e00
    c0a0:	004e5ff1 	strdeq	r5, [lr], #-241	; 0xffffff0f
    c0a4:	60606040 	rsbvs	r6, r0, r0, asr #32
    c0a8:	000c023f 	andeq	r0, ip, pc, lsr r2
    c0ac:	9f303020 	svcls	0x00303020
    c0b0:	007ccac5 	rsbseq	ip, ip, r5, asr #21
    c0b4:	771c2a08 	ldrvc	r2, [ip, -r8, lsl #20]
    c0b8:	00082a1c 	andeq	r2, r8, ip, lsl sl
    c0bc:	1c3e3e7f 	ldcne	14, cr3, [lr], #-508	; 0xfffffe04
    c0c0:	0008081c 	andeq	r0, r8, ip, lsl r8
    c0c4:	1c1c0808 	ldcne	8, cr0, [ip], {8}
    c0c8:	007f3e3e 	rsbseq	r3, pc, lr, lsr lr	; <UNPREDICTABLE>
    c0cc:	7f221400 	svcvc	0x00221400
    c0d0:	0014227f 	andseq	r2, r4, pc, ror r2
    c0d4:	005f5f00 	subseq	r5, pc, r0, lsl #30
    c0d8:	005f5f00 	subseq	r5, pc, r0, lsl #30
    c0dc:	7f111f0e 	svcvc	0x00111f0e
    c0e0:	7f7f017f 	svcvc	0x007f017f
    c0e4:	a5a69840 	strge	r9, [r6, #2112]!	; 0x840
    c0e8:	00021965 	andeq	r1, r2, r5, ror #18
    c0ec:	70707000 	rsbsvc	r7, r0, r0
    c0f0:	00707070 	rsbseq	r7, r0, r0, ror r0
    c0f4:	ffa29400 			; <UNDEFINED> instruction: 0xffa29400
    c0f8:	0094a2ff 			; <UNDEFINED> instruction: 0x0094a2ff
    c0fc:	7f020400 	svcvc	0x00020400
    c100:	0004027f 	andeq	r0, r4, pc, ror r2
    c104:	7f201000 	svcvc	0x00201000
    c108:	0010207f 	andseq	r2, r0, pc, ror r0
    c10c:	2a080808 	bcs	20e134 <__bss_end__+0x20126c>
    c110:	00081c3e 	andeq	r1, r8, lr, lsr ip
    c114:	2a3e1c08 	bcs	f9313c <__bss_end__+0xf86274>
    c118:	00080808 	andeq	r0, r8, r8, lsl #16
    c11c:	20203c3c 	eorcs	r3, r0, ip, lsr ip
    c120:	00202020 	eoreq	r2, r0, r0, lsr #32
    c124:	082a1c08 	stmdaeq	sl!, {r3, sl, fp, ip}
    c128:	081c2a08 	ldmdaeq	ip, {r3, r9, fp, sp}
    c12c:	3e3c3830 	mrccc	8, 1, r3, cr12, cr0, {1}
    c130:	0030383c 	eorseq	r3, r0, ip, lsr r8
    c134:	3e1e0e06 	cdpcc	14, 1, cr0, cr14, cr6, {0}
    c138:	00060e1e 	andeq	r0, r6, lr, lsl lr
	...
    c144:	5f060000 	svcpl	0x00060000
    c148:	0000065f 	andeq	r0, r0, pc, asr r6
    c14c:	00070100 	andeq	r0, r7, r0, lsl #2
    c150:	00000701 	andeq	r0, r0, r1, lsl #14
    c154:	147f7f14 	ldrbtne	r7, [pc], #-3860	; c15c <fontdata+0x120>
    c158:	00147f7f 	andseq	r7, r4, pc, ror pc
    c15c:	7f2a2e24 	svcvc	0x002a2e24
    c160:	00103a2a 	andseq	r3, r0, sl, lsr #20
    c164:	18366a4c 	ldmdane	r6!, {r2, r3, r6, r9, fp, sp, lr}
    c168:	0032566c 	eorseq	r5, r2, ip, ror #12
    c16c:	4d4d7a30 	vstrmi	s15, [sp, #-192]	; 0xffffff40
    c170:	0050327f 	subseq	r3, r0, pc, ror r2
    c174:	03050000 	movweq	r0, #20480	; 0x5000
    c178:	00000000 	andeq	r0, r0, r0
    c17c:	633e1c00 	teqvs	lr, #0, 24
    c180:	00000041 	andeq	r0, r0, r1, asr #32
    c184:	3e634100 	powccs	f4, f3, f0
    c188:	0000001c 	andeq	r0, r0, ip, lsl r0
    c18c:	1c3e2a08 	ldcne	10, cr2, [lr], #-32	; 0xffffffe0
    c190:	082a3e1c 	stmdaeq	sl!, {r2, r3, r4, r9, sl, fp, ip, sp}
    c194:	3e3e0808 	cdpcc	8, 3, cr0, cr14, cr8, {0}
    c198:	00000808 	andeq	r0, r0, r8, lsl #16
    c19c:	60a00000 	adcvs	r0, r0, r0
    c1a0:	00000000 	andeq	r0, r0, r0
    c1a4:	08080808 	stmdaeq	r8, {r3, fp}
    c1a8:	00000808 	andeq	r0, r0, r8, lsl #16
    c1ac:	40400000 	submi	r0, r0, r0
    c1b0:	00000000 	andeq	r0, r0, r0
    c1b4:	18306040 	ldmdane	r0!, {r6, sp, lr}
    c1b8:	0003060c 	andeq	r0, r3, ip, lsl #12
    c1bc:	4d797f3e 	ldclmi	15, cr7, [r9, #-248]!	; 0xffffff08
    c1c0:	003e7f47 	eorseq	r7, lr, r7, asr #30
    c1c4:	7f464400 	svcvc	0x00464400
    c1c8:	0040407f 	subeq	r4, r0, pc, ror r0
    c1cc:	59517362 	ldmdbpl	r1, {r1, r5, r6, r8, r9, ip, sp, lr}^
    c1d0:	00666f49 	rsbeq	r6, r6, r9, asr #30
    c1d4:	49496322 	stmdbmi	r9, {r1, r5, r8, r9, sp, lr}^
    c1d8:	00367f49 	eorseq	r7, r6, r9, asr #30
    c1dc:	53161c18 	tstpl	r6, #24, 24	; 0x1800
    c1e0:	00507f7f 	subseq	r7, r0, pc, ror pc
    c1e4:	45456727 	strbmi	r6, [r5, #-1831]	; 0x727
    c1e8:	00397d45 	eorseq	r7, r9, r5, asr #26
    c1ec:	49497f3e 	stmdbmi	r9, {r1, r2, r3, r4, r5, r8, r9, sl, fp, ip, sp, lr}^
    c1f0:	00327b49 	eorseq	r7, r2, r9, asr #22
    c1f4:	79710303 	ldmdbvc	r1!, {r0, r1, r8, r9}^
    c1f8:	0003070d 	andeq	r0, r3, sp, lsl #14
    c1fc:	49497f36 	stmdbmi	r9, {r1, r2, r4, r5, r8, r9, sl, fp, ip, sp, lr}^
    c200:	00367f49 	eorseq	r7, r6, r9, asr #30
    c204:	49496f26 	stmdbmi	r9, {r1, r2, r5, r8, r9, sl, fp, sp, lr}^
    c208:	003e7f49 	eorseq	r7, lr, r9, asr #30
    c20c:	22220000 	eorcs	r0, r2, #0
    c210:	00000000 	andeq	r0, r0, r0
    c214:	62a20000 	adcvs	r0, r2, #0
    c218:	00000000 	andeq	r0, r0, r0
    c21c:	361c0800 	ldrcc	r0, [ip], -r0, lsl #16
    c220:	00004163 	andeq	r4, r0, r3, ror #2
    c224:	24242400 	strtcs	r2, [r4], #-1024	; 0x400
    c228:	00242424 	eoreq	r2, r4, r4, lsr #8
    c22c:	36634100 	strbtcc	r4, [r3], -r0, lsl #2
    c230:	0000081c 	andeq	r0, r0, ip, lsl r8
    c234:	59510302 	ldmdbpl	r1, {r1, r8, r9}^
    c238:	0000060f 	andeq	r0, r0, pc, lsl #12
    c23c:	5549413e 	strbpl	r4, [r9, #-318]	; 0x13e
    c240:	001e5d55 	andseq	r5, lr, r5, asr sp
    c244:	09097f7e 	stmdbeq	r9, {r1, r2, r3, r4, r5, r6, r8, r9, sl, fp, ip, sp, lr}
    c248:	007e7f09 	rsbseq	r7, lr, r9, lsl #30
    c24c:	497f7f41 	ldmdbmi	pc!, {r0, r6, r8, r9, sl, fp, ip, sp, lr}^	; <UNPREDICTABLE>
    c250:	00367f49 	eorseq	r7, r6, r9, asr #30
    c254:	41417f3e 	cmpmi	r1, lr, lsr pc
    c258:	00226341 	eoreq	r6, r2, r1, asr #6
    c25c:	417f7f41 	cmnmi	pc, r1, asr #30
    c260:	003e7f41 	eorseq	r7, lr, r1, asr #30
    c264:	497f7f41 	ldmdbmi	pc!, {r0, r6, r8, r9, sl, fp, ip, sp, lr}^	; <UNPREDICTABLE>
    c268:	0063415d 	rsbeq	r4, r3, sp, asr r1
    c26c:	497f7f41 	ldmdbmi	pc!, {r0, r6, r8, r9, sl, fp, ip, sp, lr}^	; <UNPREDICTABLE>
    c270:	0003011d 	andeq	r0, r3, sp, lsl r1
    c274:	41417f3e 	cmpmi	r1, lr, lsr pc
    c278:	00767751 	rsbseq	r7, r6, r1, asr r7
    c27c:	08087f7f 	stmdaeq	r8, {r0, r1, r2, r3, r4, r5, r6, r8, r9, sl, fp, ip, sp, lr}
    c280:	007f7f08 	rsbseq	r7, pc, r8, lsl #30
    c284:	7f410000 	svcvc	0x00410000
    c288:	0000417f 	andeq	r4, r0, pc, ror r1
    c28c:	41407030 	cmpmi	r0, r0, lsr r0
    c290:	00013f7f 	andeq	r3, r1, pc, ror pc
    c294:	087f7f41 	ldmdaeq	pc!, {r0, r6, r8, r9, sl, fp, ip, sp, lr}^	; <UNPREDICTABLE>
    c298:	0063771c 	rsbeq	r7, r3, ip, lsl r7
    c29c:	417f7f41 	cmnmi	pc, r1, asr #30
    c2a0:	00706040 	rsbseq	r6, r0, r0, asr #32
    c2a4:	180c7e7f 	stmdane	ip, {r0, r1, r2, r3, r4, r5, r6, r9, sl, fp, ip, sp, lr}
    c2a8:	007f7e0c 	rsbseq	r7, pc, ip, lsl #28
    c2ac:	0c067f7f 	stceq	15, cr7, [r6], {127}	; 0x7f
    c2b0:	007f7f18 	rsbseq	r7, pc, r8, lsl pc	; <UNPREDICTABLE>
    c2b4:	41417f3e 	cmpmi	r1, lr, lsr pc
    c2b8:	003e7f41 	eorseq	r7, lr, r1, asr #30
    c2bc:	497f7f41 	ldmdbmi	pc!, {r0, r6, r8, r9, sl, fp, ip, sp, lr}^	; <UNPREDICTABLE>
    c2c0:	00060f09 	andeq	r0, r6, r9, lsl #30
    c2c4:	71417f3e 	cmpvc	r1, lr, lsr pc
    c2c8:	00beff61 	adcseq	pc, lr, r1, ror #30
    c2cc:	097f7f41 	ldmdbeq	pc!, {r0, r6, r8, r9, sl, fp, ip, sp, lr}^	; <UNPREDICTABLE>
    c2d0:	00767f09 	rsbseq	r7, r6, r9, lsl #30
    c2d4:	49496f26 	stmdbmi	r9, {r1, r2, r5, r8, r9, sl, fp, sp, lr}^
    c2d8:	00327b49 	eorseq	r7, r2, r9, asr #22
    c2dc:	7f410700 	svcvc	0x00410700
    c2e0:	0007417f 	andeq	r4, r7, pc, ror r1
    c2e4:	40407f3f 	submi	r7, r0, pc, lsr pc
    c2e8:	003f7f40 	eorseq	r7, pc, r0, asr #30
    c2ec:	60301f0f 	eorsvs	r1, r0, pc, lsl #30
    c2f0:	000f1f30 	andeq	r1, pc, r0, lsr pc	; <UNPREDICTABLE>
    c2f4:	0c183f7f 	ldceq	15, cr3, [r8], {127}	; 0x7f
    c2f8:	007f3f18 	rsbseq	r3, pc, r8, lsl pc	; <UNPREDICTABLE>
    c2fc:	1c3e6341 	ldcne	3, cr6, [lr], #-260	; 0xfffffefc
    c300:	0041633e 	subeq	r6, r1, lr, lsr r3
    c304:	784f0700 	stmdavc	pc, {r8, r9, sl}^	; <UNPREDICTABLE>
    c308:	00074f78 	andeq	r4, r7, r8, ror pc
    c30c:	59716347 	ldmdbpl	r1!, {r0, r1, r2, r6, r8, r9, sp, lr}^
    c310:	0073674d 	rsbseq	r6, r3, sp, asr #14
    c314:	417f7f00 	cmnmi	pc, r0, lsl #30
    c318:	00000041 	andeq	r0, r0, r1, asr #32
    c31c:	0c060301 	stceq	3, cr0, [r6], {1}
    c320:	00603018 	rsbeq	r3, r0, r8, lsl r0
    c324:	7f414100 	svcvc	0x00414100
    c328:	0000007f 	andeq	r0, r0, pc, ror r0
    c32c:	03060c08 	movweq	r0, #27656	; 0x6c08
    c330:	00080c06 	andeq	r0, r8, r6, lsl #24
    c334:	80808080 	addhi	r8, r0, r0, lsl #1
    c338:	80808080 	addhi	r8, r0, r0, lsl #1
    c33c:	05030000 	streq	r0, [r3, #-0]
    c340:	00000000 	andeq	r0, r0, r0
    c344:	54547420 	ldrbpl	r7, [r4], #-1056	; 0x420
    c348:	0040783c 	subeq	r7, r0, ip, lsr r8
    c34c:	487f7f01 	ldmdami	pc!, {r0, r8, r9, sl, fp, ip, sp, lr}^	; <UNPREDICTABLE>
    c350:	00307848 	eorseq	r7, r0, r8, asr #16
    c354:	44447c38 	strbmi	r7, [r4], #-3128	; 0xc38
    c358:	00286c44 	eoreq	r6, r8, r4, asr #24
    c35c:	49487830 	stmdbmi	r8, {r4, r5, fp, ip, sp, lr}^
    c360:	00407f3f 	subeq	r7, r0, pc, lsr pc
    c364:	54547c38 	ldrbpl	r7, [r4], #-3128	; 0xc38
    c368:	00185c54 	andseq	r5, r8, r4, asr ip
    c36c:	7f7e4800 	svcvc	0x007e4800
    c370:	00020349 	andeq	r0, r2, r9, asr #6
    c374:	a4a4bc18 	strtge	fp, [r4], #3096	; 0xc18
    c378:	00047cf8 	strdeq	r7, [r4], -r8
    c37c:	087f7f41 	ldmdaeq	pc!, {r0, r6, r8, r9, sl, fp, ip, sp, lr}^	; <UNPREDICTABLE>
    c380:	00787c04 	rsbseq	r7, r8, r4, lsl #24
    c384:	7d440000 	stclvc	0, cr0, [r4, #-0]
    c388:	0000407d 	andeq	r4, r0, sp, ror r0
    c38c:	8880c040 	stmhi	r0, {r6, lr, pc}
    c390:	00007afa 	strdeq	r7, [r0], -sl
    c394:	107f7f41 	rsbsne	r7, pc, r1, asr #30
    c398:	00446c38 	subeq	r6, r4, r8, lsr ip
    c39c:	7f410000 	svcvc	0x00410000
    c3a0:	0000407f 	andeq	r4, r0, pc, ror r0
    c3a4:	78087c7c 	stmdavc	r8, {r2, r3, r4, r5, r6, sl, fp, ip, sp, lr}
    c3a8:	00787c0c 	rsbseq	r7, r8, ip, lsl #24
    c3ac:	04787c04 	ldrbteq	r7, [r8], #-3076	; 0xc04
    c3b0:	00787c04 	rsbseq	r7, r8, r4, lsl #24
    c3b4:	44447c38 	strbmi	r7, [r4], #-3128	; 0xc38
    c3b8:	00387c44 	eorseq	r7, r8, r4, asr #24
    c3bc:	a4f8fc84 	ldrbtge	pc, [r8], #3204	; 0xc84	; <UNPREDICTABLE>
    c3c0:	00183c24 	andseq	r3, r8, r4, lsr #24
    c3c4:	a4243c18 	strtge	r3, [r4], #-3096	; 0xc18
    c3c8:	0080fcfc 	strdeq	pc, [r0], ip
    c3cc:	4c787c44 	ldclmi	12, cr7, [r8], #-272	; 0xfffffef0
    c3d0:	000c0c04 	andeq	r0, ip, r4, lsl #24
    c3d4:	54545c08 	ldrbpl	r5, [r4], #-3080	; 0xc08
    c3d8:	00207454 	eoreq	r7, r0, r4, asr r4
    c3dc:	7f3e0404 	svcvc	0x003e0404
    c3e0:	00002444 	andeq	r2, r0, r4, asr #8
    c3e4:	40407c3c 	submi	r7, r0, ip, lsr ip
    c3e8:	00407c3c 	subeq	r7, r0, ip, lsr ip
    c3ec:	60301c0c 	eorsvs	r1, r0, ip, lsl #24
    c3f0:	000c1c30 	andeq	r1, ip, r0, lsr ip
    c3f4:	38607c3c 	stmdacc	r0!, {r2, r3, r4, r5, sl, fp, ip, sp, lr}^
    c3f8:	003c7c60 	eorseq	r7, ip, r0, ror #24
    c3fc:	10386c44 	eorsne	r6, r8, r4, asr #24
    c400:	00446c38 	subeq	r6, r4, r8, lsr ip
    c404:	a0a0bc9c 	umlalge	fp, r0, ip, ip
    c408:	00007cfc 	strdeq	r7, [r0], -ip
    c40c:	5c74644c 	cfldrdpl	mvd6, [r4], #-304	; 0xfffffed0
    c410:	0000644c 	andeq	r6, r0, ip, asr #8
    c414:	3e080000 	cdpcc	0, 0, cr0, cr8, cr0, {0}
    c418:	00414177 	subeq	r4, r1, r7, ror r1
    c41c:	77000000 	strvc	r0, [r0, -r0]
    c420:	00000077 	andeq	r0, r0, r7, ror r0
    c424:	3e774141 	rpwccsm	f4, f7, f1
    c428:	00000008 	andeq	r0, r0, r8
    c42c:	03010302 	movweq	r0, #4866	; 0x1302
    c430:	00010302 	andeq	r0, r1, r2, lsl #6
    c434:	464c7870 			; <UNDEFINED> instruction: 0x464c7870
    c438:	0070784c 	rsbseq	r7, r0, ip, asr #16
    c43c:	e1a1bf1e 			; <UNDEFINED> instruction: 0xe1a1bf1e
    c440:	00123361 	andseq	r3, r2, r1, ror #6
    c444:	40407d3d 	submi	r7, r0, sp, lsr sp
    c448:	00407d3d 	subeq	r7, r0, sp, lsr sp
    c44c:	56547c38 			; <UNDEFINED> instruction: 0x56547c38
    c450:	00195d55 	andseq	r5, r9, r5, asr sp
    c454:	55557122 	ldrbpl	r7, [r5, #-290]	; 0x122
    c458:	0042793d 	subeq	r7, r2, sp, lsr r9
    c45c:	54547521 	ldrbpl	r7, [r4], #-1313	; 0x521
    c460:	0040793d 	subeq	r7, r0, sp, lsr r9
    c464:	56557521 	ldrbpl	r7, [r5], -r1, lsr #10
    c468:	0040783c 	subeq	r7, r0, ip, lsr r8
    c46c:	57577420 	ldrbpl	r7, [r7, -r0, lsr #8]
    c470:	0040783c 	subeq	r7, r0, ip, lsr r8
    c474:	e4a4bc18 	strt	fp, [r4], #3096	; 0xc18
    c478:	00002464 	andeq	r2, r0, r4, ror #8
    c47c:	55557d3a 	ldrbpl	r7, [r5, #-3386]	; 0xd3a
    c480:	001a5d55 	andseq	r5, sl, r5, asr sp
    c484:	54547d39 	ldrbpl	r7, [r4], #-3385	; 0xd39
    c488:	00195d54 	andseq	r5, r9, r4, asr sp
    c48c:	56557d39 			; <UNDEFINED> instruction: 0x56557d39
    c490:	00185c54 	andseq	r5, r8, r4, asr ip
    c494:	7c450100 	stfvce	f0, [r5], {-0}
    c498:	0001417c 	andeq	r4, r1, ip, ror r1
    c49c:	7d450102 	stfvce	f0, [r5, #-8]
    c4a0:	0002417d 	andeq	r4, r2, sp, ror r1
    c4a4:	7e450101 	dvfvcs	f0, f5, f1
    c4a8:	0000407c 	andeq	r4, r0, ip, ror r0
    c4ac:	14147d79 	ldrne	r7, [r4], #-3449	; 0xd79
    c4b0:	00797d14 	rsbseq	r7, r9, r4, lsl sp
    c4b4:	17177c78 			; <UNDEFINED> instruction: 0x17177c78
    c4b8:	00787c17 	rsbseq	r7, r8, r7, lsl ip
    c4bc:	567c7c44 	ldrbtpl	r7, [ip], -r4, asr #24
    c4c0:	00454555 	subeq	r4, r5, r5, asr r5
    c4c4:	7c547420 	cfldrdvc	mvd7, [r4], {32}
    c4c8:	00585454 	subseq	r5, r8, r4, asr r4
    c4cc:	09097f7e 	stmdbeq	r9, {r1, r2, r3, r4, r5, r6, r8, r9, sl, fp, ip, sp, lr}
    c4d0:	0049497f 	subeq	r4, r9, pc, ror r9
    c4d4:	45457d3a 	strbmi	r7, [r5, #-3386]	; 0xd3a
    c4d8:	003a7d45 	eorseq	r7, sl, r5, asr #26
    c4dc:	44447d39 	strbmi	r7, [r4], #-3385	; 0xd39
    c4e0:	00397d44 	eorseq	r7, r9, r4, asr #26
    c4e4:	46457d39 			; <UNDEFINED> instruction: 0x46457d39
    c4e8:	00387c44 	eorseq	r7, r8, r4, asr #24
    c4ec:	41417d3e 	cmpmi	r1, lr, lsr sp
    c4f0:	00427d3d 	subeq	r7, r2, sp, lsr sp
    c4f4:	42417d3d 	submi	r7, r1, #3904	; 0xf40
    c4f8:	00407c3c 	subeq	r7, r0, ip, lsr ip
    c4fc:	a0a0bd9d 	umlalge	fp, r0, sp, sp
    c500:	00007dfd 	strdeq	r7, [r0], -sp
    c504:	42427f3d 	submi	r7, r2, #61, 30	; 0xf4
    c508:	003d7f42 	eorseq	r7, sp, r2, asr #30
    c50c:	40407d3d 	submi	r7, r0, sp, lsr sp
    c510:	003d7d40 	eorseq	r7, sp, r0, asr #26
    c514:	7f223e1c 	svcvc	0x00223e1c
    c518:	00143663 	andseq	r3, r4, r3, ror #12
    c51c:	693f7e68 	ldmdbvs	pc!, {r3, r5, r6, r9, sl, fp, ip, sp, lr}	; <UNPREDICTABLE>
    c520:	00204243 	eoreq	r4, r0, r3, asr #4
    c524:	7e2b2900 	cdpvc	9, 2, cr2, cr11, cr0, {0}
    c528:	00292b7e 	eoreq	r2, r9, lr, ror fp
    c52c:	25057f7f 	strcs	r7, [r5, #-3967]	; 0xf7f
    c530:	00a0fa77 	adceq	pc, r0, r7, ror sl	; <UNPREDICTABLE>
    c534:	fe88c040 	cdp2	0, 8, cr12, cr8, cr0, {2}
    c538:	0203097f 	andeq	r0, r3, #2080768	; 0x1fc000
    c53c:	56547420 	ldrbpl	r7, [r4], -r0, lsr #8
    c540:	0041793d 	subeq	r7, r1, sp, lsr r9
    c544:	7e440000 	cdpvc	0, 4, cr0, cr4, cr0, {0}
    c548:	0001417d 	andeq	r4, r1, sp, ror r1
    c54c:	46447c38 			; <UNDEFINED> instruction: 0x46447c38
    c550:	00397d45 	eorseq	r7, r9, r5, asr #26
    c554:	42407c3c 	submi	r7, r0, #60, 24	; 0x3c00
    c558:	00417d3d 	subeq	r7, r1, sp, lsr sp
    c55c:	06797d06 	ldrbteq	r7, [r9], -r6, lsl #26
    c560:	00797d06 	rsbseq	r7, r9, r6, lsl #26
    c564:	1a0d7d7e 	bne	36bb64 <__bss_end__+0x35ec9c>
    c568:	007d7d32 	rsbseq	r7, sp, r2, lsr sp
    c56c:	2d2d2000 	stccs	0, cr2, [sp, #-0]
    c570:	00202e27 	eoreq	r2, r0, r7, lsr #28
    c574:	292f2600 	stmdbcs	pc!, {r9, sl, sp}	; <UNPREDICTABLE>
    c578:	0000262f 	andeq	r2, r0, pc, lsr #12
    c57c:	454d7830 	strbmi	r7, [sp, #-2096]	; 0x830
    c580:	00307040 	eorseq	r7, r0, r0, asr #32
    c584:	08083838 	stmdaeq	r8, {r3, r4, r5, fp, ip, sp}
    c588:	00000808 	andeq	r0, r0, r8, lsl #16
    c58c:	08080808 	stmdaeq	r8, {r3, fp}
    c590:	00003838 	andeq	r3, r0, r8, lsr r8
    c594:	4c081f2f 	stcmi	15, cr1, [r8], {47}	; 0x2f
    c598:	0058786a 	subseq	r7, r8, sl, ror #16
    c59c:	34281f2f 	strtcc	r1, [r8], #-3887	; 0xf2f
    c5a0:	0020787a 	eoreq	r7, r0, sl, ror r8
    c5a4:	7d300000 	ldcvc	0, cr0, [r0, #-0]
    c5a8:	0000307d 	andeq	r3, r0, sp, ror r0
    c5ac:	2a361c08 	bcs	d935d4 <__bss_end__+0xd8670c>
    c5b0:	0022361c 	eoreq	r3, r2, ip, lsl r6
    c5b4:	2a1c3622 	bcs	719e44 <__bss_end__+0x70cf7c>
    c5b8:	00081c36 	andeq	r1, r8, r6, lsr ip
    c5bc:	005500aa 	subseq	r0, r5, sl, lsr #1
    c5c0:	005500aa 	subseq	r0, r5, sl, lsr #1
    c5c4:	55aa55aa 	strpl	r5, [sl, #1450]!	; 0x5aa
    c5c8:	55aa55aa 	strpl	r5, [sl, #1450]!	; 0x5aa
    c5cc:	77aaffdd 	sbfxvc	pc, sp, #31, #11
    c5d0:	77ffaadd 	ubfxvc	sl, sp, #21, #32
    c5d4:	ff000000 			; <UNDEFINED> instruction: 0xff000000
    c5d8:	000000ff 	strdeq	r0, [r0], -pc	; <UNPREDICTABLE>
    c5dc:	ff101010 			; <UNDEFINED> instruction: 0xff101010
    c5e0:	000000ff 	strdeq	r0, [r0], -pc	; <UNPREDICTABLE>
    c5e4:	ff141414 			; <UNDEFINED> instruction: 0xff141414
    c5e8:	000000ff 	strdeq	r0, [r0], -pc	; <UNPREDICTABLE>
    c5ec:	ffff1010 			; <UNDEFINED> instruction: 0xffff1010
    c5f0:	00ffff00 	rscseq	pc, pc, r0, lsl #30
    c5f4:	f0f01010 			; <UNDEFINED> instruction: 0xf0f01010
    c5f8:	00f0f010 	rscseq	pc, r0, r0, lsl r0	; <UNPREDICTABLE>
    c5fc:	fc141414 	ldc2	4, cr1, [r4], {20}
    c600:	000000fc 	strdeq	r0, [r0], -ip
    c604:	f7f71414 			; <UNDEFINED> instruction: 0xf7f71414
    c608:	00ffff00 	rscseq	pc, pc, r0, lsl #30
    c60c:	ffff0000 			; <UNDEFINED> instruction: 0xffff0000
    c610:	00ffff00 	rscseq	pc, pc, r0, lsl #30
    c614:	f4f41414 			; <UNDEFINED> instruction: 0xf4f41414
    c618:	00fcfc04 	rscseq	pc, ip, r4, lsl #24
    c61c:	17171414 			; <UNDEFINED> instruction: 0x17171414
    c620:	001f1f10 	andseq	r1, pc, r0, lsl pc	; <UNPREDICTABLE>
    c624:	1f1f1010 	svcne	0x001f1010
    c628:	001f1f10 	andseq	r1, pc, r0, lsl pc	; <UNPREDICTABLE>
    c62c:	1f141414 	svcne	0x00141414
    c630:	0000001f 	andeq	r0, r0, pc, lsl r0
    c634:	f0101010 			; <UNDEFINED> instruction: 0xf0101010
    c638:	000000f0 	strdeq	r0, [r0], -r0	; <UNPREDICTABLE>
    c63c:	1f000000 	svcne	0x00000000
    c640:	1010101f 	andsne	r1, r0, pc, lsl r0
    c644:	1f101010 	svcne	0x00101010
    c648:	1010101f 	andsne	r1, r0, pc, lsl r0
    c64c:	f0101010 			; <UNDEFINED> instruction: 0xf0101010
    c650:	101010f0 	ldrshne	r1, [r0], -r0
    c654:	ff000000 			; <UNDEFINED> instruction: 0xff000000
    c658:	101010ff 	ldrshne	r1, [r0], -pc	; <UNPREDICTABLE>
    c65c:	10101010 	andsne	r1, r0, r0, lsl r0
    c660:	10101010 	andsne	r1, r0, r0, lsl r0
    c664:	ff101010 			; <UNDEFINED> instruction: 0xff101010
    c668:	101010ff 	ldrshne	r1, [r0], -pc	; <UNPREDICTABLE>
    c66c:	ff000000 			; <UNDEFINED> instruction: 0xff000000
    c670:	141414ff 	ldrne	r1, [r4], #-1279	; 0x4ff
    c674:	ffff0000 			; <UNDEFINED> instruction: 0xffff0000
    c678:	10ffff00 	rscsne	pc, pc, r0, lsl #30
    c67c:	1f1f0000 	svcne	0x001f0000
    c680:	14171710 	ldrne	r1, [r7], #-1808	; 0x710
    c684:	fcfc0000 	ldc2l	0, cr0, [ip]
    c688:	14f4f404 	ldrbtne	pc, [r4], #1028	; 0x404	; <UNPREDICTABLE>
    c68c:	17171414 			; <UNDEFINED> instruction: 0x17171414
    c690:	14171710 	ldrne	r1, [r7], #-1808	; 0x710
    c694:	f4f41414 			; <UNDEFINED> instruction: 0xf4f41414
    c698:	14f4f404 	ldrbtne	pc, [r4], #1028	; 0x404	; <UNPREDICTABLE>
    c69c:	ffff0000 			; <UNDEFINED> instruction: 0xffff0000
    c6a0:	14f7f700 	ldrbtne	pc, [r7], #1792	; 0x700	; <UNPREDICTABLE>
    c6a4:	14141414 	ldrne	r1, [r4], #-1044	; 0x414
    c6a8:	14141414 	ldrne	r1, [r4], #-1044	; 0x414
    c6ac:	f7f71414 			; <UNDEFINED> instruction: 0xf7f71414
    c6b0:	14f7f700 	ldrbtne	pc, [r7], #1792	; 0x700	; <UNPREDICTABLE>
    c6b4:	17141414 			; <UNDEFINED> instruction: 0x17141414
    c6b8:	14141417 	ldrne	r1, [r4], #-1047	; 0x417
    c6bc:	1f1f1010 	svcne	0x001f1010
    c6c0:	101f1f10 	andsne	r1, pc, r0, lsl pc	; <UNPREDICTABLE>
    c6c4:	f4141414 			; <UNDEFINED> instruction: 0xf4141414
    c6c8:	141414f4 	ldrne	r1, [r4], #-1268	; 0x4f4
    c6cc:	f0f01010 			; <UNDEFINED> instruction: 0xf0f01010
    c6d0:	10f0f010 	rscsne	pc, r0, r0, lsl r0	; <UNPREDICTABLE>
    c6d4:	1f1f0000 	svcne	0x001f0000
    c6d8:	101f1f10 	andsne	r1, pc, r0, lsl pc	; <UNPREDICTABLE>
    c6dc:	1f000000 	svcne	0x00000000
    c6e0:	1414141f 	ldrne	r1, [r4], #-1055	; 0x41f
    c6e4:	fc000000 	stc2	0, cr0, [r0], {-0}
    c6e8:	141414fc 	ldrne	r1, [r4], #-1276	; 0x4fc
    c6ec:	f0f00000 			; <UNDEFINED> instruction: 0xf0f00000
    c6f0:	10f0f010 	rscsne	pc, r0, r0, lsl r0	; <UNPREDICTABLE>
    c6f4:	ffff1010 			; <UNDEFINED> instruction: 0xffff1010
    c6f8:	10ffff10 	rscsne	pc, pc, r0, lsl pc	; <UNPREDICTABLE>
    c6fc:	ff141414 			; <UNDEFINED> instruction: 0xff141414
    c700:	141414ff 	ldrne	r1, [r4], #-1279	; 0x4ff
    c704:	1f101010 	svcne	0x00101010
    c708:	0000001f 	andeq	r0, r0, pc, lsl r0
    c70c:	f0000000 			; <UNDEFINED> instruction: 0xf0000000
    c710:	101010f0 	ldrshne	r1, [r0], -r0
    c714:	ffffffff 			; <UNDEFINED> instruction: 0xffffffff
    c718:	ffffffff 			; <UNDEFINED> instruction: 0xffffffff
    c71c:	f0f0f0f0 			; <UNDEFINED> instruction: 0xf0f0f0f0
    c720:	f0f0f0f0 			; <UNDEFINED> instruction: 0xf0f0f0f0
    c724:	ffffffff 			; <UNDEFINED> instruction: 0xffffffff
	...
    c730:	ffffffff 			; <UNDEFINED> instruction: 0xffffffff
    c734:	0f0f0f0f 	svceq	0x000f0f0f
    c738:	0f0f0f0f 	svceq	0x000f0f0f
    c73c:	64447c38 	strbvs	r7, [r4], #-3128	; 0xc38
    c740:	00406c38 	subeq	r6, r0, r8, lsr ip
    c744:	4501ff7e 	strmi	pc, [r1, #-3966]	; 0xf7e
    c748:	00307a4f 	eorseq	r7, r0, pc, asr #20
    c74c:	417f7f41 	cmnmi	pc, r1, asr #30
    c750:	00030101 	andeq	r0, r3, r1, lsl #2
    c754:	043c7c08 	ldrteq	r7, [ip], #-3080	; 0xc08
    c758:	00063c7c 	andeq	r3, r6, ip, ror ip
    c75c:	5d776341 	ldclpl	3, cr6, [r7, #-260]!	; 0xfffffefc
    c760:	00634149 	rsbeq	r4, r3, r9, asr #2
    c764:	4c447c38 	mcrrmi	12, 3, r7, r4, cr8
    c768:	00040434 	andeq	r0, r4, r4, lsr r4
    c76c:	40407cfc 	strdmi	r7, [r0], #-204	; 0xffffff34
    c770:	00003c7c 	andeq	r3, r0, ip, ror ip
    c774:	7c040c08 	stcvc	12, cr0, [r4], {8}
    c778:	0004043c 	andeq	r0, r4, ip, lsr r4
    c77c:	ffa53c18 			; <UNDEFINED> instruction: 0xffa53c18
    c780:	00183ca5 	andseq	r3, r8, r5, lsr #25
    c784:	49497f3e 	stmdbmi	r9, {r1, r2, r3, r4, r5, r8, r9, sl, fp, ip, sp, lr}^
    c788:	003e7f49 	eorseq	r7, lr, r9, asr #30
    c78c:	01715f4e 	cmneq	r1, lr, asr #30
    c790:	004e5f71 	subeq	r5, lr, r1, ror pc
    c794:	4d4b7830 	stclmi	8, cr7, [fp, #-192]	; 0xffffff40
    c798:	0002397d 	andeq	r3, r2, sp, ror r9
    c79c:	18242418 	stmdane	r4!, {r3, r4, sl, sp}
    c7a0:	18242418 	stmdane	r4!, {r3, r4, sl, sp}
    c7a4:	3c347458 	cfldrscc	mvf7, [r4], #-352	; 0xfffffea0
    c7a8:	001a2e2c 	andseq	r2, sl, ip, lsr #28
    c7ac:	54547c38 	ldrbpl	r7, [r4], #-3128	; 0xc38
    c7b0:	00004454 	andeq	r4, r0, r4, asr r4
    c7b4:	02027e7c 	andeq	r7, r2, #124, 28	; 0x7c0
    c7b8:	007c7e02 	rsbseq	r7, ip, r2, lsl #28
    c7bc:	2a2a2a2a 	bcs	a9706c <__bss_end__+0xa8a1a4>
    c7c0:	002a2a2a 	eoreq	r2, sl, sl, lsr #20
    c7c4:	5f444400 	svcpl	0x00444400
    c7c8:	0044445f 	subeq	r4, r4, pc, asr r4
    c7cc:	5b514000 	blpl	145c7d4 <__bss_end__+0x144f90c>
    c7d0:	0000444e 	andeq	r4, r0, lr, asr #8
    c7d4:	5b4e4400 	blpl	139d7dc <__bss_end__+0x1390914>
    c7d8:	00004051 	andeq	r4, r0, r1, asr r0
    c7dc:	fe000000 	cdp2	0, 0, cr0, cr0, cr0, {0}
    c7e0:	060701ff 			; <UNDEFINED> instruction: 0x060701ff
    c7e4:	ff80e060 			; <UNDEFINED> instruction: 0xff80e060
    c7e8:	0000007f 	andeq	r0, r0, pc, ror r0
    c7ec:	2a080800 	bcs	20e7f4 <__bss_end__+0x20192c>
    c7f0:	0008082a 	andeq	r0, r8, sl, lsr #16
    c7f4:	36123624 	ldrcc	r3, [r2], -r4, lsr #12
    c7f8:	00123624 	andseq	r3, r2, r4, lsr #12
    c7fc:	05070200 	streq	r0, [r7, #-512]	; 0x200
    c800:	00000207 	andeq	r0, r0, r7, lsl #4
    c804:	18000000 	stmdane	r0, {}	; <UNPREDICTABLE>
    c808:	00000018 	andeq	r0, r0, r8, lsl r0
    c80c:	10000000 	andne	r0, r0, r0
    c810:	00000010 	andeq	r0, r0, r0, lsl r0
    c814:	40703010 	rsbsmi	r3, r0, r0, lsl r0
    c818:	01017f7f 	tsteq	r1, pc, ror pc
    c81c:	010e0f01 	tsteq	lr, r1, lsl #30
    c820:	00000e0f 	andeq	r0, r0, pc, lsl #28
    c824:	0b0b0d0d 	bleq	2cfc60 <__bss_end__+0x2c2d98>
    c828:	00000000 	andeq	r0, r0, r0
    c82c:	3c3c0000 	ldccc	0, cr0, [ip], #-0
    c830:	00003c3c 	andeq	r3, r0, ip, lsr ip
	...

0000c83c <__FUNCTION__.3867>:
    c83c:	74696d65 	strbtvc	r6, [r9], #-3429	; 0xd65
    c840:	00000000 	andeq	r0, r0, r0

0000c844 <__FUNCTION__.3882>:
    c844:	705f6176 	subsvc	r6, pc, r6, ror r1	; <UNPREDICTABLE>
    c848:	746e6972 	strbtvc	r6, [lr], #-2418	; 0x972
    c84c:	0000006b 	andeq	r0, r0, fp, rrx
    c850:	494e4150 	stmdbmi	lr, {r4, r6, r8, lr}^
    c854:	73253a43 	teqvc	r5, #274432	; 0x43000
    c858:	3a73253a 	bcc	1cd5d48 <__bss_end__+0x1cc8e80>
    c85c:	303a6425 	eorscc	r6, sl, r5, lsr #8
    c860:	0000000a 	andeq	r0, r0, sl
    c864:	34317363 	ldrtcc	r7, [r1], #-867	; 0x363
    c868:	702d6530 	eorvc	r6, sp, r0, lsr r5
    c86c:	746e6972 	strbtvc	r6, [lr], #-2418	; 0x972
    c870:	00632e66 	rsbeq	r2, r3, r6, ror #28
    c874:	33323130 	teqcc	r2, #48, 2
    c878:	37363534 			; <UNDEFINED> instruction: 0x37363534
    c87c:	62613938 	rsbvs	r3, r1, #56, 18	; 0xe0000
    c880:	66656463 	strbtvs	r6, [r5], -r3, ror #8
    c884:	00000000 	andeq	r0, r0, r0
    c888:	00003130 	andeq	r3, r0, r0, lsr r1
    c88c:	494e4150 	stmdbmi	lr, {r4, r6, r8, lr}^
    c890:	73253a43 	teqvc	r5, #274432	; 0x43000
    c894:	3a73253a 	bcc	1cd5d84 <__bss_end__+0x1cc8ebc>
    c898:	773a6425 	ldrvc	r6, [sl, -r5, lsr #8]!
    c89c:	68746469 	ldmdavs	r4!, {r0, r3, r5, r6, sl, sp, lr}^
    c8a0:	33203c20 	teqcc	r0, #32, 24	; 0x2000
    c8a4:	00000a32 	andeq	r0, r0, r2, lsr sl
    c8a8:	494e4150 	stmdbmi	lr, {r4, r6, r8, lr}^
    c8ac:	73253a43 	teqvc	r5, #274432	; 0x43000
    c8b0:	3a73253a 	bcc	1cd5da0 <__bss_end__+0x1cc8ed8>
    c8b4:	663a6425 	ldrtvs	r6, [sl], -r5, lsr #8
    c8b8:	74616f6c 	strbtvc	r6, [r1], #-3948	; 0xf6c
    c8bc:	746f6e20 	strbtvc	r6, [pc], #-3616	; c8c4 <__FUNCTION__.3882+0x80>
    c8c0:	616e6520 	cmnvs	lr, r0, lsr #10
    c8c4:	64656c62 	strbtvs	r6, [r5], #-3170	; 0xc62
    c8c8:	0a212121 	beq	854d54 <__bss_end__+0x847e8c>
    c8cc:	00000000 	andeq	r0, r0, r0
    c8d0:	494e4150 	stmdbmi	lr, {r4, r6, r8, lr}^
    c8d4:	73253a43 	teqvc	r5, #274432	; 0x43000
    c8d8:	3a73253a 	bcc	1cd5dc8 <__bss_end__+0x1cc8f00>
    c8dc:	703a6425 	eorsvc	r6, sl, r5, lsr #8
    c8e0:	746e6972 	strbtvc	r6, [lr], #-2418	; 0x972
    c8e4:	6e203a6b 	vnmulvs.f32	s6, s0, s23
    c8e8:	6820746f 	stmdavs	r0!, {r0, r1, r2, r3, r5, r6, sl, ip, sp, lr}
    c8ec:	6c646e61 	stclvs	14, cr6, [r4], #-388	; 0xfffffe7c
    c8f0:	20676e69 	rsbcs	r6, r7, r9, ror #28
    c8f4:	63657073 	cmnvs	r5, #115	; 0x73
    c8f8:	65696669 	strbvs	r6, [r9, #-1641]!	; 0x669
    c8fc:	25272072 	strcs	r2, [r7, #-114]!	; 0x72
    c900:	0a0a2763 	beq	296694 <__bss_end__+0x2897cc>
    c904:	00000000 	andeq	r0, r0, r0
    c908:	00007825 	andeq	r7, r0, r5, lsr #16
    c90c:	4e41503c 	mcrmi	0, 2, r5, cr1, cr12, {1}
    c910:	3a3e4349 	bcc	f9d63c <__bss_end__+0xf90774>
    c914:	00000000 	andeq	r0, r0, r0
    c918:	253a7325 	ldrcs	r7, [sl, #-805]!	; 0x325
    c91c:	50203a64 	eorpl	r3, r0, r4, ror #20
    c920:	43494e41 	movtmi	r4, #40513	; 0x9e41
    c924:	4e415020 	cdpmi	0, 4, cr5, cr1, cr0, {1}
    c928:	50204349 	eorpl	r4, r0, r9, asr #6
    c92c:	43494e41 	movtmi	r4, #40513	; 0x9e41
    c930:	7325203a 	teqvc	r5, #58	; 0x3a
    c934:	0000000a 	andeq	r0, r0, sl

0000c938 <__FUNCTION__.3818>:
    c938:	5f697072 	svcpl	0x00697072
    c93c:	6f626572 	svcvs	0x00626572
    c940:	0000746f 	andeq	r7, r0, pc, ror #8
    c944:	494e4150 	stmdbmi	lr, {r4, r6, r8, lr}^
    c948:	73253a43 	teqvc	r5, #274432	; 0x43000
    c94c:	3a73253a 	bcc	1cd5e3c <__bss_end__+0x1cc8f74>
    c950:	613a6425 	teqvs	sl, r5, lsr #8
    c954:	73755f74 	cmnvc	r5, #116, 30	; 0x1d0
    c958:	6c5f7265 	lfmvs	f7, 2, [pc], {101}	; 0x65
    c95c:	6c657665 	stclvs	6, cr7, [r5], #-404	; 0xfffffe6c
    c960:	000a2928 	andeq	r2, sl, r8, lsr #18
    c964:	34317363 	ldrtcc	r7, [r1], #-867	; 0x363
    c968:	722d6530 	eorvc	r6, sp, #48, 10	; 0xc000000
    c96c:	6f6f6265 	svcvs	0x006f6265
    c970:	00632e74 	rsbeq	r2, r3, r4, ror lr
    c974:	454e4f44 	strbmi	r4, [lr, #-3908]	; 0xf44
    c978:	0a212121 	beq	854e04 <__bss_end__+0x847f3c>
    c97c:	00000000 	andeq	r0, r0, r0

0000c980 <__FUNCTION__.3823>:
    c980:	6c616d6b 	stclvs	13, cr6, [r1], #-428	; 0xfffffe54
    c984:	5f636f6c 	svcpl	0x00636f6c
    c988:	5f746573 	svcpl	0x00746573
    c98c:	72617473 	rsbvc	r7, r1, #1929379840	; 0x73000000
    c990:	00000074 	andeq	r0, r0, r4, ror r0

0000c994 <__FUNCTION__.3832>:
    c994:	6c616d6b 	stclvs	13, cr6, [r1], #-428	; 0xfffffe54
    c998:	5f636f6c 	svcpl	0x00636f6c
    c99c:	67696c61 	strbvs	r6, [r9, -r1, ror #24]!
    c9a0:	0064656e 	rsbeq	r6, r4, lr, ror #10
    c9a4:	494e4150 	stmdbmi	lr, {r4, r6, r8, lr}^
    c9a8:	73253a43 	teqvc	r5, #274432	; 0x43000
    c9ac:	3a73253a 	bcc	1cd5e9c <__bss_end__+0x1cc8fd4>
    c9b0:	613a6425 	teqvs	sl, r5, lsr #8
    c9b4:	20726464 	rsbscs	r6, r2, r4, ror #8
    c9b8:	6568203e 	strbvs	r2, [r8, #-62]!	; 0x3e
    c9bc:	000a7061 	andeq	r7, sl, r1, rrx
    c9c0:	34317363 	ldrtcc	r7, [r1], #-867	; 0x363
    c9c4:	6b2d6530 	blvs	b65e8c <__bss_end__+0xb58fc4>
    c9c8:	6c6c616d 	stfvse	f6, [ip], #-436	; 0xfffffe4c
    c9cc:	632e636f 	teqvs	lr, #-1140850687	; 0xbc000001
    c9d0:	00000000 	andeq	r0, r0, r0
    c9d4:	4f525245 	svcmi	0x00525245
    c9d8:	73253a52 	teqvc	r5, #335872	; 0x52000
    c9dc:	3a73253a 	bcc	1cd5ecc <__bss_end__+0x1cc9004>
    c9e0:	203a6425 	eorscs	r6, sl, r5, lsr #8
    c9e4:	534c4146 	movtpl	r4, #49478	; 0xc146
    c9e8:	283c2845 	ldmdacs	ip!, {r0, r2, r6, fp, sp}
    c9ec:	6c612828 	stclvs	8, cr2, [r1], #-160	; 0xffffff60
    c9f0:	6d6e6769 	stclvs	7, cr6, [lr, #-420]!	; 0xfffffe5c
    c9f4:	29746e65 	ldmdbcs	r4!, {r0, r2, r5, r6, r9, sl, fp, sp, lr}^
    c9f8:	61282d26 	teqvs	r8, r6, lsr #26
    c9fc:	6e67696c 	cdpvs	9, 6, cr6, cr7, cr12, {3}
    ca00:	746e656d 	strbtvc	r6, [lr], #-1389	; 0x56d
    ca04:	3d202929 	stccc	9, cr2, [r0, #-164]!	; 0xffffff5c
    ca08:	6128203d 	teqvs	r8, sp, lsr r0
    ca0c:	6e67696c 	cdpvs	9, 6, cr6, cr7, cr12, {3}
    ca10:	746e656d 	strbtvc	r6, [lr], #-1389	; 0x56d
    ca14:	293e2929 	ldmdbcs	lr!, {r0, r3, r5, r8, fp, sp}
    ca18:	7361203a 	cmnvc	r1, #58	; 0x3a
    ca1c:	696d7573 	stmdbvs	sp!, {r0, r1, r4, r5, r6, r8, sl, ip, sp, lr}^
    ca20:	7020676e 	eorvc	r6, r0, lr, ror #14
    ca24:	7265776f 	rsbvc	r7, r5, #29097984	; 0x1bc0000
    ca28:	20666f20 	rsbcs	r6, r6, r0, lsr #30
    ca2c:	0a6f7774 	beq	1bea804 <__bss_end__+0x1bdd93c>
    ca30:	00000000 	andeq	r0, r0, r0
    ca34:	4f525245 	svcmi	0x00525245
    ca38:	73253a52 	teqvc	r5, #335872	; 0x52000
    ca3c:	3a73253a 	bcc	1cd5f2c <__bss_end__+0x1cc9064>
    ca40:	203a6425 	eorscs	r6, sl, r5, lsr #8
    ca44:	534c4146 	movtpl	r4, #49478	; 0xc146
    ca48:	283c2845 	ldmdacs	ip!, {r0, r2, r6, fp, sp}
    ca4c:	29682828 	stmdbcs	r8!, {r3, r5, fp, sp}^
    ca50:	28202620 	stmdacs	r0!, {r5, r9, sl, sp}
    ca54:	70797428 	rsbsvc	r7, r9, r8, lsr #8
    ca58:	28666f65 	stmdacs	r6!, {r0, r2, r5, r6, r8, r9, sl, fp, sp, lr}^
    ca5c:	28292968 	stmdacs	r9!, {r3, r5, r6, r8, fp, sp}
    ca60:	67696c61 	strbvs	r6, [r9, -r1, ror #24]!
    ca64:	6e656d6e 	cdpvs	13, 6, cr6, cr5, cr14, {3}
    ca68:	2d202974 	stccs	9, cr2, [r0, #-464]!	; 0xfffffe30
    ca6c:	29293120 	stmdbcs	r9!, {r5, r8, ip, sp}
    ca70:	203d3d20 	eorscs	r3, sp, r0, lsr #26
    ca74:	293e2930 	ldmdbcs	lr!, {r4, r5, r8, fp, sp}
    ca78:	6d69203a 	stclvs	0, cr2, [r9, #-232]!	; 0xffffff18
    ca7c:	73736f70 	cmnvc	r3, #112, 30	; 0x1c0
    ca80:	656c6269 	strbvs	r6, [ip, #-617]!	; 0x269
    ca84:	0000000a 	andeq	r0, r0, sl

Disassembly of section .bss:

0000ca88 <__bss_start__>:
	...

0000ca94 <nthreads>:
    ca94:	00000000 	andeq	r0, r0, r0

0000ca98 <runq>:
	...

0000caa4 <cur_thread>:
    caa4:	00000000 	andeq	r0, r0, r0

0000caa8 <scheduler_thread>:
    caa8:	00000000 	andeq	r0, r0, r0

0000caac <buf.3909>:
	...

0000ceac <password_attempt>:
    ceac:	00000000 	andeq	r0, r0, r0

0000ceb0 <hex_screen_history>:
	...

Disassembly of section .comment:

00000000 <.comment>:
   0:	3a434347 	bcc	10d0d24 <__bss_end__+0x10c3e5c>
   4:	4e472820 	cdpmi	8, 4, cr2, cr7, cr0, {1}
   8:	34202955 	strtcc	r2, [r0], #-2389	; 0x955
   c:	332e382e 	teqcc	lr, #3014656	; 0x2e0000
  10:	43434700 	movtmi	r4, #14080	; 0x3700
  14:	4728203a 			; <UNDEFINED> instruction: 0x4728203a
  18:	5420554e 	strtpl	r5, [r0], #-1358	; 0x54e
  1c:	736c6f6f 	cmnvc	ip, #444	; 0x1bc
  20:	726f6620 	rsbvc	r6, pc, #32, 12	; 0x2000000
  24:	6d724120 	ldfvse	f4, [r2, #-128]!	; 0xffffff80
  28:	626d4520 	rsbvs	r4, sp, #32, 10	; 0x8000000
  2c:	65646465 	strbvs	r6, [r4, #-1125]!	; 0x465
  30:	72502064 	subsvc	r2, r0, #100	; 0x64
  34:	7365636f 	cmnvc	r5, #-1140850687	; 0xbc000001
  38:	73726f73 	cmnvc	r2, #460	; 0x1cc
  3c:	322d3720 	eorcc	r3, sp, #32, 14	; 0x800000
  40:	2d373130 	ldfcss	f3, [r7, #-192]!	; 0xffffff40
  44:	6d2d3471 	cfstrsvs	mvf3, [sp, #-452]!	; 0xfffffe3c
  48:	726f6a61 	rsbvc	r6, pc, #397312	; 0x61000
  4c:	2e372029 	cdpcs	0, 3, cr2, cr7, cr9, {1}
  50:	20312e32 	eorscs	r2, r1, r2, lsr lr
  54:	37313032 			; <UNDEFINED> instruction: 0x37313032
  58:	34303930 	ldrtcc	r3, [r0], #-2352	; 0x930
  5c:	65722820 	ldrbvs	r2, [r2, #-2080]!	; 0x820
  60:	7361656c 	cmnvc	r1, #108, 10	; 0x1b000000
  64:	5b202965 	blpl	80a600 <__bss_end__+0x7fd738>
  68:	2f4d5241 	svccs	0x004d5241
  6c:	65626d65 	strbvs	r6, [r2, #-3429]!	; 0xd65
  70:	64656464 	strbtvs	r6, [r5], #-1124	; 0x464
  74:	622d372d 	eorvs	r3, sp, #11796480	; 0xb40000
  78:	636e6172 	cmnvs	lr, #-2147483620	; 0x8000001c
  7c:	65722068 	ldrbvs	r2, [r2, #-104]!	; 0x68
  80:	69736976 	ldmdbvs	r3!, {r1, r2, r4, r5, r6, r8, fp, sp, lr}^
  84:	32206e6f 	eorcc	r6, r0, #1776	; 0x6f0
  88:	30323535 	eorscc	r3, r2, r5, lsr r5
  8c:	Address 0x000000000000008c is out of bounds.


Disassembly of section .ARM.attributes:

00000000 <.ARM.attributes>:
   0:	00002c41 	andeq	r2, r0, r1, asr #24
   4:	61656100 	cmnvs	r5, r0, lsl #2
   8:	01006962 	tsteq	r0, r2, ror #18
   c:	00000022 	andeq	r0, r0, r2, lsr #32
  10:	4b5a3605 	blmi	168d82c <__bss_end__+0x1680964>
  14:	08070600 	stmdaeq	r7, {r9, sl}
  18:	12010901 	andne	r0, r1, #16384	; 0x4000
  1c:	15011404 	strne	r1, [r1, #-1028]	; 0x404
  20:	18031701 	stmdane	r3, {r0, r8, r9, sl, ip}
  24:	1e011a01 	vmlane.f32	s2, s2, s2
  28:	44012201 	strmi	r2, [r1], #-513	; 0x201
  2c:	Address 0x000000000000002c is out of bounds.


Disassembly of section .debug_info:

00000000 <.debug_info>:
   0:	00000530 	andeq	r0, r0, r0, lsr r5
   4:	00000004 	andeq	r0, r0, r4
   8:	01040000 	mrseq	r0, (UNDEF: 4)
   c:	000000fe 	strdeq	r0, [r0], -lr
  10:	0004360c 	andeq	r3, r4, ip, lsl #12
  14:	d0002e00 	andle	r2, r0, r0, lsl #28
  18:	600000a3 	andvs	r0, r0, r3, lsr #1
  1c:	00000002 	andeq	r0, r0, r2
  20:	02000000 	andeq	r0, r0, #0
  24:	01810107 	orreq	r0, r1, r7, lsl #2
  28:	18020000 	stmdane	r2, {}	; <UNPREDICTABLE>
  2c:	00000181 	andeq	r0, r0, r1, lsl #3
  30:	00030003 	andeq	r0, r3, r3
  34:	91030000 	mrsls	r0, (UNDEF: 3)
  38:	00000003 	andeq	r0, r0, r3
  3c:	00039b03 	andeq	r9, r3, r3, lsl #22
  40:	a5030100 	strge	r0, [r3, #-256]	; 0x100
  44:	02000003 	andeq	r0, r0, #3
  48:	0003af03 	andeq	sl, r3, r3, lsl #30
  4c:	b9030300 	stmdblt	r3, {r8, r9}
  50:	04000003 	streq	r0, [r0], #-3
  54:	0003c303 	andeq	ip, r3, r3, lsl #6
  58:	cd030500 	cfstr32gt	mvfx0, [r3, #-0]
  5c:	06000003 	streq	r0, [r0], -r3
  60:	0003d703 	andeq	sp, r3, r3, lsl #14
  64:	e1030700 	tst	r3, r0, lsl #14
  68:	08000003 	stmdaeq	r0, {r0, r1}
  6c:	0003eb03 	andeq	lr, r3, r3, lsl #22
  70:	3d030900 	stccc	9, cr0, [r3, #-0]
  74:	0a000002 	beq	84 <_start-0x7f7c>
  78:	00024803 	andeq	r4, r2, r3, lsl #16
  7c:	53030b00 	movwpl	r0, #15104	; 0x3b00
  80:	0c000002 	stceq	0, cr0, [r0], {2}
  84:	00025e03 	andeq	r5, r2, r3, lsl #28
  88:	69030d00 	stmdbvs	r3, {r8, sl, fp}
  8c:	0e000002 	cdpeq	0, 0, cr0, cr0, cr2, {0}
  90:	00027403 	andeq	r7, r2, r3, lsl #8
  94:	7f030f00 	svcvc	0x00030f00
  98:	10000002 	andne	r0, r0, r2
  9c:	00028a03 	andeq	r8, r2, r3, lsl #20
  a0:	95031100 	strls	r1, [r3, #-256]	; 0x100
  a4:	12000002 	andne	r0, r0, #2
  a8:	0002a003 	andeq	sl, r2, r3
  ac:	ff031300 			; <UNDEFINED> instruction: 0xff031300
  b0:	14000003 	strne	r0, [r0], #-3
  b4:	00040a03 	andeq	r0, r4, r3, lsl #20
  b8:	15031500 	strne	r1, [r3, #-1280]	; 0x500
  bc:	16000004 	strne	r0, [r0], -r4
  c0:	00042003 	andeq	r2, r4, r3
  c4:	2b031700 	blcs	c5ccc <__bss_end__+0xb8e04>
  c8:	18000004 	stmdane	r0, {r2}
  cc:	0002ba03 	andeq	fp, r2, r3, lsl #20
  d0:	3d031900 	stccc	9, cr1, [r3, #-0]
  d4:	1a000004 	bne	ec <_start-0x7f14>
  d8:	00044803 	andeq	r4, r4, r3, lsl #16
  dc:	53031b00 	movwpl	r1, #15104	; 0x3b00
  e0:	1c000004 	stcne	0, cr0, [r0], {4}
  e4:	00045e03 	andeq	r5, r4, r3, lsl #28
  e8:	3f031d00 	svccc	0x00031d00
  ec:	1e000000 	cdpne	0, 0, cr0, cr0, cr0, {0}
  f0:	00004a03 	andeq	r4, r0, r3, lsl #20
  f4:	55031f00 	strpl	r1, [r3, #-3840]	; 0xf00
  f8:	20000000 	andcs	r0, r0, r0
  fc:	00006003 	andeq	r6, r0, r3
 100:	6b032100 	blvs	c8508 <__bss_end__+0xbb640>
 104:	22000000 	andcs	r0, r0, #0
 108:	00007603 	andeq	r7, r0, r3, lsl #12
 10c:	81032300 	mrshi	r2, SP_svc
 110:	24000000 	strcs	r0, [r0], #-0
 114:	00008c03 	andeq	r8, r0, r3, lsl #24
 118:	97032500 	strls	r2, [r3, -r0, lsl #10]
 11c:	26000000 	strcs	r0, [r0], -r0
 120:	0000a203 	andeq	sl, r0, r3, lsl #4
 124:	73032700 	movwvc	r2, #14080	; 0x3700
 128:	28000001 	stmdacs	r0, {r0}
 12c:	00017e03 	andeq	r7, r1, r3, lsl #28
 130:	89032900 	stmdbhi	r3, {r8, fp, sp}
 134:	2a000001 	bcs	140 <_start-0x7ec0>
 138:	00019403 	andeq	r9, r1, r3, lsl #8
 13c:	9f032b00 	svcls	0x00032b00
 140:	2c000001 	stccs	0, cr0, [r0], {1}
 144:	0001aa03 	andeq	sl, r1, r3, lsl #20
 148:	b5032d00 	strlt	r2, [r3, #-3328]	; 0xd00
 14c:	2e000001 	cdpcs	0, 0, cr0, cr0, cr1, {0}
 150:	0001c003 	andeq	ip, r1, r3
 154:	cb032f00 	blgt	cbd5c <__bss_end__+0xbee94>
 158:	30000001 	andcc	r0, r0, r1
 15c:	0001d603 	andeq	sp, r1, r3, lsl #12
 160:	c5033100 	strgt	r3, [r3, #-256]	; 0x100
 164:	32000002 	andcc	r0, r0, #2
 168:	0002d003 	andeq	sp, r2, r3
 16c:	db033300 	blle	ccd74 <__bss_end__+0xbfeac>
 170:	34000002 	strcc	r0, [r0], #-2
 174:	0002e603 	andeq	lr, r2, r3, lsl #12
 178:	cb033500 	blgt	cd580 <__bss_end__+0xc06b8>
 17c:	35000000 	strcc	r0, [r0, #-0]
 180:	08010400 	stmdaeq	r1, {sl}
 184:	000001e1 	andeq	r0, r0, r1, ror #3
 188:	81010702 	tsthi	r1, r2, lsl #14
 18c:	02000001 	andeq	r0, r0, #1
 190:	0001c65d 	andeq	ip, r1, sp, asr r6
 194:	01ef0300 	mvneq	r0, r0, lsl #6
 198:	03000000 	movweq	r0, #0
 19c:	0000001e 	andeq	r0, r0, lr, lsl r0
 1a0:	02f10301 	rscseq	r0, r1, #67108864	; 0x4000000
 1a4:	03040000 	movweq	r0, #16384	; 0x4000
 1a8:	00000000 	andeq	r0, r0, r0
 1ac:	030f0305 	movweq	r0, #62213	; 0xf305
 1b0:	03060000 	movweq	r0, #24576	; 0x6000
 1b4:	00000328 	andeq	r0, r0, r8, lsr #6
 1b8:	00ad0307 	adceq	r0, sp, r7, lsl #6
 1bc:	03030000 	movweq	r0, #12288	; 0x3000
 1c0:	000000bc 	strheq	r0, [r0], -ip
 1c4:	01040002 	tsteq	r4, r2
 1c8:	0001e306 	andeq	lr, r1, r6, lsl #6
 1cc:	05020400 	streq	r0, [r2, #-1024]	; 0x400
 1d0:	00000014 	andeq	r0, r0, r4, lsl r0
 1d4:	f5050404 			; <UNDEFINED> instruction: 0xf5050404
 1d8:	04000000 	streq	r0, [r0], #-0
 1dc:	00f00508 	rscseq	r0, r0, r8, lsl #10
 1e0:	02040000 	andeq	r0, r4, #0
 1e4:	00022507 	andeq	r2, r2, r7, lsl #10
 1e8:	02160500 	andseq	r0, r6, #0, 10
 1ec:	34040000 	strcc	r0, [r4], #-0
 1f0:	000001f4 	strdeq	r0, [r0], -r4
 1f4:	04070404 	streq	r0, [r7], #-1028	; 0x404
 1f8:	04000002 	streq	r0, [r0], #-2
 1fc:	01ff0708 	mvnseq	r0, r8, lsl #14
 200:	04060000 	streq	r0, [r6], #-0
 204:	746e6905 	strbtvc	r6, [lr], #-2309	; 0x905
 208:	07040400 	streq	r0, [r4, -r0, lsl #8]
 20c:	00000209 	andeq	r0, r0, r9, lsl #4
 210:	00022007 	andeq	r2, r2, r7
 214:	0703a000 	streq	sl, [r3, -r0]
 218:	0000033d 	andeq	r0, r0, sp, lsr r3
 21c:	00014d08 	andeq	r4, r1, r8, lsl #26
 220:	42080300 	andmi	r0, r8, #0, 6
 224:	00000003 	andeq	r0, r0, r3
 228:	00016908 	andeq	r6, r1, r8, lsl #18
 22c:	e9090300 	stmdb	r9, {r8, r9}
 230:	18000001 	stmdane	r0, {r0}
 234:	74657309 	strbtvc	r7, [r5], #-777	; 0x309
 238:	520a0300 	andpl	r0, sl, #0, 6
 23c:	1c000003 	stcne	0, cr0, [r0], {3}
 240:	00031e08 	andeq	r1, r3, r8, lsl #28
 244:	e90b0300 	stmdb	fp, {r8, r9}
 248:	24000001 	strcs	r0, [r0], #-1
 24c:	726c6309 	rsbvc	r6, ip, #603979776	; 0x24000000
 250:	520c0300 	andpl	r0, ip, #0, 6
 254:	28000003 	stmdacs	r0, {r0, r1}
 258:	00033708 	andeq	r3, r3, r8, lsl #14
 25c:	e90d0300 	stmdb	sp, {r8, r9}
 260:	30000001 	andcc	r0, r0, r1
 264:	76656c09 	strbtvc	r6, [r5], -r9, lsl #24
 268:	520e0300 	andpl	r0, lr, #0, 6
 26c:	34000003 	strcc	r0, [r0], #-3
 270:	00034108 	andeq	r4, r3, r8, lsl #2
 274:	e90f0300 	stmdb	pc, {r8, r9}	; <UNPREDICTABLE>
 278:	3c000001 	stccc	0, cr0, [r0], {1}
 27c:	73646509 	cmnvc	r4, #37748736	; 0x2400000
 280:	52100300 	andspl	r0, r0, #0, 6
 284:	40000003 	andmi	r0, r0, r3
 288:	00034b08 	andeq	r4, r3, r8, lsl #22
 28c:	e9110300 	ldmdb	r1, {r8, r9}
 290:	48000001 	stmdami	r0, {r0}
 294:	6e657209 	cdpvs	2, 6, cr7, cr5, cr9, {0}
 298:	52120300 	andspl	r0, r2, #0, 6
 29c:	4c000003 	stcmi	0, cr0, [r0], {3}
 2a0:	00035508 	andeq	r5, r3, r8, lsl #10
 2a4:	e9130300 	ldmdb	r3, {r8, r9}
 2a8:	54000001 	strpl	r0, [r0], #-1
 2ac:	6e656609 	cdpvs	6, 6, cr6, cr5, cr9, {0}
 2b0:	52140300 	andspl	r0, r4, #0, 6
 2b4:	58000003 	stmdapl	r0, {r0, r1}
 2b8:	00035f08 	andeq	r5, r3, r8, lsl #30
 2bc:	e9150300 	ldmdb	r5, {r8, r9}
 2c0:	60000001 	andvs	r0, r0, r1
 2c4:	6e656809 	cdpvs	8, 6, cr6, cr5, cr9, {0}
 2c8:	52160300 	andspl	r0, r6, #0, 6
 2cc:	64000003 	strvs	r0, [r0], #-3
 2d0:	00036908 	andeq	r6, r3, r8, lsl #18
 2d4:	e9170300 	ldmdb	r7, {r8, r9}
 2d8:	6c000001 	stcvs	0, cr0, [r0], {1}
 2dc:	6e656c09 	cdpvs	12, 6, cr6, cr5, cr9, {0}
 2e0:	52180300 	andspl	r0, r8, #0, 6
 2e4:	70000003 	andvc	r0, r0, r3
 2e8:	00037308 	andeq	r7, r3, r8, lsl #6
 2ec:	e9190300 	ldmdb	r9, {r8, r9}
 2f0:	78000001 	stmdavc	r0, {r0}
 2f4:	00000f08 	andeq	r0, r0, r8, lsl #30
 2f8:	521a0300 	andspl	r0, sl, #0, 6
 2fc:	7c000003 	stcvc	0, cr0, [r0], {3}
 300:	00037d08 	andeq	r7, r3, r8, lsl #26
 304:	e91b0300 	ldmdb	fp, {r8, r9}
 308:	84000001 	strhi	r0, [r0], #-1
 30c:	00016408 	andeq	r6, r1, r8, lsl #8
 310:	521c0300 	andspl	r0, ip, #0, 6
 314:	88000003 	stmdahi	r0, {r0, r1}
 318:	00038708 	andeq	r8, r3, r8, lsl #14
 31c:	e91d0300 	ldmdb	sp, {r8, r9}
 320:	90000001 	andls	r0, r0, r1
 324:	64757009 	ldrbtvs	r7, [r5], #-9
 328:	e91e0300 	ldmdb	lr, {r8, r9}
 32c:	94000001 	strls	r0, [r0], #-1
 330:	0000e408 	andeq	lr, r0, r8, lsl #8
 334:	521f0300 	andspl	r0, pc, #0, 6
 338:	98000003 	stmdals	r0, {r0, r1}
 33c:	02100a00 	andseq	r0, r0, #0, 20
 340:	e90b0000 	stmdb	fp, {}	; <UNPREDICTABLE>
 344:	52000001 	andpl	r0, r0, #1
 348:	0c000003 	stceq	0, cr0, [r0], {3}
 34c:	00000209 	andeq	r0, r0, r9, lsl #4
 350:	e90b0005 	stmdb	fp, {r0, r2}
 354:	62000001 	andvs	r0, r0, #1
 358:	0c000003 	stceq	0, cr0, [r0], {3}
 35c:	00000209 	andeq	r0, r0, r9, lsl #4
 360:	1f0d0001 	svcne	0x000d0001
 364:	03000002 	movweq	r0, #2
 368:	00037722 	andeq	r7, r3, r2, lsr #14
 36c:	20000000 	andcs	r0, r0, r0
 370:	3d040e20 	stccc	14, cr0, [r4, #-128]	; 0xffffff80
 374:	0f000003 	svceq	0x00000003
 378:	00000371 	andeq	r0, r0, r1, ror r3
 37c:	00047b10 	andeq	r7, r4, r0, lsl fp
 380:	09570100 	ldmdbeq	r7, {r8}^
 384:	dc000002 	stcle	0, cr0, [r0], {2}
 388:	540000a5 	strpl	r0, [r0], #-165	; 0xa5
 38c:	01000000 	mrseq	r0, (UNDEF: 0)
 390:	0003c39c 	muleq	r3, ip, r3
 394:	69701100 	ldmdbvs	r0!, {r8, ip}^
 398:	5701006e 	strpl	r0, [r1, -lr, rrx]
 39c:	00000209 	andeq	r0, r0, r9, lsl #4
 3a0:	00000000 	andeq	r0, r0, r0
 3a4:	00023812 	andeq	r3, r2, r2, lsl r8
 3a8:	095d0100 	ldmdbeq	sp, {r8}^
 3ac:	3a000002 	bcc	3bc <_start-0x7c44>
 3b0:	12000000 	andne	r0, r0, #0
 3b4:	00000147 	andeq	r0, r0, r7, asr #2
 3b8:	02095e01 	andeq	r5, r9, #1, 28
 3bc:	006a0000 	rsbeq	r0, sl, r0
 3c0:	13000000 	movwne	r0, #0
 3c4:	000000d9 	ldrdeq	r0, [r0], -r9
 3c8:	a5644701 	strbge	r4, [r4, #-1793]!	; 0x701
 3cc:	00680000 	rsbeq	r0, r8, r0
 3d0:	9c010000 	stcls	0, cr0, [r1], {-0}
 3d4:	00000413 	andeq	r0, r0, r3, lsl r4
 3d8:	6e697011 	mcrvs	0, 3, r7, cr9, cr1, {0}
 3dc:	09470100 	stmdbeq	r7, {r8}^
 3e0:	8d000002 	stchi	0, cr0, [r0, #-8]
 3e4:	14000000 	strne	r0, [r0], #-0
 3e8:	006c6176 	rsbeq	r6, ip, r6, ror r1
 3ec:	02094701 	andeq	r4, r9, #262144	; 0x40000
 3f0:	51010000 	mrspl	r0, (UNDEF: 1)
 3f4:	00023812 	andeq	r3, r2, r2, lsl r8
 3f8:	094d0100 	stmdbeq	sp, {r8}^
 3fc:	ae000002 	cdpge	0, 0, cr0, cr0, cr2, {0}
 400:	12000000 	andne	r0, r0, #0
 404:	00000147 	andeq	r0, r0, r7, asr #2
 408:	02094e01 	andeq	r4, r9, #1, 28
 40c:	00f60000 	rscseq	r0, r6, r0
 410:	13000000 	movwne	r0, #0
 414:	0000002f 	andeq	r0, r0, pc, lsr #32
 418:	a5344201 	ldrge	r4, [r4, #-513]!	; 0x201
 41c:	00200000 	eoreq	r0, r0, r0
 420:	9c010000 	stcls	0, cr0, [r1], {-0}
 424:	0000044e 	andeq	r0, r0, lr, asr #8
 428:	6e697011 	mcrvs	0, 3, r7, cr9, cr1, {0}
 42c:	09420100 	stmdbeq	r2, {r8}^
 430:	34000002 	strcc	r0, [r0], #-2
 434:	15000001 	strne	r0, [r0, #-1]
 438:	0000a548 	andeq	sl, r0, r8, asr #10
 43c:	000004d0 	ldrdeq	r0, [r0], -r0	; <UNPREDICTABLE>
 440:	03500116 	cmpeq	r0, #-2147483643	; 0x80000005
 444:	165001f3 			; <UNDEFINED> instruction: 0x165001f3
 448:	31015101 	tstcc	r1, r1, lsl #2
 44c:	ab130000 	blge	4c0454 <__bss_end__+0x4b358c>
 450:	01000002 	tsteq	r0, r2
 454:	00a5003d 	adceq	r0, r5, sp, lsr r0
 458:	00002000 	andeq	r2, r0, r0
 45c:	899c0100 	ldmibhi	ip, {r8}
 460:	11000004 	tstne	r0, r4
 464:	006e6970 	rsbeq	r6, lr, r0, ror r9
 468:	02093d01 	andeq	r3, r9, #1, 26	; 0x40
 46c:	01550000 	cmpeq	r5, r0
 470:	14150000 	ldrne	r0, [r5], #-0
 474:	d00000a5 	andle	r0, r0, r5, lsr #1
 478:	16000004 	strne	r0, [r0], -r4
 47c:	f3035001 	vhadd.u8	d5, d3, d1
 480:	01165001 	tsteq	r6, r1
 484:	00300151 	eorseq	r0, r0, r1, asr r1
 488:	04691000 	strbteq	r1, [r9], #-0
 48c:	31010000 	mrscc	r0, (UNDEF: 1)
 490:	00000209 	andeq	r0, r0, r9, lsl #4
 494:	0000a490 	muleq	r0, r0, r4
 498:	0000005c 	andeq	r0, r0, ip, asr r0
 49c:	04d09c01 	ldrbeq	r9, [r0], #3073	; 0xc01
 4a0:	70110000 	andsvc	r0, r1, r0
 4a4:	01006e69 	tsteq	r0, r9, ror #28
 4a8:	00020931 	andeq	r0, r2, r1, lsr r9
 4ac:	00017600 	andeq	r7, r1, r0, lsl #12
 4b0:	02381200 	eorseq	r1, r8, #0, 4
 4b4:	37010000 	strcc	r0, [r1, -r0]
 4b8:	00000209 	andeq	r0, r0, r9, lsl #4
 4bc:	000001b0 			; <UNDEFINED> instruction: 0x000001b0
 4c0:	00014712 	andeq	r4, r1, r2, lsl r7
 4c4:	09380100 	ldmdbeq	r8!, {r8}
 4c8:	c3000002 	movwgt	r0, #2
 4cc:	00000001 	andeq	r0, r0, r1
 4d0:	00015213 	andeq	r5, r1, r3, lsl r2
 4d4:	10220100 	eorne	r0, r2, r0, lsl #2
 4d8:	680000a4 	stmdavs	r0, {r2, r5, r7}
 4dc:	01000000 	mrseq	r0, (UNDEF: 0)
 4e0:	0005229c 	muleq	r5, ip, r2
 4e4:	69701100 	ldmdbvs	r0!, {r8, ip}^
 4e8:	2201006e 	andcs	r0, r1, #110	; 0x6e
 4ec:	00000209 	andeq	r0, r0, r9, lsl #4
 4f0:	000001f0 	strdeq	r0, [r0], -r0	; <UNPREDICTABLE>
 4f4:	0000eb17 	andeq	lr, r0, r7, lsl fp
 4f8:	09220100 	stmdbeq	r2!, {r8}
 4fc:	11000002 	tstne	r0, r2
 500:	12000002 	andne	r0, r0, #2
 504:	00000238 	andeq	r0, r0, r8, lsr r2
 508:	02092b01 	andeq	r2, r9, #1024	; 0x400
 50c:	02320000 	eorseq	r0, r2, #0
 510:	47120000 	ldrmi	r0, [r2, -r0]
 514:	01000001 	tsteq	r0, r1
 518:	0002092c 	andeq	r0, r2, ip, lsr #18
 51c:	00024500 	andeq	r4, r2, r0, lsl #10
 520:	f5180000 			; <UNDEFINED> instruction: 0xf5180000
 524:	01000003 	tsteq	r0, r3
 528:	00a3e020 	adceq	lr, r3, r0, lsr #32
 52c:	00001800 	andeq	r1, r0, r0, lsl #16
 530:	009c0100 	addseq	r0, ip, r0, lsl #2

Disassembly of section .debug_abbrev:

00000000 <.debug_abbrev>:
   0:	25011101 	strcs	r1, [r1, #-257]	; 0x101
   4:	030b130e 	movweq	r1, #45838	; 0xb30e
   8:	11081b0e 	tstne	r8, lr, lsl #22
   c:	10061201 	andne	r1, r6, r1, lsl #4
  10:	02000017 	andeq	r0, r0, #23
  14:	0b3e0104 	bleq	f8042c <__bss_end__+0xf73564>
  18:	13490b0b 	movtne	r0, #39691	; 0x9b0b
  1c:	0b3b0b3a 	bleq	ec2d0c <__bss_end__+0xeb5e44>
  20:	00001301 	andeq	r1, r0, r1, lsl #6
  24:	03002803 	movweq	r2, #2051	; 0x803
  28:	000b1c0e 	andeq	r1, fp, lr, lsl #24
  2c:	00240400 	eoreq	r0, r4, r0, lsl #8
  30:	0b3e0b0b 	bleq	f82c64 <__bss_end__+0xf75d9c>
  34:	00000e03 	andeq	r0, r0, r3, lsl #28
  38:	03001605 	movweq	r1, #1541	; 0x605
  3c:	3b0b3a0e 	blcc	2ce87c <__bss_end__+0x2c19b4>
  40:	0013490b 	andseq	r4, r3, fp, lsl #18
  44:	00240600 	eoreq	r0, r4, r0, lsl #12
  48:	0b3e0b0b 	bleq	f82c7c <__bss_end__+0xf75db4>
  4c:	00000803 	andeq	r0, r0, r3, lsl #16
  50:	03011307 	movweq	r1, #4871	; 0x1307
  54:	3a0b0b0e 	bcc	2c2c94 <__bss_end__+0x2b5dcc>
  58:	010b3b0b 	tsteq	fp, fp, lsl #22
  5c:	08000013 	stmdaeq	r0, {r0, r1, r4}
  60:	0e03000d 	cdpeq	0, 0, cr0, cr3, cr13, {0}
  64:	0b3b0b3a 	bleq	ec2d54 <__bss_end__+0xeb5e8c>
  68:	0b381349 	bleq	e04d94 <__bss_end__+0xdf7ecc>
  6c:	0d090000 	stceq	0, cr0, [r9, #-0]
  70:	3a080300 	bcc	200c78 <__bss_end__+0x1f3db0>
  74:	490b3b0b 	stmdbmi	fp, {r0, r1, r3, r8, r9, fp, ip, sp}
  78:	000b3813 	andeq	r3, fp, r3, lsl r8
  7c:	00350a00 	eorseq	r0, r5, r0, lsl #20
  80:	00001349 	andeq	r1, r0, r9, asr #6
  84:	4901010b 	stmdbmi	r1, {r0, r1, r3, r8}
  88:	00130113 	andseq	r0, r3, r3, lsl r1
  8c:	00210c00 	eoreq	r0, r1, r0, lsl #24
  90:	0b2f1349 	bleq	bc4dbc <__bss_end__+0xbb7ef4>
  94:	340d0000 	strcc	r0, [sp], #-0
  98:	3a0e0300 	bcc	380ca0 <__bss_end__+0x373dd8>
  9c:	490b3b0b 	stmdbmi	fp, {r0, r1, r3, r8, r9, fp, ip, sp}
  a0:	00061c13 	andeq	r1, r6, r3, lsl ip
  a4:	000f0e00 	andeq	r0, pc, r0, lsl #28
  a8:	13490b0b 	movtne	r0, #39691	; 0x9b0b
  ac:	260f0000 	strcs	r0, [pc], -r0
  b0:	00134900 	andseq	r4, r3, r0, lsl #18
  b4:	012e1000 	teqeq	lr, r0
  b8:	0e03193f 	mcreq	9, 0, r1, cr3, cr15, {1}
  bc:	0b3b0b3a 	bleq	ec2dac <__bss_end__+0xeb5ee4>
  c0:	13491927 	movtne	r1, #39207	; 0x9927
  c4:	06120111 			; <UNDEFINED> instruction: 0x06120111
  c8:	42971840 	addsmi	r1, r7, #64, 16	; 0x400000
  cc:	00130119 	andseq	r0, r3, r9, lsl r1
  d0:	00051100 	andeq	r1, r5, r0, lsl #2
  d4:	0b3a0803 	bleq	e820e8 <__bss_end__+0xe75220>
  d8:	13490b3b 	movtne	r0, #39739	; 0x9b3b
  dc:	00001702 	andeq	r1, r0, r2, lsl #14
  e0:	03003412 	movweq	r3, #1042	; 0x412
  e4:	3b0b3a0e 	blcc	2ce924 <__bss_end__+0x2c1a5c>
  e8:	0213490b 	andseq	r4, r3, #180224	; 0x2c000
  ec:	13000017 	movwne	r0, #23
  f0:	193f012e 	ldmdbne	pc!, {r1, r2, r3, r5, r8}	; <UNPREDICTABLE>
  f4:	0b3a0e03 	bleq	e83908 <__bss_end__+0xe76a40>
  f8:	19270b3b 	stmdbne	r7!, {r0, r1, r3, r4, r5, r8, r9, fp}
  fc:	06120111 			; <UNDEFINED> instruction: 0x06120111
 100:	42971840 	addsmi	r1, r7, #64, 16	; 0x400000
 104:	00130119 	andseq	r0, r3, r9, lsl r1
 108:	00051400 	andeq	r1, r5, r0, lsl #8
 10c:	0b3a0803 	bleq	e82120 <__bss_end__+0xe75258>
 110:	13490b3b 	movtne	r0, #39739	; 0x9b3b
 114:	00001802 	andeq	r1, r0, r2, lsl #16
 118:	01828915 	orreq	r8, r2, r5, lsl r9
 11c:	31011101 	tstcc	r1, r1, lsl #2
 120:	16000013 			; <UNDEFINED> instruction: 0x16000013
 124:	0001828a 	andeq	r8, r1, sl, lsl #5
 128:	42911802 	addsmi	r1, r1, #131072	; 0x20000
 12c:	17000018 	smladne	r0, r8, r0, r0
 130:	0e030005 	cdpeq	0, 0, cr0, cr3, cr5, {0}
 134:	0b3b0b3a 	bleq	ec2e24 <__bss_end__+0xeb5f5c>
 138:	17021349 	strne	r1, [r2, -r9, asr #6]
 13c:	2e180000 	cdpcs	0, 1, cr0, cr8, cr0, {0}
 140:	03193f00 	tsteq	r9, #0, 30
 144:	3b0b3a0e 	blcc	2ce984 <__bss_end__+0x2c1abc>
 148:	1119270b 	tstne	r9, fp, lsl #14
 14c:	40061201 	andmi	r1, r6, r1, lsl #4
 150:	19429718 	stmdbne	r2, {r3, r4, r8, r9, sl, ip, pc}^
 154:	Address 0x0000000000000154 is out of bounds.


Disassembly of section .debug_loc:

00000000 <.debug_loc>:
   0:	0000020c 	andeq	r0, r0, ip, lsl #4
   4:	00000228 	andeq	r0, r0, r8, lsr #4
   8:	28500001 	ldmdacs	r0, {r0}^
   c:	58000002 	stmdapl	r0, {r1}
  10:	04000002 	streq	r0, [r0], #-2
  14:	5001f300 	andpl	pc, r1, r0, lsl #6
  18:	0002589f 	muleq	r2, pc, r8	; <UNPREDICTABLE>
  1c:	00025c00 	andeq	r5, r2, r0, lsl #24
  20:	50000100 	andpl	r0, r0, r0, lsl #2
  24:	0000025c 	andeq	r0, r0, ip, asr r2
  28:	00000260 	andeq	r0, r0, r0, ror #4
  2c:	01f30004 	mvnseq	r0, r4
  30:	00009f50 	andeq	r9, r0, r0, asr pc
  34:	00000000 	andeq	r0, r0, r0
  38:	02240000 	eoreq	r0, r4, #0
  3c:	022c0000 	eoreq	r0, ip, #0
  40:	00010000 	andeq	r0, r1, r0
  44:	00022c53 	andeq	r2, r2, r3, asr ip
  48:	00023000 	andeq	r3, r2, r0
  4c:	73000300 	movwvc	r0, #768	; 0x300
  50:	02309f74 	eorseq	r9, r0, #116, 30	; 0x1d0
  54:	024c0000 	subeq	r0, ip, #0
  58:	00060000 	andeq	r0, r6, r0
  5c:	355001f3 	ldrbcc	r0, [r0, #-499]	; 0x1f3
  60:	00009f25 	andeq	r9, r0, r5, lsr #30
  64:	00000000 	andeq	r0, r0, r0
  68:	02280000 	eoreq	r0, r8, #0
  6c:	02480000 	subeq	r0, r8, #0
  70:	00010000 	andeq	r0, r1, r0
  74:	00024850 	andeq	r4, r2, r0, asr r8
  78:	00024c00 	andeq	r4, r2, r0, lsl #24
  7c:	f3000600 	vmax.u8	d0, d0, d0
  80:	1a4f5001 	bne	13d408c <__bss_end__+0x13c71c4>
  84:	0000009f 	muleq	r0, pc, r0	; <UNPREDICTABLE>
  88:	00000000 	andeq	r0, r0, r0
  8c:	00019400 	andeq	r9, r1, r0, lsl #8
  90:	0001b000 	andeq	fp, r1, r0
  94:	50000100 	andpl	r0, r0, r0, lsl #2
  98:	000001b0 			; <UNDEFINED> instruction: 0x000001b0
  9c:	000001fc 	strdeq	r0, [r0], -ip
  a0:	01f30004 	mvnseq	r0, r4
  a4:	00009f50 	andeq	r9, r0, r0, asr pc
  a8:	00000000 	andeq	r0, r0, r0
  ac:	01ac0000 			; <UNDEFINED> instruction: 0x01ac0000
  b0:	01c40000 	biceq	r0, r4, r0
  b4:	00010000 	andeq	r0, r1, r0
  b8:	0001c453 	andeq	ip, r1, r3, asr r4
  bc:	0001cc00 	andeq	ip, r1, r0, lsl #24
  c0:	73000300 	movwvc	r0, #768	; 0x300
  c4:	01d89f76 	bicseq	r9, r8, r6, ror pc
  c8:	01e40000 	mvneq	r0, r0
  cc:	00010000 	andeq	r0, r1, r0
  d0:	0001e453 	andeq	lr, r1, r3, asr r4
  d4:	0001e800 	andeq	lr, r1, r0, lsl #16
  d8:	73000300 	movwvc	r0, #768	; 0x300
  dc:	01e89f7a 	mvneq	r9, sl, ror pc
  e0:	01fc0000 	mvnseq	r0, r0
  e4:	00060000 	andeq	r0, r6, r0
  e8:	355001f3 	ldrbcc	r0, [r0, #-499]	; 0x1f3
  ec:	00009f25 	andeq	r9, r0, r5, lsr #30
  f0:	00000000 	andeq	r0, r0, r0
  f4:	01b00000 	movseq	r0, r0
  f8:	01c00000 	biceq	r0, r0, r0
  fc:	00010000 	andeq	r0, r1, r0
 100:	0001c050 	andeq	ip, r1, r0, asr r0
 104:	0001cc00 	andeq	ip, r1, r0, lsl #24
 108:	f3000600 	vmax.u8	d0, d0, d0
 10c:	1a4f5001 	bne	13d4118 <__bss_end__+0x13c7250>
 110:	0001d89f 	muleq	r1, pc, r8	; <UNPREDICTABLE>
 114:	0001e000 	andeq	lr, r1, r0
 118:	50000100 	andpl	r0, r0, r0, lsl #2
 11c:	000001e0 	andeq	r0, r0, r0, ror #3
 120:	000001fc 	strdeq	r0, [r0], -ip
 124:	01f30006 	mvnseq	r0, r6
 128:	9f1a4f50 	svcls	0x001a4f50
	...
 134:	00000164 	andeq	r0, r0, r4, ror #2
 138:	00000177 	andeq	r0, r0, r7, ror r1
 13c:	77500001 	ldrbvc	r0, [r0, -r1]
 140:	84000001 	strhi	r0, [r0], #-1
 144:	04000001 	streq	r0, [r0], #-1
 148:	5001f300 	andpl	pc, r1, r0, lsl #6
 14c:	0000009f 	muleq	r0, pc, r0	; <UNPREDICTABLE>
 150:	00000000 	andeq	r0, r0, r0
 154:	00013000 	andeq	r3, r1, r0
 158:	00014300 	andeq	r4, r1, r0, lsl #6
 15c:	50000100 	andpl	r0, r0, r0, lsl #2
 160:	00000143 	andeq	r0, r0, r3, asr #2
 164:	00000150 	andeq	r0, r0, r0, asr r1
 168:	01f30004 	mvnseq	r0, r4
 16c:	00009f50 	andeq	r9, r0, r0, asr pc
 170:	00000000 	andeq	r0, r0, r0
 174:	00c00000 	sbceq	r0, r0, r0
 178:	00f80000 	rscseq	r0, r8, r0
 17c:	00010000 	andeq	r0, r1, r0
 180:	0000f850 	andeq	pc, r0, r0, asr r8	; <UNPREDICTABLE>
 184:	00010c00 	andeq	r0, r1, r0, lsl #24
 188:	f3000400 	vshl.u8	d0, d0, d0
 18c:	0c9f5001 	ldceq	0, cr5, [pc], {1}
 190:	10000001 	andne	r0, r0, r1
 194:	01000001 	tsteq	r0, r1
 198:	01105000 	tsteq	r0, r0
 19c:	011c0000 	tsteq	ip, r0
 1a0:	00040000 	andeq	r0, r4, r0
 1a4:	9f5001f3 	svcls	0x005001f3
	...
 1b0:	000000e0 	andeq	r0, r0, r0, ror #1
 1b4:	00000100 	andeq	r0, r0, r0, lsl #2
 1b8:	00520001 	subseq	r0, r2, r1
 1bc:	00000000 	andeq	r0, r0, r0
 1c0:	f0000000 			; <UNDEFINED> instruction: 0xf0000000
 1c4:	fc000000 	stc2	0, cr0, [r0], {-0}
 1c8:	01000000 	mrseq	r0, (UNDEF: 0)
 1cc:	00fc5300 	rscseq	r5, ip, r0, lsl #6
 1d0:	01000000 	mrseq	r0, (UNDEF: 0)
 1d4:	00100000 	andseq	r0, r0, r0
 1d8:	725001f3 	subsvc	r0, r0, #-1073741764	; 0xc000003c
 1dc:	72243200 	eorvc	r3, r4, #0, 4
 1e0:	24312200 	ldrtcs	r2, [r1], #-512	; 0x200
 1e4:	9f1e331c 	svcls	0x001e331c
	...
 1f0:	00000040 	andeq	r0, r0, r0, asr #32
 1f4:	00000080 	andeq	r0, r0, r0, lsl #1
 1f8:	80500001 	subshi	r0, r0, r1
 1fc:	a8000000 	stmdage	r0, {}	; <UNPREDICTABLE>
 200:	04000000 	streq	r0, [r0], #-0
 204:	5001f300 	andpl	pc, r1, r0, lsl #6
 208:	0000009f 	muleq	r0, pc, r0	; <UNPREDICTABLE>
 20c:	00000000 	andeq	r0, r0, r0
 210:	00004000 	andeq	r4, r0, r0
 214:	00008c00 	andeq	r8, r0, r0, lsl #24
 218:	51000100 	mrspl	r0, (UNDEF: 16)
 21c:	0000008c 	andeq	r0, r0, ip, lsl #1
 220:	000000a8 	andeq	r0, r0, r8, lsr #1
 224:	01f30004 	mvnseq	r0, r4
 228:	00009f51 	andeq	r9, r0, r1, asr pc
 22c:	00000000 	andeq	r0, r0, r0
 230:	00680000 	rsbeq	r0, r8, r0
 234:	00940000 	addseq	r0, r4, r0
 238:	00010000 	andeq	r0, r1, r0
 23c:	00000052 	andeq	r0, r0, r2, asr r0
 240:	00000000 	andeq	r0, r0, r0
 244:	00007800 	andeq	r7, r0, r0, lsl #16
 248:	00009000 	andeq	r9, r0, r0
 24c:	53000100 	movwpl	r0, #256	; 0x100
 250:	00000090 	muleq	r0, r0, r0
 254:	00000094 	muleq	r0, r4, r0
 258:	01f30010 	mvnseq	r0, r0, lsl r0
 25c:	32007250 	andcc	r7, r0, #80, 4
 260:	22007224 	andcs	r7, r0, #36, 4	; 0x40000002
 264:	331c2431 	tstcc	ip, #822083584	; 0x31000000
 268:	00009f1e 	andeq	r9, r0, lr, lsl pc
 26c:	00000000 	andeq	r0, r0, r0
	...

Disassembly of section .debug_aranges:

00000000 <.debug_aranges>:
   0:	0000001c 	andeq	r0, r0, ip, lsl r0
   4:	00000002 	andeq	r0, r0, r2
   8:	00040000 	andeq	r0, r4, r0
   c:	00000000 	andeq	r0, r0, r0
  10:	0000a3d0 	ldrdeq	sl, [r0], -r0
  14:	00000260 	andeq	r0, r0, r0, ror #4
	...

Disassembly of section .debug_line:

00000000 <.debug_line>:
   0:	000000b7 	strheq	r0, [r0], -r7
   4:	00730002 	rsbseq	r0, r3, r2
   8:	01020000 	mrseq	r0, (UNDEF: 2)
   c:	000d0efb 	strdeq	r0, [sp], -fp
  10:	01010101 	tsteq	r1, r1, lsl #2
  14:	01000000 	mrseq	r0, (UNDEF: 0)
  18:	2f010000 	svccs	0x00010000
  1c:	2f727375 	svccs	0x00727375
  20:	2f62696c 	svccs	0x0062696c
  24:	2f636367 	svccs	0x00636367
  28:	2d6d7261 	sfmcs	f7, 2, [sp, #-388]!	; 0xfffffe7c
  2c:	656e6f6e 	strbvs	r6, [lr, #-3950]!	; 0xf6e
  30:	6261652d 	rsbvs	r6, r1, #188743680	; 0xb400000
  34:	2e372f69 	cdpcs	15, 3, cr2, cr7, cr9, {3}
  38:	2f312e32 	svccs	0x00312e32
  3c:	6c636e69 	stclvs	14, cr6, [r3], #-420	; 0xfffffe5c
  40:	00656475 	rsbeq	r6, r5, r5, ror r4
  44:	69706700 	ldmdbvs	r0!, {r8, r9, sl, sp, lr}^
  48:	00632e6f 	rsbeq	r2, r3, pc, ror #28
  4c:	67000000 	strvs	r0, [r0, -r0]
  50:	2e6f6970 	mcrcs	9, 3, r6, cr15, cr0, {3}
  54:	00000068 	andeq	r0, r0, r8, rrx
  58:	70675f00 	rsbvc	r5, r7, r0, lsl #30
  5c:	705f6f69 	subsvc	r6, pc, r9, ror #30
  60:	61766972 	cmnvs	r6, r2, ror r9
  64:	682e6574 	stmdavs	lr!, {r2, r4, r5, r6, r8, sl, sp, lr}
  68:	00000000 	andeq	r0, r0, r0
  6c:	69647473 	stmdbvs	r4!, {r0, r1, r4, r5, r6, sl, ip, sp, lr}^
  70:	672d746e 	strvs	r7, [sp, -lr, ror #8]!
  74:	682e6363 	stmdavs	lr!, {r0, r1, r5, r6, r8, r9, sp, lr}
  78:	00000100 	andeq	r0, r0, r0, lsl #2
  7c:	02050000 	andeq	r0, r5, #0
  80:	0000a3e0 	andeq	sl, r0, r0, ror #7
  84:	66011f03 	strvs	r1, [r1], -r3, lsl #30
  88:	4d672308 	stclmi	3, cr2, [r7, #-32]!	; 0xffffffe0
  8c:	d784674e 	strle	r6, [r4, lr, asr #14]
  90:	4e675b08 	vmulmi.f64	d21, d7, d8
  94:	03838467 	orreq	r8, r3, #1728053248	; 0x67000000
  98:	0a036679 	beq	d9a84 <__bss_end__+0xccbbc>
  9c:	4b672008 	blmi	19c80c4 <__bss_end__+0x19bb1fc>
  a0:	d94b67f5 	stmdble	fp, {r0, r2, r4, r5, r6, r7, r8, r9, sl, sp, lr}^
  a4:	302f4e67 	eorcc	r4, pc, r7, ror #28
  a8:	0862a04d 	stmdaeq	r2!, {r0, r2, r3, r6, sp, pc}^
  ac:	2f4e6797 	svccs	0x004e6797
  b0:	03210830 	teqeq	r1, #48, 16	; 0x300000
  b4:	04026679 	streq	r6, [r2], #-1657	; 0x679
  b8:	Address 0x00000000000000b8 is out of bounds.


Disassembly of section .debug_str:

00000000 <.debug_str>:
   0:	4f495047 	svcmi	0x00495047
   4:	4e55465f 	mrcmi	6, 2, r4, cr5, cr15, {2}
   8:	4c415f43 	mcrrmi	15, 4, r5, r1, cr3
   c:	61003154 	tstvs	r0, r4, asr r1
  10:	006e6572 	rsbeq	r6, lr, r2, ror r5
  14:	726f6873 	rsbvc	r6, pc, #7536640	; 0x730000
  18:	6e692074 	mcrvs	0, 3, r2, cr9, cr4, {3}
  1c:	50470074 	subpl	r0, r7, r4, ror r0
  20:	465f4f49 	ldrbmi	r4, [pc], -r9, asr #30
  24:	5f434e55 	svcpl	0x00434e55
  28:	5054554f 	subspl	r5, r4, pc, asr #10
  2c:	67005455 	smlsdvs	r0, r5, r4, r5
  30:	5f6f6970 	svcpl	0x006f6970
  34:	5f746573 	svcpl	0x00746573
  38:	7074756f 	rsbsvc	r7, r4, pc, ror #10
  3c:	47007475 	smlsdxmi	r0, r5, r4, r7
  40:	5f4f4950 	svcpl	0x004f4950
  44:	334e4950 	movtcc	r4, #59728	; 0xe950
  48:	50470030 	subpl	r0, r7, r0, lsr r0
  4c:	505f4f49 	subspl	r4, pc, r9, asr #30
  50:	31334e49 	teqcc	r3, r9, asr #28
  54:	49504700 	ldmdbmi	r0, {r8, r9, sl, lr}^
  58:	49505f4f 	ldmdbmi	r0, {r0, r1, r2, r3, r6, r8, r9, sl, fp, ip, lr}^
  5c:	0032334e 	eorseq	r3, r2, lr, asr #6
  60:	4f495047 	svcmi	0x00495047
  64:	4e49505f 	mcrmi	0, 2, r5, cr9, cr15, {2}
  68:	47003333 	smladxmi	r0, r3, r3, r3
  6c:	5f4f4950 	svcpl	0x004f4950
  70:	334e4950 	movtcc	r4, #59728	; 0xe950
  74:	50470034 	subpl	r0, r7, r4, lsr r0
  78:	505f4f49 	subspl	r4, pc, r9, asr #30
  7c:	35334e49 	ldrcc	r4, [r3, #-3657]!	; 0xe49
  80:	49504700 	ldmdbmi	r0, {r8, r9, sl, lr}^
  84:	49505f4f 	ldmdbmi	r0, {r0, r1, r2, r3, r6, r8, r9, sl, fp, ip, lr}^
  88:	0036334e 	eorseq	r3, r6, lr, asr #6
  8c:	4f495047 	svcmi	0x00495047
  90:	4e49505f 	mcrmi	0, 2, r5, cr9, cr15, {2}
  94:	47003733 	smladxmi	r0, r3, r7, r3
  98:	5f4f4950 	svcpl	0x004f4950
  9c:	334e4950 	movtcc	r4, #59728	; 0xe950
  a0:	50470038 	subpl	r0, r7, r8, lsr r0
  a4:	505f4f49 	subspl	r4, pc, r9, asr #30
  a8:	39334e49 	ldmdbcc	r3!, {r0, r3, r6, r9, sl, fp, lr}
  ac:	49504700 	ldmdbmi	r0, {r8, r9, sl, lr}^
  b0:	55465f4f 	strbpl	r5, [r6, #-3919]	; 0xf4f
  b4:	415f434e 	cmpmi	pc, lr, asr #6
  b8:	0034544c 	eorseq	r5, r4, ip, asr #8
  bc:	4f495047 	svcmi	0x00495047
  c0:	4e55465f 	mrcmi	6, 2, r4, cr5, cr15, {2}
  c4:	4c415f43 	mcrrmi	15, 4, r5, r1, cr3
  c8:	47003554 	smlsdmi	r0, r4, r5, r3
  cc:	5f4f4950 	svcpl	0x004f4950
  d0:	5f4e4950 	svcpl	0x004e4950
  d4:	5453414c 	ldrbpl	r4, [r3], #-332	; 0x14c
  d8:	69706700 	ldmdbvs	r0!, {r8, r9, sl, sp, lr}^
  dc:	72775f6f 	rsbsvc	r5, r7, #444	; 0x1bc
  e0:	00657469 	rsbeq	r7, r5, r9, ror #8
  e4:	63647570 	cmnvs	r4, #112, 10	; 0x1c000000
  e8:	66006b6c 	strvs	r6, [r0], -ip, ror #22
  ec:	00636e75 	rsbeq	r6, r3, r5, ror lr
  f0:	676e6f6c 	strbvs	r6, [lr, -ip, ror #30]!
  f4:	6e6f6c20 	cdpvs	12, 6, cr6, cr15, cr0, {1}
  f8:	6e692067 	cdpvs	0, 6, cr2, cr9, cr7, {3}
  fc:	4e470074 	mcrmi	0, 2, r0, cr7, cr4, {3}
 100:	39432055 	stmdbcc	r3, {r0, r2, r4, r6, sp}^
 104:	2e372039 	mrccs	0, 1, r2, cr7, cr9, {1}
 108:	20312e32 	eorscs	r2, r1, r2, lsr lr
 10c:	37313032 			; <UNDEFINED> instruction: 0x37313032
 110:	34303930 	ldrtcc	r3, [r0], #-2352	; 0x930
 114:	65722820 	ldrbvs	r2, [r2, #-2080]!	; 0x820
 118:	7361656c 	cmnvc	r1, #108, 10	; 0x1b000000
 11c:	5b202965 	blpl	80a6b8 <__bss_end__+0x7fd7f0>
 120:	2f4d5241 	svccs	0x004d5241
 124:	65626d65 	strbvs	r6, [r2, #-3429]!	; 0xd65
 128:	64656464 	strbtvs	r6, [r5], #-1124	; 0x464
 12c:	622d372d 	eorvs	r3, sp, #11796480	; 0xb40000
 130:	636e6172 	cmnvs	lr, #-2147483620	; 0x8000001c
 134:	65722068 	ldrbvs	r2, [r2, #-104]!	; 0x68
 138:	69736976 	ldmdbvs	r3!, {r1, r2, r4, r5, r6, r8, fp, sp, lr}^
 13c:	32206e6f 	eorcc	r6, r0, #1776	; 0x6f0
 140:	30323535 	eorscc	r3, r2, r5, lsr r5
 144:	73005d34 	movwvc	r5, #3380	; 0xd34
 148:	74666968 	strbtvc	r6, [r6], #-2408	; 0x968
 14c:	65736600 	ldrbvs	r6, [r3, #-1536]!	; 0x600
 150:	7067006c 	rsbvc	r0, r7, ip, rrx
 154:	735f6f69 	cmpvc	pc, #420	; 0x1a4
 158:	665f7465 	ldrbvs	r7, [pc], -r5, ror #8
 15c:	74636e75 	strbtvc	r6, [r3], #-3701	; 0xe75
 160:	006e6f69 	rsbeq	r6, lr, r9, ror #30
 164:	6e656661 	cdpvs	6, 6, cr6, cr5, cr1, {3}
 168:	73657200 	cmnvc	r5, #0, 4
 16c:	65767265 	ldrbvs	r7, [r6, #-613]!	; 0x265
 170:	47004164 	strmi	r4, [r0, -r4, ror #2]
 174:	5f4f4950 	svcpl	0x004f4950
 178:	344e4950 	strbcc	r4, [lr], #-2384	; 0x950
 17c:	50470030 	subpl	r0, r7, r0, lsr r0
 180:	505f4f49 	subspl	r4, pc, r9, asr #30
 184:	31344e49 	teqcc	r4, r9, asr #28
 188:	49504700 	ldmdbmi	r0, {r8, r9, sl, lr}^
 18c:	49505f4f 	ldmdbmi	r0, {r0, r1, r2, r3, r6, r8, r9, sl, fp, ip, lr}^
 190:	0032344e 	eorseq	r3, r2, lr, asr #8
 194:	4f495047 	svcmi	0x00495047
 198:	4e49505f 	mcrmi	0, 2, r5, cr9, cr15, {2}
 19c:	47003334 	smladxmi	r0, r4, r3, r3
 1a0:	5f4f4950 	svcpl	0x004f4950
 1a4:	344e4950 	strbcc	r4, [lr], #-2384	; 0x950
 1a8:	50470034 	subpl	r0, r7, r4, lsr r0
 1ac:	505f4f49 	subspl	r4, pc, r9, asr #30
 1b0:	35344e49 	ldrcc	r4, [r4, #-3657]!	; 0xe49
 1b4:	49504700 	ldmdbmi	r0, {r8, r9, sl, lr}^
 1b8:	49505f4f 	ldmdbmi	r0, {r0, r1, r2, r3, r6, r8, r9, sl, fp, ip, lr}^
 1bc:	0036344e 	eorseq	r3, r6, lr, asr #8
 1c0:	4f495047 	svcmi	0x00495047
 1c4:	4e49505f 	mcrmi	0, 2, r5, cr9, cr15, {2}
 1c8:	47003734 	smladxmi	r0, r4, r7, r3
 1cc:	5f4f4950 	svcpl	0x004f4950
 1d0:	344e4950 	strbcc	r4, [lr], #-2384	; 0x950
 1d4:	50470038 	subpl	r0, r7, r8, lsr r0
 1d8:	505f4f49 	subspl	r4, pc, r9, asr #30
 1dc:	39344e49 	ldmdbcc	r4!, {r0, r3, r6, r9, sl, fp, lr}
 1e0:	736e7500 	cmnvc	lr, #0, 10
 1e4:	656e6769 	strbvs	r6, [lr, #-1897]!	; 0x769
 1e8:	68632064 	stmdavs	r3!, {r2, r5, r6, sp}^
 1ec:	47007261 	strmi	r7, [r0, -r1, ror #4]
 1f0:	5f4f4950 	svcpl	0x004f4950
 1f4:	434e5546 	movtmi	r5, #58694	; 0xe546
 1f8:	504e495f 	subpl	r4, lr, pc, asr r9
 1fc:	6c005455 	cfstrsvs	mvf5, [r0], {85}	; 0x55
 200:	20676e6f 	rsbcs	r6, r7, pc, ror #28
 204:	676e6f6c 	strbvs	r6, [lr, -ip, ror #30]!
 208:	736e7520 	cmnvc	lr, #32, 10	; 0x8000000
 20c:	656e6769 	strbvs	r6, [lr, #-1897]!	; 0x769
 210:	6e692064 	cdpvs	0, 6, cr2, cr9, cr4, {3}
 214:	69750074 	ldmdbvs	r5!, {r2, r4, r5, r6}^
 218:	3233746e 	eorscc	r7, r3, #1845493760	; 0x6e000000
 21c:	5f00745f 	svcpl	0x0000745f
 220:	6f697067 	svcvs	0x00697067
 224:	6f687300 	svcvs	0x00687300
 228:	75207472 	strvc	r7, [r0, #-1138]!	; 0x472
 22c:	6769736e 	strbvs	r7, [r9, -lr, ror #6]!
 230:	2064656e 	rsbcs	r6, r4, lr, ror #10
 234:	00746e69 	rsbseq	r6, r4, r9, ror #28
 238:	6b6e6162 	blvs	1b987c8 <__bss_end__+0x1b8b900>
 23c:	49504700 	ldmdbmi	r0, {r8, r9, sl, lr}^
 240:	49505f4f 	ldmdbmi	r0, {r0, r1, r2, r3, r6, r8, r9, sl, fp, ip, lr}^
 244:	0030314e 	eorseq	r3, r0, lr, asr #2
 248:	4f495047 	svcmi	0x00495047
 24c:	4e49505f 	mcrmi	0, 2, r5, cr9, cr15, {2}
 250:	47003131 	smladxmi	r0, r1, r1, r3
 254:	5f4f4950 	svcpl	0x004f4950
 258:	314e4950 	cmpcc	lr, r0, asr r9
 25c:	50470032 	subpl	r0, r7, r2, lsr r0
 260:	505f4f49 	subspl	r4, pc, r9, asr #30
 264:	33314e49 	teqcc	r1, #1168	; 0x490
 268:	49504700 	ldmdbmi	r0, {r8, r9, sl, lr}^
 26c:	49505f4f 	ldmdbmi	r0, {r0, r1, r2, r3, r6, r8, r9, sl, fp, ip, lr}^
 270:	0034314e 	eorseq	r3, r4, lr, asr #2
 274:	4f495047 	svcmi	0x00495047
 278:	4e49505f 	mcrmi	0, 2, r5, cr9, cr15, {2}
 27c:	47003531 	smladxmi	r0, r1, r5, r3
 280:	5f4f4950 	svcpl	0x004f4950
 284:	314e4950 	cmpcc	lr, r0, asr r9
 288:	50470036 	subpl	r0, r7, r6, lsr r0
 28c:	505f4f49 	subspl	r4, pc, r9, asr #30
 290:	37314e49 	ldrcc	r4, [r1, -r9, asr #28]!
 294:	49504700 	ldmdbmi	r0, {r8, r9, sl, lr}^
 298:	49505f4f 	ldmdbmi	r0, {r0, r1, r2, r3, r6, r8, r9, sl, fp, ip, lr}^
 29c:	0038314e 	eorseq	r3, r8, lr, asr #2
 2a0:	4f495047 	svcmi	0x00495047
 2a4:	4e49505f 	mcrmi	0, 2, r5, cr9, cr15, {2}
 2a8:	67003931 	smladxvs	r0, r1, r9, r3
 2ac:	5f6f6970 	svcpl	0x006f6970
 2b0:	5f746573 	svcpl	0x00746573
 2b4:	75706e69 	ldrbvc	r6, [r0, #-3689]!	; 0xe69
 2b8:	50470074 	subpl	r0, r7, r4, ror r0
 2bc:	505f4f49 	subspl	r4, pc, r9, asr #30
 2c0:	35324e49 	ldrcc	r4, [r2, #-3657]!	; 0xe49
 2c4:	49504700 	ldmdbmi	r0, {r8, r9, sl, lr}^
 2c8:	49505f4f 	ldmdbmi	r0, {r0, r1, r2, r3, r6, r8, r9, sl, fp, ip, lr}^
 2cc:	0030354e 	eorseq	r3, r0, lr, asr #10
 2d0:	4f495047 	svcmi	0x00495047
 2d4:	4e49505f 	mcrmi	0, 2, r5, cr9, cr15, {2}
 2d8:	47003135 	smladxmi	r0, r5, r1, r3
 2dc:	5f4f4950 	svcpl	0x004f4950
 2e0:	354e4950 	strbcc	r4, [lr, #-2384]	; 0x950
 2e4:	50470032 	subpl	r0, r7, r2, lsr r0
 2e8:	505f4f49 	subspl	r4, pc, r9, asr #30
 2ec:	33354e49 	teqcc	r5, #1168	; 0x490
 2f0:	49504700 	ldmdbmi	r0, {r8, r9, sl, lr}^
 2f4:	55465f4f 	strbpl	r5, [r6, #-3919]	; 0xf4f
 2f8:	415f434e 	cmpmi	pc, lr, asr #6
 2fc:	0030544c 	eorseq	r5, r0, ip, asr #8
 300:	4f495047 	svcmi	0x00495047
 304:	4e49505f 	mcrmi	0, 2, r5, cr9, cr15, {2}
 308:	5249465f 	subpl	r4, r9, #99614720	; 0x5f00000
 30c:	47005453 	smlsdmi	r0, r3, r4, r5
 310:	5f4f4950 	svcpl	0x004f4950
 314:	434e5546 	movtmi	r5, #58694	; 0xe546
 318:	544c415f 	strbpl	r4, [ip], #-351	; 0x15f
 31c:	65720032 	ldrbvs	r0, [r2, #-50]!	; 0x32
 320:	76726573 			; <UNDEFINED> instruction: 0x76726573
 324:	00426465 	subeq	r6, r2, r5, ror #8
 328:	4f495047 	svcmi	0x00495047
 32c:	4e55465f 	mrcmi	6, 2, r4, cr5, cr15, {2}
 330:	4c415f43 	mcrrmi	15, 4, r5, r1, cr3
 334:	72003354 	andvc	r3, r0, #84, 6	; 0x50000001
 338:	72657365 	rsbvc	r7, r5, #-1811939327	; 0x94000001
 33c:	43646576 	cmnmi	r4, #494927872	; 0x1d800000
 340:	73657200 	cmnvc	r5, #0, 4
 344:	65767265 	ldrbvs	r7, [r6, #-613]!	; 0x265
 348:	72004464 	andvc	r4, r0, #100, 8	; 0x64000000
 34c:	72657365 	rsbvc	r7, r5, #-1811939327	; 0x94000001
 350:	45646576 	strbmi	r6, [r4, #-1398]!	; 0x576
 354:	73657200 	cmnvc	r5, #0, 4
 358:	65767265 	ldrbvs	r7, [r6, #-613]!	; 0x265
 35c:	72004664 	andvc	r4, r0, #100, 12	; 0x6400000
 360:	72657365 	rsbvc	r7, r5, #-1811939327	; 0x94000001
 364:	47646576 			; <UNDEFINED> instruction: 0x47646576
 368:	73657200 	cmnvc	r5, #0, 4
 36c:	65767265 	ldrbvs	r7, [r6, #-613]!	; 0x265
 370:	72004864 	andvc	r4, r0, #100, 16	; 0x640000
 374:	72657365 	rsbvc	r7, r5, #-1811939327	; 0x94000001
 378:	49646576 	stmdbmi	r4!, {r1, r2, r4, r5, r6, r8, sl, sp, lr}^
 37c:	73657200 	cmnvc	r5, #0, 4
 380:	65767265 	ldrbvs	r7, [r6, #-613]!	; 0x265
 384:	72004a64 	andvc	r4, r0, #100, 20	; 0x64000
 388:	72657365 	rsbvc	r7, r5, #-1811939327	; 0x94000001
 38c:	4b646576 	blmi	191996c <__bss_end__+0x190caa4>
 390:	49504700 	ldmdbmi	r0, {r8, r9, sl, lr}^
 394:	49505f4f 	ldmdbmi	r0, {r0, r1, r2, r3, r6, r8, r9, sl, fp, ip, lr}^
 398:	4700304e 	strmi	r3, [r0, -lr, asr #32]
 39c:	5f4f4950 	svcpl	0x004f4950
 3a0:	314e4950 	cmpcc	lr, r0, asr r9
 3a4:	49504700 	ldmdbmi	r0, {r8, r9, sl, lr}^
 3a8:	49505f4f 	ldmdbmi	r0, {r0, r1, r2, r3, r6, r8, r9, sl, fp, ip, lr}^
 3ac:	4700324e 	strmi	r3, [r0, -lr, asr #4]
 3b0:	5f4f4950 	svcpl	0x004f4950
 3b4:	334e4950 	movtcc	r4, #59728	; 0xe950
 3b8:	49504700 	ldmdbmi	r0, {r8, r9, sl, lr}^
 3bc:	49505f4f 	ldmdbmi	r0, {r0, r1, r2, r3, r6, r8, r9, sl, fp, ip, lr}^
 3c0:	4700344e 	strmi	r3, [r0, -lr, asr #8]
 3c4:	5f4f4950 	svcpl	0x004f4950
 3c8:	354e4950 	strbcc	r4, [lr, #-2384]	; 0x950
 3cc:	49504700 	ldmdbmi	r0, {r8, r9, sl, lr}^
 3d0:	49505f4f 	ldmdbmi	r0, {r0, r1, r2, r3, r6, r8, r9, sl, fp, ip, lr}^
 3d4:	4700364e 	strmi	r3, [r0, -lr, asr #12]
 3d8:	5f4f4950 	svcpl	0x004f4950
 3dc:	374e4950 	smlsldcc	r4, lr, r0, r9
 3e0:	49504700 	ldmdbmi	r0, {r8, r9, sl, lr}^
 3e4:	49505f4f 	ldmdbmi	r0, {r0, r1, r2, r3, r6, r8, r9, sl, fp, ip, lr}^
 3e8:	4700384e 	strmi	r3, [r0, -lr, asr #16]
 3ec:	5f4f4950 	svcpl	0x004f4950
 3f0:	394e4950 	stmdbcc	lr, {r4, r6, r8, fp, lr}^
 3f4:	69706700 	ldmdbvs	r0!, {r8, r9, sl, sp, lr}^
 3f8:	6e695f6f 	cdpvs	15, 6, cr5, cr9, cr15, {3}
 3fc:	47007469 	strmi	r7, [r0, -r9, ror #8]
 400:	5f4f4950 	svcpl	0x004f4950
 404:	324e4950 	subcc	r4, lr, #80, 18	; 0x140000
 408:	50470030 	subpl	r0, r7, r0, lsr r0
 40c:	505f4f49 	subspl	r4, pc, r9, asr #30
 410:	31324e49 	teqcc	r2, r9, asr #28
 414:	49504700 	ldmdbmi	r0, {r8, r9, sl, lr}^
 418:	49505f4f 	ldmdbmi	r0, {r0, r1, r2, r3, r6, r8, r9, sl, fp, ip, lr}^
 41c:	0032324e 	eorseq	r3, r2, lr, asr #4
 420:	4f495047 	svcmi	0x00495047
 424:	4e49505f 	mcrmi	0, 2, r5, cr9, cr15, {2}
 428:	47003332 	smladxmi	r0, r2, r3, r3
 42c:	5f4f4950 	svcpl	0x004f4950
 430:	324e4950 	subcc	r4, lr, #80, 18	; 0x140000
 434:	70670034 	rsbvc	r0, r7, r4, lsr r0
 438:	632e6f69 	teqvs	lr, #420	; 0x1a4
 43c:	49504700 	ldmdbmi	r0, {r8, r9, sl, lr}^
 440:	49505f4f 	ldmdbmi	r0, {r0, r1, r2, r3, r6, r8, r9, sl, fp, ip, lr}^
 444:	0036324e 	eorseq	r3, r6, lr, asr #4
 448:	4f495047 	svcmi	0x00495047
 44c:	4e49505f 	mcrmi	0, 2, r5, cr9, cr15, {2}
 450:	47003732 	smladxmi	r0, r2, r7, r3
 454:	5f4f4950 	svcpl	0x004f4950
 458:	324e4950 	subcc	r4, lr, #80, 18	; 0x140000
 45c:	50470038 	subpl	r0, r7, r8, lsr r0
 460:	505f4f49 	subspl	r4, pc, r9, asr #30
 464:	39324e49 	ldmdbcc	r2!, {r0, r3, r6, r9, sl, fp, lr}
 468:	69706700 	ldmdbvs	r0!, {r8, r9, sl, sp, lr}^
 46c:	65675f6f 	strbvs	r5, [r7, #-3951]!	; 0xf6f
 470:	75665f74 	strbvc	r5, [r6, #-3956]!	; 0xf74
 474:	6974636e 	ldmdbvs	r4!, {r1, r2, r3, r5, r6, r8, r9, sp, lr}^
 478:	67006e6f 	strvs	r6, [r0, -pc, ror #28]
 47c:	5f6f6970 	svcpl	0x006f6970
 480:	64616572 	strbtvs	r6, [r1], #-1394	; 0x572
	...

Disassembly of section .debug_frame:

00000000 <.debug_frame>:
   0:	0000000c 	andeq	r0, r0, ip
   4:	ffffffff 			; <UNDEFINED> instruction: 0xffffffff
   8:	7c020001 	stcvc	0, cr0, [r2], {1}
   c:	000d0c0e 	andeq	r0, sp, lr, lsl #24
  10:	00000024 	andeq	r0, r0, r4, lsr #32
  14:	00000000 	andeq	r0, r0, r0
  18:	0000a3e0 	andeq	sl, r0, r0, ror #7
  1c:	00000018 	andeq	r0, r0, r8, lsl r0
  20:	420c0d42 	andmi	r0, ip, #4224	; 0x1080
  24:	038d048b 	orreq	r0, sp, #-1962934272	; 0x8b000000
  28:	0c42028e 	sfmeq	f0, 2, [r2], {142}	; 0x8e
  2c:	0c42040b 	cfstrdeq	mvd0, [r2], {11}
  30:	ce42100d 	cdpgt	0, 4, cr1, cr2, cr13, {0}
  34:	040ecbcd 	streq	ip, [lr], #-3021	; 0xbcd
  38:	00000024 	andeq	r0, r0, r4, lsr #32
  3c:	00000000 	andeq	r0, r0, r0
  40:	0000a410 	andeq	sl, r0, r0, lsl r4
  44:	00000068 	andeq	r0, r0, r8, rrx
  48:	420c0d42 	andmi	r0, ip, #4224	; 0x1080
  4c:	038d048b 	orreq	r0, sp, #-1962934272	; 0x8b000000
  50:	0c42028e 	sfmeq	f0, 2, [r2], {142}	; 0x8e
  54:	0c66040b 	cfstrdeq	mvd0, [r6], #-44	; 0xffffffd4
  58:	ce42100d 	cdpgt	0, 4, cr1, cr2, cr13, {0}
  5c:	040ecbcd 	streq	ip, [lr], #-3021	; 0xbcd
  60:	00000028 	andeq	r0, r0, r8, lsr #32
  64:	00000000 	andeq	r0, r0, r0
  68:	0000a490 	muleq	r0, r0, r4
  6c:	0000005c 	andeq	r0, r0, ip, asr r0
  70:	420c0d42 	andmi	r0, ip, #4224	; 0x1080
  74:	038d048b 	orreq	r0, sp, #-1962934272	; 0x8b000000
  78:	0c42028e 	sfmeq	f0, 2, [r2], {142}	; 0x8e
  7c:	0a5c040b 	beq	17010b0 <__bss_end__+0x16f41e8>
  80:	42100d0c 	andsmi	r0, r0, #12, 26	; 0x300
  84:	0ecbcdce 	cdpeq	13, 12, cr12, cr11, cr14, {6}
  88:	000b4204 	andeq	r4, fp, r4, lsl #4
  8c:	00000024 	andeq	r0, r0, r4, lsr #32
  90:	00000000 	andeq	r0, r0, r0
  94:	0000a500 	andeq	sl, r0, r0, lsl #10
  98:	00000020 	andeq	r0, r0, r0, lsr #32
  9c:	420c0d42 	andmi	r0, ip, #4224	; 0x1080
  a0:	038d048b 	orreq	r0, sp, #-1962934272	; 0x8b000000
  a4:	0c42028e 	sfmeq	f0, 2, [r2], {142}	; 0x8e
  a8:	0c46040b 	cfstrdeq	mvd0, [r6], {11}
  ac:	ce42100d 	cdpgt	0, 4, cr1, cr2, cr13, {0}
  b0:	040ecbcd 	streq	ip, [lr], #-3021	; 0xbcd
  b4:	00000024 	andeq	r0, r0, r4, lsr #32
  b8:	00000000 	andeq	r0, r0, r0
  bc:	0000a534 	andeq	sl, r0, r4, lsr r5
  c0:	00000020 	andeq	r0, r0, r0, lsr #32
  c4:	420c0d42 	andmi	r0, ip, #4224	; 0x1080
  c8:	038d048b 	orreq	r0, sp, #-1962934272	; 0x8b000000
  cc:	0c42028e 	sfmeq	f0, 2, [r2], {142}	; 0x8e
  d0:	0c46040b 	cfstrdeq	mvd0, [r6], {11}
  d4:	ce42100d 	cdpgt	0, 4, cr1, cr2, cr13, {0}
  d8:	040ecbcd 	streq	ip, [lr], #-3021	; 0xbcd
  dc:	00000028 	andeq	r0, r0, r8, lsr #32
  e0:	00000000 	andeq	r0, r0, r0
  e4:	0000a564 	andeq	sl, r0, r4, ror #10
  e8:	00000068 	andeq	r0, r0, r8, rrx
  ec:	420c0d42 	andmi	r0, ip, #4224	; 0x1080
  f0:	038d048b 	orreq	r0, sp, #-1962934272	; 0x8b000000
  f4:	0c42028e 	sfmeq	f0, 2, [r2], {142}	; 0x8e
  f8:	0a58040b 	beq	160112c <__bss_end__+0x15f4264>
  fc:	42100d0c 	andsmi	r0, r0, #12, 26	; 0x300
 100:	0ecbcdce 	cdpeq	13, 12, cr12, cr11, cr14, {6}
 104:	000b4204 	andeq	r4, fp, r4, lsl #4
 108:	00000028 	andeq	r0, r0, r8, lsr #32
 10c:	00000000 	andeq	r0, r0, r0
 110:	0000a5dc 	ldrdeq	sl, [r0], -ip
 114:	00000054 	andeq	r0, r0, r4, asr r0
 118:	420c0d42 	andmi	r0, ip, #4224	; 0x1080
 11c:	038d048b 	orreq	r0, sp, #-1962934272	; 0x8b000000
 120:	0c42028e 	sfmeq	f0, 2, [r2], {142}	; 0x8e
 124:	0a5c040b 	beq	1701158 <__bss_end__+0x16f4290>
 128:	42100d0c 	andsmi	r0, r0, #12, 26	; 0x300
 12c:	0ecbcdce 	cdpeq	13, 12, cr12, cr11, cr14, {6}
 130:	000b4204 	andeq	r4, fp, r4, lsl #4
