
sonar-int.elf:     file format elf32-littlearm


Disassembly of section .text:

00008000 <_start>:
    8000:	e3a0d302 	mov	sp, #134217728	; 0x8000000
    8004:	e3a0b000 	mov	fp, #0
    8008:	eb000142 	bl	8518 <_cstart>
    800c:	eb0002ef 	bl	8bd0 <rpi_reboot>

00008010 <timeout_read>:
    8010:	e92d40f8 	push	{r3, r4, r5, r6, r7, lr}
    8014:	e1a05000 	mov	r5, r0
    8018:	e1a04001 	mov	r4, r1
    801c:	e1a07002 	mov	r7, r2
    8020:	eb00030f 	bl	8c64 <timer_get_time>
    8024:	e1a06000 	mov	r6, r0
    8028:	e1a00005 	mov	r0, r5
    802c:	eb0003bb 	bl	8f20 <gpio_read>
    8030:	e1500004 	cmp	r0, r4
    8034:	1a000004 	bne	804c <timeout_read+0x3c>
    8038:	eb000309 	bl	8c64 <timer_get_time>
    803c:	e0660000 	rsb	r0, r6, r0
    8040:	e1500007 	cmp	r0, r7
    8044:	9afffff7 	bls	8028 <timeout_read+0x18>
    8048:	ea000001 	b	8054 <timeout_read+0x44>
    804c:	e3a00001 	mov	r0, #1
    8050:	e8bd80f8 	pop	{r3, r4, r5, r6, r7, pc}
    8054:	e3a00000 	mov	r0, #0
    8058:	e8bd80f8 	pop	{r3, r4, r5, r6, r7, pc}

0000805c <distance_in_cm>:
    805c:	e59f3010 	ldr	r3, [pc, #16]	; 8074 <distance_in_cm+0x18>
    8060:	e0c32093 	smull	r2, r3, r3, r0
    8064:	e0833000 	add	r3, r3, r0
    8068:	e1a00fc0 	asr	r0, r0, #31
    806c:	e06002c3 	rsb	r0, r0, r3, asr #5
    8070:	e12fff1e 	bx	lr
    8074:	8d3dcb09 	fldmdbxhi	sp!, {d12-d15}	;@ Deprecated

00008078 <int_handler>:
    8078:	e92d4010 	push	{r4, lr}
    807c:	eb000139 	bl	8568 <RPI_GetIRQController>
    8080:	e5903000 	ldr	r3, [r0]
    8084:	e3130001 	tst	r3, #1
    8088:	08bd8010 	popeq	{r4, pc}
    808c:	e59f4048 	ldr	r4, [pc, #72]	; 80dc <int_handler+0x64>
    8090:	e5943000 	ldr	r3, [r4]
    8094:	e59f2044 	ldr	r2, [pc, #68]	; 80e0 <int_handler+0x68>
    8098:	e0c21392 	smull	r1, r2, r2, r3
    809c:	e1a01fc3 	asr	r1, r3, #31
    80a0:	e06122c2 	rsb	r2, r1, r2, asr #5
    80a4:	e3a01064 	mov	r1, #100	; 0x64
    80a8:	e0020291 	mul	r2, r1, r2
    80ac:	e0623003 	rsb	r3, r2, r3
    80b0:	e3a00015 	mov	r0, #21
    80b4:	e59f2028 	ldr	r2, [pc, #40]	; 80e4 <int_handler+0x6c>
    80b8:	e7921103 	ldr	r1, [r2, r3, lsl #2]
    80bc:	eb000379 	bl	8ea8 <gpio_write>
    80c0:	e5943000 	ldr	r3, [r4]
    80c4:	e2833001 	add	r3, r3, #1
    80c8:	e5843000 	str	r3, [r4]
    80cc:	eb00012e 	bl	858c <RPI_GetArmTimer>
    80d0:	e3a03001 	mov	r3, #1
    80d4:	e580300c 	str	r3, [r0, #12]
    80d8:	e8bd8010 	pop	{r4, pc}
    80dc:	00009ab4 			; <UNDEFINED> instruction: 0x00009ab4
    80e0:	51eb851f 	mvnpl	r8, pc, lsl r5
    80e4:	00009eb8 			; <UNDEFINED> instruction: 0x00009eb8

000080e8 <notmain>:
    80e8:	e92d4ff8 	push	{r3, r4, r5, r6, r7, r8, r9, sl, fp, lr}
    80ec:	eb0004e6 	bl	948c <uart_init>
    80f0:	eb000099 	bl	835c <install_int_handlers>
    80f4:	eb000576 	bl	96d4 <enable_cache>
    80f8:	e3a00004 	mov	r0, #4
    80fc:	eb000129 	bl	85a8 <timer_interrupt_init>
    8100:	e3a00010 	mov	r0, #16
    8104:	eb0004ca 	bl	9434 <gpio_set_pulldown>
    8108:	e3a00015 	mov	r0, #21
    810c:	eb000359 	bl	8e78 <gpio_set_output>
    8110:	e3a0000c 	mov	r0, #12
    8114:	eb000357 	bl	8e78 <gpio_set_output>
    8118:	e3a00010 	mov	r0, #16
    811c:	eb000348 	bl	8e44 <gpio_set_input>
    8120:	eb000031 	bl	81ec <system_enable_interrupts>
    8124:	e3a0000a 	mov	r0, #10
    8128:	eb0002db 	bl	8c9c <delay_ms>
    812c:	e3a0600c 	mov	r6, #12
    8130:	e3a05001 	mov	r5, #1
    8134:	e3a0a00a 	mov	sl, #10
    8138:	e59f90a0 	ldr	r9, [pc, #160]	; 81e0 <notmain+0xf8>
    813c:	e59f80a0 	ldr	r8, [pc, #160]	; 81e4 <notmain+0xfc>
    8140:	e59f70a0 	ldr	r7, [pc, #160]	; 81e8 <notmain+0x100>
    8144:	e1a00006 	mov	r0, r6
    8148:	e1a01005 	mov	r1, r5
    814c:	eb000355 	bl	8ea8 <gpio_write>
    8150:	e1a0000a 	mov	r0, sl
    8154:	eb0002c7 	bl	8c78 <delay_us>
    8158:	e1a00006 	mov	r0, r6
    815c:	e3a01000 	mov	r1, #0
    8160:	eb000350 	bl	8ea8 <gpio_write>
    8164:	e3a04010 	mov	r4, #16
    8168:	e1a00004 	mov	r0, r4
    816c:	eb00036b 	bl	8f20 <gpio_read>
    8170:	e3500000 	cmp	r0, #0
    8174:	0afffffb 	beq	8168 <notmain+0x80>
    8178:	e3a04000 	mov	r4, #0
    817c:	e3a0b010 	mov	fp, #16
    8180:	ea000002 	b	8190 <notmain+0xa8>
    8184:	e1a00005 	mov	r0, r5
    8188:	eb0002ba 	bl	8c78 <delay_us>
    818c:	e2844001 	add	r4, r4, #1
    8190:	e1a0000b 	mov	r0, fp
    8194:	eb000361 	bl	8f20 <gpio_read>
    8198:	e3500000 	cmp	r0, #0
    819c:	1afffff8 	bne	8184 <notmain+0x9c>
    81a0:	e0c32499 	smull	r2, r3, r9, r4
    81a4:	e0833004 	add	r3, r3, r4
    81a8:	e1a04fc4 	asr	r4, r4, #31
    81ac:	e06442c3 	rsb	r4, r4, r3, asr #5
    81b0:	e1c41fc4 	bic	r1, r4, r4, asr #31
    81b4:	e1a00008 	mov	r0, r8
    81b8:	e3510064 	cmp	r1, #100	; 0x64
    81bc:	a3a01064 	movge	r1, #100	; 0x64
    81c0:	e3a02064 	mov	r2, #100	; 0x64
    81c4:	eb0004dc 	bl	953c <pwm_compute>
    81c8:	e1a00007 	mov	r0, r7
    81cc:	e1a01004 	mov	r1, r4
    81d0:	eb00010e 	bl	8610 <printk>
    81d4:	e3a00064 	mov	r0, #100	; 0x64
    81d8:	eb0002af 	bl	8c9c <delay_ms>
    81dc:	eaffffd8 	b	8144 <notmain+0x5c>
    81e0:	8d3dcb09 	fldmdbxhi	sp!, {d12-d15}	;@ Deprecated
    81e4:	00009eb8 			; <UNDEFINED> instruction: 0x00009eb8
    81e8:	00009708 	andeq	r9, r0, r8, lsl #14

000081ec <system_enable_interrupts>:
    81ec:	e10f0000 	mrs	r0, CPSR
    81f0:	e3c00080 	bic	r0, r0, #128	; 0x80
    81f4:	e121f000 	msr	CPSR_c, r0
    81f8:	e12fff1e 	bx	lr

000081fc <system_disable_interrupts>:
    81fc:	e10f0000 	mrs	r0, CPSR
    8200:	e3800080 	orr	r0, r0, #128	; 0x80
    8204:	e121f000 	msr	CPSR_c, r0
    8208:	e12fff1e 	bx	lr

0000820c <_interrupt_table>:
    820c:	e59ff030 	ldr	pc, [pc, #48]	; 8244 <_reset_asm>
    8210:	e59ff030 	ldr	pc, [pc, #48]	; 8248 <_undefined_instruction_asm>
    8214:	e59ff030 	ldr	pc, [pc, #48]	; 824c <_software_interrupt_asm>
    8218:	e59ff030 	ldr	pc, [pc, #48]	; 8250 <_prefetch_abort_asm>
    821c:	e59ff030 	ldr	pc, [pc, #48]	; 8254 <_data_abort_asm>
    8220:	e59ff01c 	ldr	pc, [pc, #28]	; 8244 <_reset_asm>
    8224:	e59ff02c 	ldr	pc, [pc, #44]	; 8258 <_interrupt_asm>

00008228 <fast_interrupt_asm>:
    8228:	e24ee004 	sub	lr, lr, #4
    822c:	e52de004 	push	{lr}		; (str lr, [sp, #-4]!)
    8230:	e92d1fff 	push	{r0, r1, r2, r3, r4, r5, r6, r7, r8, r9, sl, fp, ip}
    8234:	e1a0000e 	mov	r0, lr
    8238:	eb00005c 	bl	83b0 <fast_interrupt_vector>
    823c:	e8bd1fff 	pop	{r0, r1, r2, r3, r4, r5, r6, r7, r8, r9, sl, fp, ip}
    8240:	e8fd8000 	ldm	sp!, {pc}^

00008244 <_reset_asm>:
    8244:	00008334 	andeq	r8, r0, r4, lsr r3

00008248 <_undefined_instruction_asm>:
    8248:	0000833c 	andeq	r8, r0, ip, lsr r3

0000824c <_software_interrupt_asm>:
    824c:	00008344 	andeq	r8, r0, r4, asr #6

00008250 <_prefetch_abort_asm>:
    8250:	0000834c 	andeq	r8, r0, ip, asr #6

00008254 <_data_abort_asm>:
    8254:	00008354 	andeq	r8, r0, r4, asr r3

00008258 <_interrupt_asm>:
    8258:	0000825c 	andeq	r8, r0, ip, asr r2

0000825c <_interrupt_table_end>:
    825c:	e3a0d409 	mov	sp, #150994944	; 0x9000000
    8260:	e24ee004 	sub	lr, lr, #4
    8264:	e92d5fff 	push	{r0, r1, r2, r3, r4, r5, r6, r7, r8, r9, sl, fp, ip, lr}
    8268:	e24dd004 	sub	sp, sp, #4
    826c:	e1a0000d 	mov	r0, sp
    8270:	e24dd004 	sub	sp, sp, #4
    8274:	e1a0100d 	mov	r1, sp
    8278:	eb000049 	bl	83a4 <interrupt_vector>
    827c:	e8bd0003 	pop	{r0, r1}
    8280:	e5912000 	ldr	r2, [r1]
    8284:	e2422040 	sub	r2, r2, #64	; 0x40
    8288:	e49d3004 	pop	{r3}		; (ldr r3, [sp], #4)
    828c:	e5823000 	str	r3, [r2]
    8290:	e49d3004 	pop	{r3}		; (ldr r3, [sp], #4)
    8294:	e5823004 	str	r3, [r2, #4]
    8298:	e49d3004 	pop	{r3}		; (ldr r3, [sp], #4)
    829c:	e5823008 	str	r3, [r2, #8]
    82a0:	e49d3004 	pop	{r3}		; (ldr r3, [sp], #4)
    82a4:	e582300c 	str	r3, [r2, #12]
    82a8:	e49d3004 	pop	{r3}		; (ldr r3, [sp], #4)
    82ac:	e5823010 	str	r3, [r2, #16]
    82b0:	e49d3004 	pop	{r3}		; (ldr r3, [sp], #4)
    82b4:	e5823014 	str	r3, [r2, #20]
    82b8:	e49d3004 	pop	{r3}		; (ldr r3, [sp], #4)
    82bc:	e5823018 	str	r3, [r2, #24]
    82c0:	e49d3004 	pop	{r3}		; (ldr r3, [sp], #4)
    82c4:	e582301c 	str	r3, [r2, #28]
    82c8:	e49d3004 	pop	{r3}		; (ldr r3, [sp], #4)
    82cc:	e5823020 	str	r3, [r2, #32]
    82d0:	e49d3004 	pop	{r3}		; (ldr r3, [sp], #4)
    82d4:	e5823024 	str	r3, [r2, #36]	; 0x24
    82d8:	e49d3004 	pop	{r3}		; (ldr r3, [sp], #4)
    82dc:	e5823028 	str	r3, [r2, #40]	; 0x28
    82e0:	e49d3004 	pop	{r3}		; (ldr r3, [sp], #4)
    82e4:	e582302c 	str	r3, [r2, #44]	; 0x2c
    82e8:	e49d3004 	pop	{r3}		; (ldr r3, [sp], #4)
    82ec:	e5823030 	str	r3, [r2, #48]	; 0x30
    82f0:	e49d3004 	pop	{r3}		; (ldr r3, [sp], #4)
    82f4:	e5823034 	str	r3, [r2, #52]	; 0x34
    82f8:	e8c34000 	stmia	r3, {lr}^
    82fc:	e5933000 	ldr	r3, [r3]
    8300:	e5823038 	str	r3, [r2, #56]	; 0x38
    8304:	e14f3000 	mrs	r3, SPSR
    8308:	e582303c 	str	r3, [r2, #60]	; 0x3c
    830c:	e5812000 	str	r2, [r1]
    8310:	e590d000 	ldr	sp, [r0]
    8314:	e28dd040 	add	sp, sp, #64	; 0x40
    8318:	e580d000 	str	sp, [r0]
    831c:	e24dd040 	sub	sp, sp, #64	; 0x40
    8320:	e59d003c 	ldr	r0, [sp, #60]	; 0x3c
    8324:	e169f000 	msr	SPSR_fc, r0
    8328:	e8bd5fff 	pop	{r0, r1, r2, r3, r4, r5, r6, r7, r8, r9, sl, fp, ip, lr}
    832c:	e28dd008 	add	sp, sp, #8
    8330:	e1b0f00e 	movs	pc, lr

00008334 <reset_asm>:
    8334:	e24ee004 	sub	lr, lr, #4
    8338:	eb00003a 	bl	8428 <reset_vector>

0000833c <undefined_instruction_asm>:
    833c:	e24ee004 	sub	lr, lr, #4
    8340:	eb000047 	bl	8464 <undefined_instruction_vector>

00008344 <software_interrupt_asm>:
    8344:	e24ee004 	sub	lr, lr, #4
    8348:	eb000027 	bl	83ec <software_interrupt_vector>

0000834c <prefetch_abort_asm>:
    834c:	e24ee004 	sub	lr, lr, #4
    8350:	eb000052 	bl	84a0 <prefetch_abort_vector>

00008354 <data_abort_asm>:
    8354:	e24ee004 	sub	lr, lr, #4
    8358:	eb00005f 	bl	84dc <data_abort_vector>

0000835c <install_int_handlers>:
    835c:	e59f3038 	ldr	r3, [pc, #56]	; 839c <install_int_handlers+0x40>
    8360:	e59f0038 	ldr	r0, [pc, #56]	; 83a0 <install_int_handlers+0x44>
    8364:	e0630000 	rsb	r0, r3, r0
    8368:	e1b00140 	asrs	r0, r0, #2
    836c:	012fff1e 	bxeq	lr
    8370:	e3a02000 	mov	r2, #0
    8374:	e1a03002 	mov	r3, r2
    8378:	e59fc01c 	ldr	ip, [pc, #28]	; 839c <install_int_handlers+0x40>
    837c:	e1a01102 	lsl	r1, r2, #2
    8380:	e79c2102 	ldr	r2, [ip, r2, lsl #2]
    8384:	e5812000 	str	r2, [r1]
    8388:	e2833001 	add	r3, r3, #1
    838c:	e1a02003 	mov	r2, r3
    8390:	e1530000 	cmp	r3, r0
    8394:	1afffff8 	bne	837c <install_int_handlers+0x20>
    8398:	e12fff1e 	bx	lr
    839c:	0000820c 	andeq	r8, r0, ip, lsl #4
    83a0:	0000825c 	andeq	r8, r0, ip, asr r2

000083a4 <interrupt_vector>:
    83a4:	e92d4008 	push	{r3, lr}
    83a8:	ebffff32 	bl	8078 <int_handler>
    83ac:	e8bd8008 	pop	{r3, pc}

000083b0 <fast_interrupt_vector>:
    83b0:	e52de004 	push	{lr}		; (str lr, [sp, #-4]!)
    83b4:	e24dd00c 	sub	sp, sp, #12
    83b8:	e59f301c 	ldr	r3, [pc, #28]	; 83dc <fast_interrupt_vector+0x2c>
    83bc:	e58d3000 	str	r3, [sp]
    83c0:	e58d0004 	str	r0, [sp, #4]
    83c4:	e59f0014 	ldr	r0, [pc, #20]	; 83e0 <fast_interrupt_vector+0x30>
    83c8:	e59f1014 	ldr	r1, [pc, #20]	; 83e4 <fast_interrupt_vector+0x34>
    83cc:	e59f2014 	ldr	r2, [pc, #20]	; 83e8 <fast_interrupt_vector+0x38>
    83d0:	e3a0301e 	mov	r3, #30
    83d4:	eb00008d 	bl	8610 <printk>
    83d8:	eb0001fc 	bl	8bd0 <rpi_reboot>
    83dc:	00009814 	andeq	r9, r0, r4, lsl r8
    83e0:	000097a8 	andeq	r9, r0, r8, lsr #15
    83e4:	000097e4 	andeq	r9, r0, r4, ror #15
    83e8:	00009718 	andeq	r9, r0, r8, lsl r7

000083ec <software_interrupt_vector>:
    83ec:	e52de004 	push	{lr}		; (str lr, [sp, #-4]!)
    83f0:	e24dd00c 	sub	sp, sp, #12
    83f4:	e59f301c 	ldr	r3, [pc, #28]	; 8418 <software_interrupt_vector+0x2c>
    83f8:	e58d3000 	str	r3, [sp]
    83fc:	e58d0004 	str	r0, [sp, #4]
    8400:	e59f0014 	ldr	r0, [pc, #20]	; 841c <software_interrupt_vector+0x30>
    8404:	e59f1014 	ldr	r1, [pc, #20]	; 8420 <software_interrupt_vector+0x34>
    8408:	e59f2014 	ldr	r2, [pc, #20]	; 8424 <software_interrupt_vector+0x38>
    840c:	e3a03021 	mov	r3, #33	; 0x21
    8410:	eb00007e 	bl	8610 <printk>
    8414:	eb0001ed 	bl	8bd0 <rpi_reboot>
    8418:	0000981c 	andeq	r9, r0, ip, lsl r8
    841c:	000097a8 	andeq	r9, r0, r8, lsr #15
    8420:	000097e4 	andeq	r9, r0, r4, ror #15
    8424:	00009730 	andeq	r9, r0, r0, lsr r7

00008428 <reset_vector>:
    8428:	e52de004 	push	{lr}		; (str lr, [sp, #-4]!)
    842c:	e24dd00c 	sub	sp, sp, #12
    8430:	e59f301c 	ldr	r3, [pc, #28]	; 8454 <reset_vector+0x2c>
    8434:	e58d3000 	str	r3, [sp]
    8438:	e58d0004 	str	r0, [sp, #4]
    843c:	e59f0014 	ldr	r0, [pc, #20]	; 8458 <reset_vector+0x30>
    8440:	e59f1014 	ldr	r1, [pc, #20]	; 845c <reset_vector+0x34>
    8444:	e59f2014 	ldr	r2, [pc, #20]	; 8460 <reset_vector+0x38>
    8448:	e3a03024 	mov	r3, #36	; 0x24
    844c:	eb00006f 	bl	8610 <printk>
    8450:	eb0001de 	bl	8bd0 <rpi_reboot>
    8454:	0000982c 	andeq	r9, r0, ip, lsr #16
    8458:	000097a8 	andeq	r9, r0, r8, lsr #15
    845c:	000097e4 	andeq	r9, r0, r4, ror #15
    8460:	0000974c 	andeq	r9, r0, ip, asr #14

00008464 <undefined_instruction_vector>:
    8464:	e52de004 	push	{lr}		; (str lr, [sp, #-4]!)
    8468:	e24dd00c 	sub	sp, sp, #12
    846c:	e59f301c 	ldr	r3, [pc, #28]	; 8490 <undefined_instruction_vector+0x2c>
    8470:	e58d3000 	str	r3, [sp]
    8474:	e58d0004 	str	r0, [sp, #4]
    8478:	e59f0014 	ldr	r0, [pc, #20]	; 8494 <undefined_instruction_vector+0x30>
    847c:	e59f1014 	ldr	r1, [pc, #20]	; 8498 <undefined_instruction_vector+0x34>
    8480:	e59f2014 	ldr	r2, [pc, #20]	; 849c <undefined_instruction_vector+0x38>
    8484:	e3a03027 	mov	r3, #39	; 0x27
    8488:	eb000060 	bl	8610 <printk>
    848c:	eb0001cf 	bl	8bd0 <rpi_reboot>
    8490:	0000983c 	andeq	r9, r0, ip, lsr r8
    8494:	000097a8 	andeq	r9, r0, r8, lsr #15
    8498:	000097e4 	andeq	r9, r0, r4, ror #15
    849c:	0000975c 	andeq	r9, r0, ip, asr r7

000084a0 <prefetch_abort_vector>:
    84a0:	e52de004 	push	{lr}		; (str lr, [sp, #-4]!)
    84a4:	e24dd00c 	sub	sp, sp, #12
    84a8:	e59f301c 	ldr	r3, [pc, #28]	; 84cc <prefetch_abort_vector+0x2c>
    84ac:	e58d3000 	str	r3, [sp]
    84b0:	e58d0004 	str	r0, [sp, #4]
    84b4:	e59f0014 	ldr	r0, [pc, #20]	; 84d0 <prefetch_abort_vector+0x30>
    84b8:	e59f1014 	ldr	r1, [pc, #20]	; 84d4 <prefetch_abort_vector+0x34>
    84bc:	e59f2014 	ldr	r2, [pc, #20]	; 84d8 <prefetch_abort_vector+0x38>
    84c0:	e3a0302a 	mov	r3, #42	; 0x2a
    84c4:	eb000051 	bl	8610 <printk>
    84c8:	eb0001c0 	bl	8bd0 <rpi_reboot>
    84cc:	00009854 	andeq	r9, r0, r4, asr r8
    84d0:	000097a8 	andeq	r9, r0, r8, lsr #15
    84d4:	000097e4 	andeq	r9, r0, r4, ror #15
    84d8:	0000977c 	andeq	r9, r0, ip, ror r7

000084dc <data_abort_vector>:
    84dc:	e52de004 	push	{lr}		; (str lr, [sp, #-4]!)
    84e0:	e24dd00c 	sub	sp, sp, #12
    84e4:	e59f301c 	ldr	r3, [pc, #28]	; 8508 <data_abort_vector+0x2c>
    84e8:	e58d3000 	str	r3, [sp]
    84ec:	e58d0004 	str	r0, [sp, #4]
    84f0:	e59f0014 	ldr	r0, [pc, #20]	; 850c <data_abort_vector+0x30>
    84f4:	e59f1014 	ldr	r1, [pc, #20]	; 8510 <data_abort_vector+0x34>
    84f8:	e59f2014 	ldr	r2, [pc, #20]	; 8514 <data_abort_vector+0x38>
    84fc:	e3a0302d 	mov	r3, #45	; 0x2d
    8500:	eb000042 	bl	8610 <printk>
    8504:	eb0001b1 	bl	8bd0 <rpi_reboot>
    8508:	00009864 	andeq	r9, r0, r4, ror #16
    850c:	000097a8 	andeq	r9, r0, r8, lsr #15
    8510:	000097e4 	andeq	r9, r0, r4, ror #15
    8514:	00009794 	muleq	r0, r4, r7

00008518 <_cstart>:
    8518:	e92d4008 	push	{r3, lr}
    851c:	e59f3038 	ldr	r3, [pc, #56]	; 855c <_cstart+0x44>
    8520:	e59f2038 	ldr	r2, [pc, #56]	; 8560 <_cstart+0x48>
    8524:	e1520003 	cmp	r2, r3
    8528:	2a000009 	bcs	8554 <_cstart+0x3c>
    852c:	e2423004 	sub	r3, r2, #4
    8530:	e59f102c 	ldr	r1, [pc, #44]	; 8564 <_cstart+0x4c>
    8534:	e0631001 	rsb	r1, r3, r1
    8538:	e3c11003 	bic	r1, r1, #3
    853c:	e2832004 	add	r2, r3, #4
    8540:	e0811002 	add	r1, r1, r2
    8544:	e3a02000 	mov	r2, #0
    8548:	e5a32004 	str	r2, [r3, #4]!
    854c:	e1530001 	cmp	r3, r1
    8550:	1afffffc 	bne	8548 <_cstart+0x30>
    8554:	ebfffee3 	bl	80e8 <notmain>
    8558:	e8bd8008 	pop	{r3, pc}
    855c:	0000a048 	andeq	sl, r0, r8, asr #32
    8560:	00009ab4 			; <UNDEFINED> instruction: 0x00009ab4
    8564:	0000a043 	andeq	sl, r0, r3, asr #32

00008568 <RPI_GetIRQController>:
    8568:	e92d4008 	push	{r3, lr}
    856c:	eb0001d5 	bl	8cc8 <dmb>
    8570:	eb0001d6 	bl	8cd0 <dsb>
    8574:	e59f3004 	ldr	r3, [pc, #4]	; 8580 <RPI_GetIRQController+0x18>
    8578:	e5930000 	ldr	r0, [r3]
    857c:	e8bd8008 	pop	{r3, pc}
    8580:	000096f4 	strdeq	r9, [r0], -r4

00008584 <rpi_extract_basic_int>:
    8584:	e6ef0070 	uxtb	r0, r0
    8588:	e12fff1e 	bx	lr

0000858c <RPI_GetArmTimer>:
    858c:	e92d4008 	push	{r3, lr}
    8590:	eb0001cc 	bl	8cc8 <dmb>
    8594:	eb0001cd 	bl	8cd0 <dsb>
    8598:	e59f3004 	ldr	r3, [pc, #4]	; 85a4 <RPI_GetArmTimer+0x18>
    859c:	e5930004 	ldr	r0, [r3, #4]
    85a0:	e8bd8008 	pop	{r3, pc}
    85a4:	000096f4 	strdeq	r9, [r0], -r4

000085a8 <timer_interrupt_init>:
    85a8:	e92d4010 	push	{r4, lr}
    85ac:	e1a04000 	mov	r4, r0
    85b0:	e59f003c 	ldr	r0, [pc, #60]	; 85f4 <timer_interrupt_init+0x4c>
    85b4:	e3e01000 	mvn	r1, #0
    85b8:	eb0001c8 	bl	8ce0 <PUT32>
    85bc:	e59f0034 	ldr	r0, [pc, #52]	; 85f8 <timer_interrupt_init+0x50>
    85c0:	e3e01000 	mvn	r1, #0
    85c4:	eb0001c5 	bl	8ce0 <PUT32>
    85c8:	eb0001be 	bl	8cc8 <dmb>
    85cc:	eb0001bf 	bl	8cd0 <dsb>
    85d0:	ebffffe4 	bl	8568 <RPI_GetIRQController>
    85d4:	e3a03001 	mov	r3, #1
    85d8:	e5803018 	str	r3, [r0, #24]
    85dc:	ebffffea 	bl	858c <RPI_GetArmTimer>
    85e0:	e5804000 	str	r4, [r0]
    85e4:	ebffffe8 	bl	858c <RPI_GetArmTimer>
    85e8:	e3a030a6 	mov	r3, #166	; 0xa6
    85ec:	e5803008 	str	r3, [r0, #8]
    85f0:	e8bd8010 	pop	{r4, pc}
    85f4:	2000b21c 	andcs	fp, r0, ip, lsl r2
    85f8:	2000b220 	andcs	fp, r0, r0, lsr #4

000085fc <rpi_putchar>:
    85fc:	e92d4010 	push	{r4, lr}
    8600:	e1a04000 	mov	r4, r0
    8604:	eb0003c4 	bl	951c <uart_putc>
    8608:	e1a00004 	mov	r0, r4
    860c:	e8bd8010 	pop	{r4, pc}

00008610 <printk>:
    8610:	e92d000f 	push	{r0, r1, r2, r3}
    8614:	e92d4030 	push	{r4, r5, lr}
    8618:	e24dd00c 	sub	sp, sp, #12
    861c:	e28d301c 	add	r3, sp, #28
    8620:	e58d3004 	str	r3, [sp, #4]
    8624:	e59f4040 	ldr	r4, [pc, #64]	; 866c <printk+0x5c>
    8628:	e1a00004 	mov	r0, r4
    862c:	e3a01b01 	mov	r1, #1024	; 0x400
    8630:	e59d2018 	ldr	r2, [sp, #24]
    8634:	eb00008c 	bl	886c <va_printk>
    8638:	e1a05000 	mov	r5, r0
    863c:	e5d40000 	ldrb	r0, [r4]
    8640:	e3500000 	cmp	r0, #0
    8644:	0a000003 	beq	8658 <printk+0x48>
    8648:	eb0003b3 	bl	951c <uart_putc>
    864c:	e5f40001 	ldrb	r0, [r4, #1]!
    8650:	e3500000 	cmp	r0, #0
    8654:	1afffffb 	bne	8648 <printk+0x38>
    8658:	e1a00005 	mov	r0, r5
    865c:	e28dd00c 	add	sp, sp, #12
    8660:	e8bd4030 	pop	{r4, r5, lr}
    8664:	e28dd010 	add	sp, sp, #16
    8668:	e12fff1e 	bx	lr
    866c:	00009ab8 			; <UNDEFINED> instruction: 0x00009ab8

00008670 <emit>:
    8670:	e92d43f0 	push	{r4, r5, r6, r7, r8, r9, lr}
    8674:	e24dd044 	sub	sp, sp, #68	; 0x44
    8678:	e59d5060 	ldr	r5, [sp, #96]	; 0x60
    867c:	e1550002 	cmp	r5, r2
    8680:	c2425001 	subgt	r5, r2, #1
    8684:	e1a0c003 	mov	ip, r3
    8688:	e2400002 	sub	r0, r0, #2
    868c:	e350000e 	cmp	r0, #14
    8690:	979ff100 	ldrls	pc, [pc, r0, lsl #2]
    8694:	ea00003f 	b	8798 <emit+0x128>
    8698:	00008770 	andeq	r8, r0, r0, ror r7
    869c:	00008798 	muleq	r0, r8, r7
    86a0:	00008798 	muleq	r0, r8, r7
    86a4:	00008798 	muleq	r0, r8, r7
    86a8:	00008798 	muleq	r0, r8, r7
    86ac:	00008798 	muleq	r0, r8, r7
    86b0:	00008764 	andeq	r8, r0, r4, ror #14
    86b4:	00008798 	muleq	r0, r8, r7
    86b8:	000086d4 	ldrdeq	r8, [r0], -r4
    86bc:	00008798 	muleq	r0, r8, r7
    86c0:	00008798 	muleq	r0, r8, r7
    86c4:	00008798 	muleq	r0, r8, r7
    86c8:	00008798 	muleq	r0, r8, r7
    86cc:	00008798 	muleq	r0, r8, r7
    86d0:	0000873c 	andeq	r8, r0, ip, lsr r7
    86d4:	e59d0064 	ldr	r0, [sp, #100]	; 0x64
    86d8:	e2900000 	adds	r0, r0, #0
    86dc:	13a00001 	movne	r0, #1
    86e0:	e0100fa3 	ands	r0, r0, r3, lsr #31
    86e4:	1263c000 	rsbne	ip, r3, #0
    86e8:	13a09001 	movne	r9, #1
    86ec:	03a09000 	moveq	r9, #0
    86f0:	e1a0000d 	mov	r0, sp
    86f4:	e59f8154 	ldr	r8, [pc, #340]	; 8850 <emit+0x1e0>
    86f8:	e59f7154 	ldr	r7, [pc, #340]	; 8854 <emit+0x1e4>
    86fc:	e1a03000 	mov	r3, r0
    8700:	e0846c97 	umull	r6, r4, r7, ip
    8704:	e1a041a4 	lsr	r4, r4, #3
    8708:	e0846104 	add	r6, r4, r4, lsl #2
    870c:	e04cc086 	sub	ip, ip, r6, lsl #1
    8710:	e7d8c00c 	ldrb	ip, [r8, ip]
    8714:	e4c3c001 	strb	ip, [r3], #1
    8718:	e1a0c004 	mov	ip, r4
    871c:	e3540000 	cmp	r4, #0
    8720:	11a00003 	movne	r0, r3
    8724:	1afffff4 	bne	86fc <emit+0x8c>
    8728:	e3590000 	cmp	r9, #0
    872c:	12803002 	addne	r3, r0, #2
    8730:	13a0c02d 	movne	ip, #45	; 0x2d
    8734:	15c0c001 	strbne	ip, [r0, #1]
    8738:	ea00001c 	b	87b0 <emit+0x140>
    873c:	e28d4001 	add	r4, sp, #1
    8740:	e59f6110 	ldr	r6, [pc, #272]	; 8858 <emit+0x1e8>
    8744:	e1a03004 	mov	r3, r4
    8748:	e20c000f 	and	r0, ip, #15
    874c:	e7d60000 	ldrb	r0, [r6, r0]
    8750:	e5440001 	strb	r0, [r4, #-1]
    8754:	e2844001 	add	r4, r4, #1
    8758:	e1b0c22c 	lsrs	ip, ip, #4
    875c:	1afffff8 	bne	8744 <emit+0xd4>
    8760:	ea000012 	b	87b0 <emit+0x140>
    8764:	e5cd3000 	strb	r3, [sp]
    8768:	e28d3001 	add	r3, sp, #1
    876c:	ea00000f 	b	87b0 <emit+0x140>
    8770:	e28d4001 	add	r4, sp, #1
    8774:	e59f60e0 	ldr	r6, [pc, #224]	; 885c <emit+0x1ec>
    8778:	e1a03004 	mov	r3, r4
    877c:	e20c0001 	and	r0, ip, #1
    8780:	e7d60000 	ldrb	r0, [r6, r0]
    8784:	e5440001 	strb	r0, [r4, #-1]
    8788:	e2844001 	add	r4, r4, #1
    878c:	e1b0c0ac 	lsrs	ip, ip, #1
    8790:	1afffff8 	bne	8778 <emit+0x108>
    8794:	ea000005 	b	87b0 <emit+0x140>
    8798:	e59f00c0 	ldr	r0, [pc, #192]	; 8860 <emit+0x1f0>
    879c:	e59f10c0 	ldr	r1, [pc, #192]	; 8864 <emit+0x1f4>
    87a0:	e59f20c0 	ldr	r2, [pc, #192]	; 8868 <emit+0x1f8>
    87a4:	e3a0308d 	mov	r3, #141	; 0x8d
    87a8:	ebffff98 	bl	8610 <printk>
    87ac:	eb000107 	bl	8bd0 <rpi_reboot>
    87b0:	e1a0400d 	mov	r4, sp
    87b4:	e064c003 	rsb	ip, r4, r3
    87b8:	e155000c 	cmp	r5, ip
    87bc:	da000006 	ble	87dc <emit+0x16c>
    87c0:	e06cc005 	rsb	ip, ip, r5
    87c4:	e083c00c 	add	ip, r3, ip
    87c8:	e3a00020 	mov	r0, #32
    87cc:	e4c30001 	strb	r0, [r3], #1
    87d0:	e153000c 	cmp	r3, ip
    87d4:	1afffffc 	bne	87cc <emit+0x15c>
    87d8:	ea000000 	b	87e0 <emit+0x170>
    87dc:	e1a0c003 	mov	ip, r3
    87e0:	e3a03000 	mov	r3, #0
    87e4:	e5cc3000 	strb	r3, [ip]
    87e8:	e064400c 	rsb	r4, r4, ip
    87ec:	e2844001 	add	r4, r4, #1
    87f0:	e1520004 	cmp	r2, r4
    87f4:	b0624004 	rsblt	r4, r2, r4
    87f8:	b08d3003 	addlt	r3, sp, r3
    87fc:	b0834004 	addlt	r4, r3, r4
    8800:	a1a0400d 	movge	r4, sp
    8804:	e24c3001 	sub	r3, ip, #1
    8808:	e1540003 	cmp	r4, r3
    880c:	8a000009 	bhi	8838 <emit+0x1c8>
    8810:	e1a0000c 	mov	r0, ip
    8814:	e1a0300c 	mov	r3, ip
    8818:	e1a02001 	mov	r2, r1
    881c:	e573c001 	ldrb	ip, [r3, #-1]!
    8820:	e4c2c001 	strb	ip, [r2], #1
    8824:	e1530004 	cmp	r3, r4
    8828:	1afffffb 	bne	881c <emit+0x1ac>
    882c:	e0644000 	rsb	r4, r4, r0
    8830:	e0814004 	add	r4, r1, r4
    8834:	ea000000 	b	883c <emit+0x1cc>
    8838:	e1a04001 	mov	r4, r1
    883c:	e3a03000 	mov	r3, #0
    8840:	e5c43000 	strb	r3, [r4]
    8844:	e1a00001 	mov	r0, r1
    8848:	e28dd044 	add	sp, sp, #68	; 0x44
    884c:	e8bd83f0 	pop	{r4, r5, r6, r7, r8, r9, pc}
    8850:	000098a8 	andeq	r9, r0, r8, lsr #17
    8854:	cccccccd 	stclgt	12, cr12, [ip], {205}	; 0xcd
    8858:	000098b4 			; <UNDEFINED> instruction: 0x000098b4
    885c:	000098c8 	andeq	r9, r0, r8, asr #17
    8860:	00009884 	andeq	r9, r0, r4, lsl #17
    8864:	00009898 	muleq	r0, r8, r8
    8868:	00009870 	andeq	r9, r0, r0, ror r8

0000886c <va_printk>:
    886c:	e92d4ff0 	push	{r4, r5, r6, r7, r8, r9, sl, fp, lr}
    8870:	e24dd08c 	sub	sp, sp, #140	; 0x8c
    8874:	e1a07000 	mov	r7, r0
    8878:	e2411001 	sub	r1, r1, #1
    887c:	e0805001 	add	r5, r0, r1
    8880:	e3a01000 	mov	r1, #0
    8884:	e5c01000 	strb	r1, [r0]
    8888:	e1a04000 	mov	r4, r0
    888c:	e1a08001 	mov	r8, r1
    8890:	e3a0a008 	mov	sl, #8
    8894:	e3a09080 	mov	r9, #128	; 0x80
    8898:	ea000088 	b	8ac0 <va_printk+0x254>
    889c:	e3510025 	cmp	r1, #37	; 0x25
    88a0:	12822001 	addne	r2, r2, #1
    88a4:	15c41000 	strbne	r1, [r4]
    88a8:	12844001 	addne	r4, r4, #1
    88ac:	1a000083 	bne	8ac0 <va_printk+0x254>
    88b0:	e5d21001 	ldrb	r1, [r2, #1]
    88b4:	e3510025 	cmp	r1, #37	; 0x25
    88b8:	05c41000 	strbeq	r1, [r4]
    88bc:	02822002 	addeq	r2, r2, #2
    88c0:	02844001 	addeq	r4, r4, #1
    88c4:	0a00007d 	beq	8ac0 <va_printk+0x254>
    88c8:	e2826001 	add	r6, r2, #1
    88cc:	e1a00001 	mov	r0, r1
    88d0:	e241c030 	sub	ip, r1, #48	; 0x30
    88d4:	e35c0009 	cmp	ip, #9
    88d8:	8a000012 	bhi	8928 <va_printk+0xbc>
    88dc:	e2822002 	add	r2, r2, #2
    88e0:	e1a0c008 	mov	ip, r8
    88e4:	e08cc10c 	add	ip, ip, ip, lsl #2
    88e8:	e080c08c 	add	ip, r0, ip, lsl #1
    88ec:	e24cc030 	sub	ip, ip, #48	; 0x30
    88f0:	e1a06002 	mov	r6, r2
    88f4:	e4d21001 	ldrb	r1, [r2], #1
    88f8:	e1a00001 	mov	r0, r1
    88fc:	e241b030 	sub	fp, r1, #48	; 0x30
    8900:	e35b0009 	cmp	fp, #9
    8904:	9afffff6 	bls	88e4 <va_printk+0x78>
    8908:	e35c001f 	cmp	ip, #31
    890c:	9a000007 	bls	8930 <va_printk+0xc4>
    8910:	e59f01e8 	ldr	r0, [pc, #488]	; 8b00 <va_printk+0x294>
    8914:	e59f11e8 	ldr	r1, [pc, #488]	; 8b04 <va_printk+0x298>
    8918:	e59f21e8 	ldr	r2, [pc, #488]	; 8b08 <va_printk+0x29c>
    891c:	e3a030a9 	mov	r3, #169	; 0xa9
    8920:	ebffff3a 	bl	8610 <printk>
    8924:	eb0000a9 	bl	8bd0 <rpi_reboot>
    8928:	e1a00001 	mov	r0, r1
    892c:	e1a0c008 	mov	ip, r8
    8930:	e2411062 	sub	r1, r1, #98	; 0x62
    8934:	e3510016 	cmp	r1, #22
    8938:	979ff101 	ldrls	pc, [pc, r1, lsl #2]
    893c:	ea000052 	b	8a8c <va_printk+0x220>
    8940:	00008a30 	andeq	r8, r0, r0, lsr sl
    8944:	00008a64 	andeq	r8, r0, r4, ror #20
    8948:	000089b4 			; <UNDEFINED> instruction: 0x000089b4
    894c:	00008a8c 	andeq	r8, r0, ip, lsl #21
    8950:	0000899c 	muleq	r0, ip, r9
    8954:	00008a8c 	andeq	r8, r0, ip, lsl #21
    8958:	00008a8c 	andeq	r8, r0, ip, lsl #21
    895c:	00008a8c 	andeq	r8, r0, ip, lsl #21
    8960:	00008a8c 	andeq	r8, r0, ip, lsl #21
    8964:	00008a8c 	andeq	r8, r0, ip, lsl #21
    8968:	00008a8c 	andeq	r8, r0, ip, lsl #21
    896c:	00008a8c 	andeq	r8, r0, ip, lsl #21
    8970:	00008a8c 	andeq	r8, r0, ip, lsl #21
    8974:	00008a8c 	andeq	r8, r0, ip, lsl #21
    8978:	00008a08 	andeq	r8, r0, r8, lsl #20
    897c:	00008a8c 	andeq	r8, r0, ip, lsl #21
    8980:	00008a8c 	andeq	r8, r0, ip, lsl #21
    8984:	00008a58 	andeq	r8, r0, r8, asr sl
    8988:	00008a8c 	andeq	r8, r0, ip, lsl #21
    898c:	000089e0 	andeq	r8, r0, r0, ror #19
    8990:	00008a8c 	andeq	r8, r0, ip, lsl #21
    8994:	00008a8c 	andeq	r8, r0, ip, lsl #21
    8998:	00008a08 	andeq	r8, r0, r8, lsl #20
    899c:	e59f0168 	ldr	r0, [pc, #360]	; 8b0c <va_printk+0x2a0>
    89a0:	e59f115c 	ldr	r1, [pc, #348]	; 8b04 <va_printk+0x298>
    89a4:	e59f215c 	ldr	r2, [pc, #348]	; 8b08 <va_printk+0x29c>
    89a8:	e3a030af 	mov	r3, #175	; 0xaf
    89ac:	ebffff17 	bl	8610 <printk>
    89b0:	eb000086 	bl	8bd0 <rpi_reboot>
    89b4:	e283b004 	add	fp, r3, #4
    89b8:	e5933000 	ldr	r3, [r3]
    89bc:	e58dc000 	str	ip, [sp]
    89c0:	e3a02001 	mov	r2, #1
    89c4:	e58d2004 	str	r2, [sp, #4]
    89c8:	e3a0000a 	mov	r0, #10
    89cc:	e28d1008 	add	r1, sp, #8
    89d0:	e1a02009 	mov	r2, r9
    89d4:	ebffff25 	bl	8670 <emit>
    89d8:	e1a0300b 	mov	r3, fp
    89dc:	ea000040 	b	8ae4 <va_printk+0x278>
    89e0:	e283b004 	add	fp, r3, #4
    89e4:	e5933000 	ldr	r3, [r3]
    89e8:	e58dc000 	str	ip, [sp]
    89ec:	e58d8004 	str	r8, [sp, #4]
    89f0:	e3a0000a 	mov	r0, #10
    89f4:	e28d1008 	add	r1, sp, #8
    89f8:	e1a02009 	mov	r2, r9
    89fc:	ebffff1b 	bl	8670 <emit>
    8a00:	e1a0300b 	mov	r3, fp
    8a04:	ea000036 	b	8ae4 <va_printk+0x278>
    8a08:	e283b004 	add	fp, r3, #4
    8a0c:	e5933000 	ldr	r3, [r3]
    8a10:	e58dc000 	str	ip, [sp]
    8a14:	e58d8004 	str	r8, [sp, #4]
    8a18:	e3a00010 	mov	r0, #16
    8a1c:	e28d1008 	add	r1, sp, #8
    8a20:	e1a02009 	mov	r2, r9
    8a24:	ebffff11 	bl	8670 <emit>
    8a28:	e1a0300b 	mov	r3, fp
    8a2c:	ea00002c 	b	8ae4 <va_printk+0x278>
    8a30:	e283b004 	add	fp, r3, #4
    8a34:	e5933000 	ldr	r3, [r3]
    8a38:	e58dc000 	str	ip, [sp]
    8a3c:	e58d8004 	str	r8, [sp, #4]
    8a40:	e3a00002 	mov	r0, #2
    8a44:	e28d1008 	add	r1, sp, #8
    8a48:	e1a02009 	mov	r2, r9
    8a4c:	ebffff07 	bl	8670 <emit>
    8a50:	e1a0300b 	mov	r3, fp
    8a54:	ea000022 	b	8ae4 <va_printk+0x278>
    8a58:	e5930000 	ldr	r0, [r3]
    8a5c:	e2833004 	add	r3, r3, #4
    8a60:	ea00001f 	b	8ae4 <va_printk+0x278>
    8a64:	e283b004 	add	fp, r3, #4
    8a68:	e5933000 	ldr	r3, [r3]
    8a6c:	e58dc000 	str	ip, [sp]
    8a70:	e58d8004 	str	r8, [sp, #4]
    8a74:	e1a0000a 	mov	r0, sl
    8a78:	e28d1008 	add	r1, sp, #8
    8a7c:	e1a02009 	mov	r2, r9
    8a80:	ebfffefa 	bl	8670 <emit>
    8a84:	e1a0300b 	mov	r3, fp
    8a88:	ea000015 	b	8ae4 <va_printk+0x278>
    8a8c:	e58d0000 	str	r0, [sp]
    8a90:	e59f0078 	ldr	r0, [pc, #120]	; 8b10 <va_printk+0x2a4>
    8a94:	e59f1068 	ldr	r1, [pc, #104]	; 8b04 <va_printk+0x298>
    8a98:	e59f2068 	ldr	r2, [pc, #104]	; 8b08 <va_printk+0x29c>
    8a9c:	e3a030d0 	mov	r3, #208	; 0xd0
    8aa0:	ebfffeda 	bl	8610 <printk>
    8aa4:	eb000049 	bl	8bd0 <rpi_reboot>
    8aa8:	e4c41001 	strb	r1, [r4], #1
    8aac:	e1540005 	cmp	r4, r5
    8ab0:	0a000002 	beq	8ac0 <va_printk+0x254>
    8ab4:	e5f01001 	ldrb	r1, [r0, #1]!
    8ab8:	e3510000 	cmp	r1, #0
    8abc:	1afffff9 	bne	8aa8 <va_printk+0x23c>
    8ac0:	e5d21000 	ldrb	r1, [r2]
    8ac4:	e3510000 	cmp	r1, #0
    8ac8:	0a000001 	beq	8ad4 <va_printk+0x268>
    8acc:	e1540005 	cmp	r4, r5
    8ad0:	3affff71 	bcc	889c <va_printk+0x30>
    8ad4:	e3a03000 	mov	r3, #0
    8ad8:	e4c43001 	strb	r3, [r4], #1
    8adc:	e0670004 	rsb	r0, r7, r4
    8ae0:	ea000004 	b	8af8 <va_printk+0x28c>
    8ae4:	e2862001 	add	r2, r6, #1
    8ae8:	e5d01000 	ldrb	r1, [r0]
    8aec:	e3510000 	cmp	r1, #0
    8af0:	0afffff2 	beq	8ac0 <va_printk+0x254>
    8af4:	eaffffeb 	b	8aa8 <va_printk+0x23c>
    8af8:	e28dd08c 	add	sp, sp, #140	; 0x8c
    8afc:	e8bd8ff0 	pop	{r4, r5, r6, r7, r8, r9, sl, fp, pc}
    8b00:	000098cc 	andeq	r9, r0, ip, asr #17
    8b04:	00009898 	muleq	r0, r8, r8
    8b08:	00009878 	andeq	r9, r0, r8, ror r8
    8b0c:	000098e8 	andeq	r9, r0, r8, ror #17
    8b10:	00009910 	andeq	r9, r0, r0, lsl r9

00008b14 <snprintk>:
    8b14:	e92d000c 	push	{r2, r3}
    8b18:	e52de004 	push	{lr}		; (str lr, [sp, #-4]!)
    8b1c:	e24dd00c 	sub	sp, sp, #12
    8b20:	e28d3014 	add	r3, sp, #20
    8b24:	e58d3004 	str	r3, [sp, #4]
    8b28:	e59d2010 	ldr	r2, [sp, #16]
    8b2c:	ebffff4e 	bl	886c <va_printk>
    8b30:	e28dd00c 	add	sp, sp, #12
    8b34:	e49de004 	pop	{lr}		; (ldr lr, [sp], #4)
    8b38:	e28dd008 	add	sp, sp, #8
    8b3c:	e12fff1e 	bx	lr

00008b40 <putk>:
    8b40:	e92d4010 	push	{r4, lr}
    8b44:	e1a04000 	mov	r4, r0
    8b48:	e5d00000 	ldrb	r0, [r0]
    8b4c:	e3500000 	cmp	r0, #0
    8b50:	0a000003 	beq	8b64 <putk+0x24>
    8b54:	eb000270 	bl	951c <uart_putc>
    8b58:	e5f40001 	ldrb	r0, [r4, #1]!
    8b5c:	e3500000 	cmp	r0, #0
    8b60:	1afffffb 	bne	8b54 <putk+0x14>
    8b64:	e3a00001 	mov	r0, #1
    8b68:	e8bd8010 	pop	{r4, pc}

00008b6c <panic>:
    8b6c:	e92d4008 	push	{r3, lr}
    8b70:	e1a06000 	mov	r6, r0
    8b74:	e1a05001 	mov	r5, r1
    8b78:	e1a04002 	mov	r4, r2
    8b7c:	e59f0018 	ldr	r0, [pc, #24]	; 8b9c <panic+0x30>
    8b80:	ebffffee 	bl	8b40 <putk>
    8b84:	e59f0014 	ldr	r0, [pc, #20]	; 8ba0 <panic+0x34>
    8b88:	e1a01006 	mov	r1, r6
    8b8c:	e1a02005 	mov	r2, r5
    8b90:	e1a03004 	mov	r3, r4
    8b94:	ebfffe9d 	bl	8610 <printk>
    8b98:	eb00000c 	bl	8bd0 <rpi_reboot>
    8b9c:	00009948 	andeq	r9, r0, r8, asr #18
    8ba0:	00009954 	andeq	r9, r0, r4, asr r9

00008ba4 <at_user_level>:
    8ba4:	e10f0000 	mrs	r0, CPSR
    8ba8:	e200001f 	and	r0, r0, #31
    8bac:	e3500010 	cmp	r0, #16
    8bb0:	13a00000 	movne	r0, #0
    8bb4:	03a00001 	moveq	r0, #1
    8bb8:	e12fff1e 	bx	lr

00008bbc <set_user_level>:
    8bbc:	e10f3000 	mrs	r3, CPSR
    8bc0:	e3c3301f 	bic	r3, r3, #31
    8bc4:	e3833010 	orr	r3, r3, #16
    8bc8:	e129f003 	msr	CPSR_fc, r3
    8bcc:	e12fff1e 	bx	lr

00008bd0 <rpi_reboot>:
    8bd0:	e92d4008 	push	{r3, lr}
    8bd4:	ebfffff2 	bl	8ba4 <at_user_level>
    8bd8:	e3500000 	cmp	r0, #0
    8bdc:	0a000009 	beq	8c08 <rpi_reboot+0x38>
    8be0:	ebfffff5 	bl	8bbc <set_user_level>
    8be4:	ebffffee 	bl	8ba4 <at_user_level>
    8be8:	e3500000 	cmp	r0, #0
    8bec:	1a000005 	bne	8c08 <rpi_reboot+0x38>
    8bf0:	e59f0034 	ldr	r0, [pc, #52]	; 8c2c <rpi_reboot+0x5c>
    8bf4:	e59f1034 	ldr	r1, [pc, #52]	; 8c30 <rpi_reboot+0x60>
    8bf8:	e59f2034 	ldr	r2, [pc, #52]	; 8c34 <rpi_reboot+0x64>
    8bfc:	e3a0301f 	mov	r3, #31
    8c00:	ebfffe82 	bl	8610 <printk>
    8c04:	ebfffff1 	bl	8bd0 <rpi_reboot>
    8c08:	e3a0001e 	mov	r0, #30
    8c0c:	eb000022 	bl	8c9c <delay_ms>
    8c10:	e59f0020 	ldr	r0, [pc, #32]	; 8c38 <rpi_reboot+0x68>
    8c14:	e59f1020 	ldr	r1, [pc, #32]	; 8c3c <rpi_reboot+0x6c>
    8c18:	eb000030 	bl	8ce0 <PUT32>
    8c1c:	e59f001c 	ldr	r0, [pc, #28]	; 8c40 <rpi_reboot+0x70>
    8c20:	e59f101c 	ldr	r1, [pc, #28]	; 8c44 <rpi_reboot+0x74>
    8c24:	eb00002d 	bl	8ce0 <PUT32>
    8c28:	eafffffe 	b	8c28 <rpi_reboot+0x58>
    8c2c:	00009980 	andeq	r9, r0, r0, lsl #19
    8c30:	000099a0 	andeq	r9, r0, r0, lsr #19
    8c34:	00009974 	andeq	r9, r0, r4, ror r9
    8c38:	20100024 	andscs	r0, r0, r4, lsr #32
    8c3c:	5a000001 	bpl	8c48 <clean_reboot>
    8c40:	2010001c 	andscs	r0, r0, ip, lsl r0
    8c44:	5a000020 	bpl	8ccc <dmb+0x4>

00008c48 <clean_reboot>:
    8c48:	e92d4008 	push	{r3, lr}
    8c4c:	e59f000c 	ldr	r0, [pc, #12]	; 8c60 <clean_reboot+0x18>
    8c50:	ebffffba 	bl	8b40 <putk>
    8c54:	e3a00032 	mov	r0, #50	; 0x32
    8c58:	eb00000f 	bl	8c9c <delay_ms>
    8c5c:	ebffffdb 	bl	8bd0 <rpi_reboot>
    8c60:	000099b0 			; <UNDEFINED> instruction: 0x000099b0

00008c64 <timer_get_time>:
    8c64:	e92d4008 	push	{r3, lr}
    8c68:	e59f0004 	ldr	r0, [pc, #4]	; 8c74 <timer_get_time+0x10>
    8c6c:	eb000023 	bl	8d00 <GET32>
    8c70:	e8bd8008 	pop	{r3, pc}
    8c74:	20003004 	andcs	r3, r0, r4

00008c78 <delay_us>:
    8c78:	e92d4038 	push	{r3, r4, r5, lr}
    8c7c:	e1a05000 	mov	r5, r0
    8c80:	ebfffff7 	bl	8c64 <timer_get_time>
    8c84:	e1a04000 	mov	r4, r0
    8c88:	ebfffff5 	bl	8c64 <timer_get_time>
    8c8c:	e0640000 	rsb	r0, r4, r0
    8c90:	e1500005 	cmp	r0, r5
    8c94:	3afffffb 	bcc	8c88 <delay_us+0x10>
    8c98:	e8bd8038 	pop	{r3, r4, r5, pc}

00008c9c <delay_ms>:
    8c9c:	e92d4008 	push	{r3, lr}
    8ca0:	e3a03ffa 	mov	r3, #1000	; 0x3e8
    8ca4:	e0000093 	mul	r0, r3, r0
    8ca8:	ebfffff2 	bl	8c78 <delay_us>
    8cac:	e8bd8008 	pop	{r3, pc}

00008cb0 <mb>:
    8cb0:	e3a00000 	mov	r0, #0
    8cb4:	ee070f15 	mcr	15, 0, r0, cr7, cr5, {0}
    8cb8:	ee070fd5 	mcr	15, 0, r0, cr7, cr5, {6}
    8cbc:	ee070f9a 	mcr	15, 0, r0, cr7, cr10, {4}
    8cc0:	ee070f95 	mcr	15, 0, r0, cr7, cr5, {4}
    8cc4:	e12fff1e 	bx	lr

00008cc8 <dmb>:
    8cc8:	ee070fba 	mcr	15, 0, r0, cr7, cr10, {5}
    8ccc:	e12fff1e 	bx	lr

00008cd0 <dsb>:
    8cd0:	ee070f9a 	mcr	15, 0, r0, cr7, cr10, {4}
    8cd4:	e12fff1e 	bx	lr

00008cd8 <put32>:
    8cd8:	e5801000 	str	r1, [r0]
    8cdc:	e12fff1e 	bx	lr

00008ce0 <PUT32>:
    8ce0:	e5801000 	str	r1, [r0]
    8ce4:	e12fff1e 	bx	lr

00008ce8 <PUT16>:
    8ce8:	e1c010b0 	strh	r1, [r0]
    8cec:	e12fff1e 	bx	lr

00008cf0 <PUT8>:
    8cf0:	e5c01000 	strb	r1, [r0]
    8cf4:	e12fff1e 	bx	lr

00008cf8 <get32>:
    8cf8:	e5900000 	ldr	r0, [r0]
    8cfc:	e12fff1e 	bx	lr

00008d00 <GET32>:
    8d00:	e5900000 	ldr	r0, [r0]
    8d04:	e12fff1e 	bx	lr

00008d08 <GETPC>:
    8d08:	e1a0000e 	mov	r0, lr
    8d0c:	e12fff1e 	bx	lr

00008d10 <dummy>:
    8d10:	e12fff1e 	bx	lr
    8d14:	6f697067 	svcvs	0x00697067
    8d18:	696e695f 	stmdbvs	lr!, {r0, r1, r2, r3, r4, r6, r8, fp, sp, lr}^
    8d1c:	00000074 	andeq	r0, r0, r4, ror r0
    8d20:	ff00000c 			; <UNDEFINED> instruction: 0xff00000c

00008d24 <gpio_init>:
    8d24:	e1a0c00d 	mov	ip, sp
    8d28:	e92dd800 	push	{fp, ip, lr, pc}
    8d2c:	e24cb004 	sub	fp, ip, #4
    8d30:	e24bd00c 	sub	sp, fp, #12
    8d34:	e89d6800 	ldm	sp, {fp, sp, lr}
    8d38:	e12fff1e 	bx	lr
    8d3c:	6f697067 	svcvs	0x00697067
    8d40:	7465735f 	strbtvc	r7, [r5], #-863	; 0x35f
    8d44:	6e75665f 	mrcvs	6, 3, r6, cr5, cr15, {2}
    8d48:	6f697463 	svcvs	0x00697463
    8d4c:	0000006e 	andeq	r0, r0, lr, rrx
    8d50:	ff000014 			; <UNDEFINED> instruction: 0xff000014

00008d54 <gpio_set_function>:
    8d54:	e1a0c00d 	mov	ip, sp
    8d58:	e92dd800 	push	{fp, ip, lr, pc}
    8d5c:	e24cb004 	sub	fp, ip, #4
    8d60:	e3500035 	cmp	r0, #53	; 0x35
    8d64:	8a00000f 	bhi	8da8 <gpio_set_function+0x54>
    8d68:	e3510007 	cmp	r1, #7
    8d6c:	8a00000d 	bhi	8da8 <gpio_set_function+0x54>
    8d70:	e59fc03c 	ldr	ip, [pc, #60]	; 8db4 <gpio_set_function+0x60>
    8d74:	e0832c90 	umull	r2, r3, r0, ip
    8d78:	e1a021a3 	lsr	r2, r3, #3
    8d7c:	e082c102 	add	ip, r2, r2, lsl #2
    8d80:	e1a0308c 	lsl	r3, ip, #1
    8d84:	e0403003 	sub	r3, r0, r3
    8d88:	e0833083 	add	r3, r3, r3, lsl #1
    8d8c:	e59fc024 	ldr	ip, [pc, #36]	; 8db8 <gpio_set_function+0x64>
    8d90:	e79c0102 	ldr	r0, [ip, r2, lsl #2]
    8d94:	e3a0e007 	mov	lr, #7
    8d98:	e1c0031e 	bic	r0, r0, lr, lsl r3
    8d9c:	e001100e 	and	r1, r1, lr
    8da0:	e1803311 	orr	r3, r0, r1, lsl r3
    8da4:	e78c3102 	str	r3, [ip, r2, lsl #2]
    8da8:	e24bd00c 	sub	sp, fp, #12
    8dac:	e89d6800 	ldm	sp, {fp, sp, lr}
    8db0:	e12fff1e 	bx	lr
    8db4:	cccccccd 	stclgt	12, cr12, [ip], {205}	; 0xcd
    8db8:	20200000 	eorcs	r0, r0, r0
    8dbc:	6f697067 	svcvs	0x00697067
    8dc0:	7465675f 	strbtvc	r6, [r5], #-1887	; 0x75f
    8dc4:	6e75665f 	mrcvs	6, 3, r6, cr5, cr15, {2}
    8dc8:	6f697463 	svcvs	0x00697463
    8dcc:	0000006e 	andeq	r0, r0, lr, rrx
    8dd0:	ff000014 			; <UNDEFINED> instruction: 0xff000014

00008dd4 <gpio_get_function>:
    8dd4:	e1a0c00d 	mov	ip, sp
    8dd8:	e92dd800 	push	{fp, ip, lr, pc}
    8ddc:	e24cb004 	sub	fp, ip, #4
    8de0:	e3500035 	cmp	r0, #53	; 0x35
    8de4:	8a00000d 	bhi	8e20 <gpio_get_function+0x4c>
    8de8:	e59f1038 	ldr	r1, [pc, #56]	; 8e28 <gpio_get_function+0x54>
    8dec:	e0832190 	umull	r2, r3, r0, r1
    8df0:	e1a021a3 	lsr	r2, r3, #3
    8df4:	e0821102 	add	r1, r2, r2, lsl #2
    8df8:	e1a03081 	lsl	r3, r1, #1
    8dfc:	e0403003 	sub	r3, r0, r3
    8e00:	e0833083 	add	r3, r3, r3, lsl #1
    8e04:	e59f1020 	ldr	r1, [pc, #32]	; 8e2c <gpio_get_function+0x58>
    8e08:	e7910102 	ldr	r0, [r1, r2, lsl #2]
    8e0c:	e1a03330 	lsr	r3, r0, r3
    8e10:	e2030007 	and	r0, r3, #7
    8e14:	e24bd00c 	sub	sp, fp, #12
    8e18:	e89d6800 	ldm	sp, {fp, sp, lr}
    8e1c:	e12fff1e 	bx	lr
    8e20:	e3e00000 	mvn	r0, #0
    8e24:	eafffffa 	b	8e14 <gpio_get_function+0x40>
    8e28:	cccccccd 	stclgt	12, cr12, [ip], {205}	; 0xcd
    8e2c:	20200000 	eorcs	r0, r0, r0
    8e30:	6f697067 	svcvs	0x00697067
    8e34:	7465735f 	strbtvc	r7, [r5], #-863	; 0x35f
    8e38:	706e695f 	rsbvc	r6, lr, pc, asr r9
    8e3c:	00007475 	andeq	r7, r0, r5, ror r4
    8e40:	ff000010 			; <UNDEFINED> instruction: 0xff000010

00008e44 <gpio_set_input>:
    8e44:	e1a0c00d 	mov	ip, sp
    8e48:	e92dd800 	push	{fp, ip, lr, pc}
    8e4c:	e24cb004 	sub	fp, ip, #4
    8e50:	e3a01000 	mov	r1, #0
    8e54:	ebffffbe 	bl	8d54 <gpio_set_function>
    8e58:	e24bd00c 	sub	sp, fp, #12
    8e5c:	e89d6800 	ldm	sp, {fp, sp, lr}
    8e60:	e12fff1e 	bx	lr
    8e64:	6f697067 	svcvs	0x00697067
    8e68:	7465735f 	strbtvc	r7, [r5], #-863	; 0x35f
    8e6c:	74756f5f 	ldrbtvc	r6, [r5], #-3935	; 0xf5f
    8e70:	00747570 	rsbseq	r7, r4, r0, ror r5
    8e74:	ff000010 			; <UNDEFINED> instruction: 0xff000010

00008e78 <gpio_set_output>:
    8e78:	e1a0c00d 	mov	ip, sp
    8e7c:	e92dd800 	push	{fp, ip, lr, pc}
    8e80:	e24cb004 	sub	fp, ip, #4
    8e84:	e3a01001 	mov	r1, #1
    8e88:	ebffffb1 	bl	8d54 <gpio_set_function>
    8e8c:	e24bd00c 	sub	sp, fp, #12
    8e90:	e89d6800 	ldm	sp, {fp, sp, lr}
    8e94:	e12fff1e 	bx	lr
    8e98:	6f697067 	svcvs	0x00697067
    8e9c:	6972775f 	ldmdbvs	r2!, {r0, r1, r2, r3, r4, r6, r8, r9, sl, ip, sp, lr}^
    8ea0:	00006574 	andeq	r6, r0, r4, ror r5
    8ea4:	ff00000c 			; <UNDEFINED> instruction: 0xff00000c

00008ea8 <gpio_write>:
    8ea8:	e1a0c00d 	mov	ip, sp
    8eac:	e92dd800 	push	{fp, ip, lr, pc}
    8eb0:	e24cb004 	sub	fp, ip, #4
    8eb4:	e3500035 	cmp	r0, #53	; 0x35
    8eb8:	8a000008 	bhi	8ee0 <gpio_write+0x38>
    8ebc:	e1a032a0 	lsr	r3, r0, #5
    8ec0:	e200001f 	and	r0, r0, #31
    8ec4:	e3510000 	cmp	r1, #0
    8ec8:	1a000007 	bne	8eec <gpio_write+0x44>
    8ecc:	e3a02001 	mov	r2, #1
    8ed0:	e1a00012 	lsl	r0, r2, r0
    8ed4:	e283300a 	add	r3, r3, #10
    8ed8:	e59f202c 	ldr	r2, [pc, #44]	; 8f0c <gpio_write+0x64>
    8edc:	e7820103 	str	r0, [r2, r3, lsl #2]
    8ee0:	e24bd00c 	sub	sp, fp, #12
    8ee4:	e89d6800 	ldm	sp, {fp, sp, lr}
    8ee8:	e12fff1e 	bx	lr
    8eec:	e3a02001 	mov	r2, #1
    8ef0:	e1a00012 	lsl	r0, r2, r0
    8ef4:	e2833006 	add	r3, r3, #6
    8ef8:	e1a03103 	lsl	r3, r3, #2
    8efc:	e2833202 	add	r3, r3, #536870912	; 0x20000000
    8f00:	e2833602 	add	r3, r3, #2097152	; 0x200000
    8f04:	e5830004 	str	r0, [r3, #4]
    8f08:	eafffff4 	b	8ee0 <gpio_write+0x38>
    8f0c:	20200000 	eorcs	r0, r0, r0
    8f10:	6f697067 	svcvs	0x00697067
    8f14:	6165725f 	cmnvs	r5, pc, asr r2
    8f18:	00000064 	andeq	r0, r0, r4, rrx
    8f1c:	ff00000c 			; <UNDEFINED> instruction: 0xff00000c

00008f20 <gpio_read>:
    8f20:	e1a0c00d 	mov	ip, sp
    8f24:	e92dd800 	push	{fp, ip, lr, pc}
    8f28:	e24cb004 	sub	fp, ip, #4
    8f2c:	e3500035 	cmp	r0, #53	; 0x35
    8f30:	8a00000d 	bhi	8f6c <gpio_read+0x4c>
    8f34:	e1a032a0 	lsr	r3, r0, #5
    8f38:	e200001f 	and	r0, r0, #31
    8f3c:	e283300c 	add	r3, r3, #12
    8f40:	e1a03103 	lsl	r3, r3, #2
    8f44:	e2833202 	add	r3, r3, #536870912	; 0x20000000
    8f48:	e2833602 	add	r3, r3, #2097152	; 0x200000
    8f4c:	e5933004 	ldr	r3, [r3, #4]
    8f50:	e3a02001 	mov	r2, #1
    8f54:	e0133012 	ands	r3, r3, r2, lsl r0
    8f58:	11a00002 	movne	r0, r2
    8f5c:	03a00000 	moveq	r0, #0
    8f60:	e24bd00c 	sub	sp, fp, #12
    8f64:	e89d6800 	ldm	sp, {fp, sp, lr}
    8f68:	e12fff1e 	bx	lr
    8f6c:	e3e00000 	mvn	r0, #0
    8f70:	eafffffa 	b	8f60 <gpio_read+0x40>
    8f74:	6f697067 	svcvs	0x00697067
    8f78:	6765725f 			; <UNDEFINED> instruction: 0x6765725f
    8f7c:	726f665f 	rsbvc	r6, pc, #99614720	; 0x5f00000
    8f80:	6576655f 	ldrbvs	r6, [r6, #-1375]!	; 0x55f
    8f84:	0000746e 	andeq	r7, r0, lr, ror #8
    8f88:	ff000014 			; <UNDEFINED> instruction: 0xff000014

00008f8c <gpio_reg_for_event>:
    8f8c:	e1a0c00d 	mov	ip, sp
    8f90:	e92dd810 	push	{r4, fp, ip, lr, pc}
    8f94:	e24cb004 	sub	fp, ip, #4
    8f98:	e24dd01c 	sub	sp, sp, #28
    8f9c:	e1a04000 	mov	r4, r0
    8fa0:	e24bc02c 	sub	ip, fp, #44	; 0x2c
    8fa4:	e59fe034 	ldr	lr, [pc, #52]	; 8fe0 <gpio_reg_for_event+0x54>
    8fa8:	e8be000f 	ldm	lr!, {r0, r1, r2, r3}
    8fac:	e8ac000f 	stmia	ip!, {r0, r1, r2, r3}
    8fb0:	e89e0003 	ldm	lr, {r0, r1}
    8fb4:	e88c0003 	stm	ip, {r0, r1}
    8fb8:	e3540005 	cmp	r4, #5
    8fbc:	8a000005 	bhi	8fd8 <gpio_reg_for_event+0x4c>
    8fc0:	e24b3014 	sub	r3, fp, #20
    8fc4:	e0834104 	add	r4, r3, r4, lsl #2
    8fc8:	e5140018 	ldr	r0, [r4, #-24]
    8fcc:	e24bd010 	sub	sp, fp, #16
    8fd0:	e89d6810 	ldm	sp, {r4, fp, sp, lr}
    8fd4:	e12fff1e 	bx	lr
    8fd8:	e3a00000 	mov	r0, #0
    8fdc:	eafffffa 	b	8fcc <gpio_reg_for_event+0x40>
    8fe0:	000099bc 			; <UNDEFINED> instruction: 0x000099bc
    8fe4:	6f697067 	svcvs	0x00697067
    8fe8:	7465735f 	strbtvc	r7, [r5], #-863	; 0x35f
    8fec:	6475705f 	ldrbtvs	r7, [r5], #-95	; 0x5f
    8ff0:	00000000 	andeq	r0, r0, r0
    8ff4:	ff000010 			; <UNDEFINED> instruction: 0xff000010

00008ff8 <gpio_set_pud>:
    8ff8:	e1a0c00d 	mov	ip, sp
    8ffc:	e92dd800 	push	{fp, ip, lr, pc}
    9000:	e24cb004 	sub	fp, ip, #4
    9004:	e24dd008 	sub	sp, sp, #8
    9008:	e3500035 	cmp	r0, #53	; 0x35
    900c:	8a00001e 	bhi	908c <gpio_set_pud+0x94>
    9010:	e1a022a0 	lsr	r2, r0, #5
    9014:	e200001f 	and	r0, r0, #31
    9018:	e59f3078 	ldr	r3, [pc, #120]	; 9098 <gpio_set_pud+0xa0>
    901c:	e5831094 	str	r1, [r3, #148]	; 0x94
    9020:	e3a03000 	mov	r3, #0
    9024:	e50b3014 	str	r3, [fp, #-20]
    9028:	ea000002 	b	9038 <gpio_set_pud+0x40>
    902c:	e51b3014 	ldr	r3, [fp, #-20]
    9030:	e2833001 	add	r3, r3, #1
    9034:	e50b3014 	str	r3, [fp, #-20]
    9038:	e51b3014 	ldr	r3, [fp, #-20]
    903c:	e3530095 	cmp	r3, #149	; 0x95
    9040:	dafffff9 	ble	902c <gpio_set_pud+0x34>
    9044:	e3a03001 	mov	r3, #1
    9048:	e1a00013 	lsl	r0, r3, r0
    904c:	e2823026 	add	r3, r2, #38	; 0x26
    9050:	e59f1040 	ldr	r1, [pc, #64]	; 9098 <gpio_set_pud+0xa0>
    9054:	e7810103 	str	r0, [r1, r3, lsl #2]
    9058:	e3a03000 	mov	r3, #0
    905c:	e50b3010 	str	r3, [fp, #-16]
    9060:	ea000002 	b	9070 <gpio_set_pud+0x78>
    9064:	e51b3010 	ldr	r3, [fp, #-16]
    9068:	e2833001 	add	r3, r3, #1
    906c:	e50b3010 	str	r3, [fp, #-16]
    9070:	e51b3010 	ldr	r3, [fp, #-16]
    9074:	e3530095 	cmp	r3, #149	; 0x95
    9078:	dafffff9 	ble	9064 <gpio_set_pud+0x6c>
    907c:	e2822026 	add	r2, r2, #38	; 0x26
    9080:	e59f3010 	ldr	r3, [pc, #16]	; 9098 <gpio_set_pud+0xa0>
    9084:	e3a01000 	mov	r1, #0
    9088:	e7831102 	str	r1, [r3, r2, lsl #2]
    908c:	e24bd00c 	sub	sp, fp, #12
    9090:	e89d6800 	ldm	sp, {fp, sp, lr}
    9094:	e12fff1e 	bx	lr
    9098:	20200000 	eorcs	r0, r0, r0
    909c:	6f697067 	svcvs	0x00697067
    90a0:	7465675f 	strbtvc	r6, [r5], #-1887	; 0x75f
    90a4:	6576655f 	ldrbvs	r6, [r6, #-1375]!	; 0x55f
    90a8:	645f746e 	ldrbvs	r7, [pc], #-1134	; 90b0 <gpio_set_pud+0xb8>
    90ac:	63657465 	cmnvs	r5, #1694498816	; 0x65000000
    90b0:	6e6f6974 	mcrvs	9, 3, r6, cr15, cr4, {3}
    90b4:	00000000 	andeq	r0, r0, r0
    90b8:	ff00001c 			; <UNDEFINED> instruction: 0xff00001c

000090bc <gpio_get_event_detection>:
    90bc:	e1a0c00d 	mov	ip, sp
    90c0:	e92dd830 	push	{r4, r5, fp, ip, lr, pc}
    90c4:	e24cb004 	sub	fp, ip, #4
    90c8:	e1a04000 	mov	r4, r0
    90cc:	e1a00001 	mov	r0, r1
    90d0:	ebffffad 	bl	8f8c <gpio_reg_for_event>
    90d4:	e1a03000 	mov	r3, r0
    90d8:	e2700001 	rsbs	r0, r0, #1
    90dc:	33a00000 	movcc	r0, #0
    90e0:	e3540035 	cmp	r4, #53	; 0x35
    90e4:	83800001 	orrhi	r0, r0, #1
    90e8:	e3500000 	cmp	r0, #0
    90ec:	1a000009 	bne	9118 <gpio_get_event_detection+0x5c>
    90f0:	e1a022a4 	lsr	r2, r4, #5
    90f4:	e204401f 	and	r4, r4, #31
    90f8:	e7933102 	ldr	r3, [r3, r2, lsl #2]
    90fc:	e3a02001 	mov	r2, #1
    9100:	e0133412 	ands	r3, r3, r2, lsl r4
    9104:	11a00002 	movne	r0, r2
    9108:	03a00000 	moveq	r0, #0
    910c:	e24bd014 	sub	sp, fp, #20
    9110:	e89d6830 	ldm	sp, {r4, r5, fp, sp, lr}
    9114:	e12fff1e 	bx	lr
    9118:	e3a00000 	mov	r0, #0
    911c:	eafffffa 	b	910c <gpio_get_event_detection+0x50>
    9120:	6f697067 	svcvs	0x00697067
    9124:	6568635f 	strbvs	r6, [r8, #-863]!	; 0x35f
    9128:	655f6b63 	ldrbvs	r6, [pc, #-2915]	; 85cd <timer_interrupt_init+0x25>
    912c:	746e6576 	strbtvc	r6, [lr], #-1398	; 0x576
    9130:	00000000 	andeq	r0, r0, r0
    9134:	ff000014 			; <UNDEFINED> instruction: 0xff000014

00009138 <gpio_check_event>:
    9138:	e1a0c00d 	mov	ip, sp
    913c:	e92dd800 	push	{fp, ip, lr, pc}
    9140:	e24cb004 	sub	fp, ip, #4
    9144:	e3500035 	cmp	r0, #53	; 0x35
    9148:	8a00000b 	bhi	917c <gpio_check_event+0x44>
    914c:	e1a032a0 	lsr	r3, r0, #5
    9150:	e200001f 	and	r0, r0, #31
    9154:	e2833010 	add	r3, r3, #16
    9158:	e59f2024 	ldr	r2, [pc, #36]	; 9184 <gpio_check_event+0x4c>
    915c:	e7923103 	ldr	r3, [r2, r3, lsl #2]
    9160:	e3a02001 	mov	r2, #1
    9164:	e0133012 	ands	r3, r3, r2, lsl r0
    9168:	11a00002 	movne	r0, r2
    916c:	03a00000 	moveq	r0, #0
    9170:	e24bd00c 	sub	sp, fp, #12
    9174:	e89d6800 	ldm	sp, {fp, sp, lr}
    9178:	e12fff1e 	bx	lr
    917c:	e3a00000 	mov	r0, #0
    9180:	eafffffa 	b	9170 <gpio_check_event+0x38>
    9184:	20200000 	eorcs	r0, r0, r0
    9188:	6f697067 	svcvs	0x00697067
    918c:	656c635f 	strbvs	r6, [ip, #-863]!	; 0x35f
    9190:	655f7261 	ldrbvs	r7, [pc, #-609]	; 8f37 <gpio_read+0x17>
    9194:	746e6576 	strbtvc	r6, [lr], #-1398	; 0x576
    9198:	00000000 	andeq	r0, r0, r0
    919c:	ff000014 			; <UNDEFINED> instruction: 0xff000014

000091a0 <gpio_clear_event>:
    91a0:	e1a0c00d 	mov	ip, sp
    91a4:	e92dd830 	push	{r4, r5, fp, ip, lr, pc}
    91a8:	e24cb004 	sub	fp, ip, #4
    91ac:	e3500035 	cmp	r0, #53	; 0x35
    91b0:	9a000002 	bls	91c0 <gpio_clear_event+0x20>
    91b4:	e24bd014 	sub	sp, fp, #20
    91b8:	e89d6830 	ldm	sp, {r4, r5, fp, sp, lr}
    91bc:	e12fff1e 	bx	lr
    91c0:	e1a042a0 	lsr	r4, r0, #5
    91c4:	e200501f 	and	r5, r0, #31
    91c8:	ebffffda 	bl	9138 <gpio_check_event>
    91cc:	e3500000 	cmp	r0, #0
    91d0:	0afffff7 	beq	91b4 <gpio_clear_event+0x14>
    91d4:	e3a03001 	mov	r3, #1
    91d8:	e1a03513 	lsl	r3, r3, r5
    91dc:	e2844010 	add	r4, r4, #16
    91e0:	e59f2004 	ldr	r2, [pc, #4]	; 91ec <gpio_clear_event+0x4c>
    91e4:	e7823104 	str	r3, [r2, r4, lsl #2]
    91e8:	eafffff1 	b	91b4 <gpio_clear_event+0x14>
    91ec:	20200000 	eorcs	r0, r0, r0
    91f0:	6f697067 	svcvs	0x00697067
    91f4:	7465735f 	strbtvc	r7, [r5], #-863	; 0x35f
    91f8:	7465645f 	strbtvc	r6, [r5], #-1119	; 0x45f
    91fc:	69746365 	ldmdbvs	r4!, {r0, r2, r5, r6, r8, r9, sp, lr}^
    9200:	00006e6f 	andeq	r6, r0, pc, ror #28
    9204:	ff000014 			; <UNDEFINED> instruction: 0xff000014

00009208 <gpio_set_detection>:
    9208:	e1a0c00d 	mov	ip, sp
    920c:	e92dd830 	push	{r4, r5, fp, ip, lr, pc}
    9210:	e24cb004 	sub	fp, ip, #4
    9214:	e1a04000 	mov	r4, r0
    9218:	e1a05002 	mov	r5, r2
    921c:	e1a00001 	mov	r0, r1
    9220:	ebffff59 	bl	8f8c <gpio_reg_for_event>
    9224:	e1a03000 	mov	r3, r0
    9228:	e2700001 	rsbs	r0, r0, #1
    922c:	33a00000 	movcc	r0, #0
    9230:	e3540035 	cmp	r4, #53	; 0x35
    9234:	83800001 	orrhi	r0, r0, #1
    9238:	e3500000 	cmp	r0, #0
    923c:	1a000009 	bne	9268 <gpio_set_detection+0x60>
    9240:	e1a022a4 	lsr	r2, r4, #5
    9244:	e204001f 	and	r0, r4, #31
    9248:	e3550000 	cmp	r5, #0
    924c:	0a000008 	beq	9274 <gpio_set_detection+0x6c>
    9250:	e7931102 	ldr	r1, [r3, r2, lsl #2]
    9254:	e3a0c001 	mov	ip, #1
    9258:	e181101c 	orr	r1, r1, ip, lsl r0
    925c:	e7831102 	str	r1, [r3, r2, lsl #2]
    9260:	e1a00004 	mov	r0, r4
    9264:	ebffffcd 	bl	91a0 <gpio_clear_event>
    9268:	e24bd014 	sub	sp, fp, #20
    926c:	e89d6830 	ldm	sp, {r4, r5, fp, sp, lr}
    9270:	e12fff1e 	bx	lr
    9274:	e7931102 	ldr	r1, [r3, r2, lsl #2]
    9278:	e3a0c001 	mov	ip, #1
    927c:	e1c1101c 	bic	r1, r1, ip, lsl r0
    9280:	e7831102 	str	r1, [r3, r2, lsl #2]
    9284:	eafffff5 	b	9260 <gpio_set_detection+0x58>
    9288:	6f697067 	svcvs	0x00697067
    928c:	7369645f 	cmnvc	r9, #1593835520	; 0x5f000000
    9290:	656c6261 	strbvs	r6, [ip, #-609]!	; 0x261
    9294:	6576655f 	ldrbvs	r6, [r6, #-1375]!	; 0x55f
    9298:	645f746e 	ldrbvs	r7, [pc], #-1134	; 92a0 <gpio_set_detection+0x98>
    929c:	63657465 	cmnvs	r5, #1694498816	; 0x65000000
    92a0:	6e6f6974 	mcrvs	9, 3, r6, cr15, cr4, {3}
    92a4:	00000000 	andeq	r0, r0, r0
    92a8:	ff000020 			; <UNDEFINED> instruction: 0xff000020

000092ac <gpio_disable_event_detection>:
    92ac:	e1a0c00d 	mov	ip, sp
    92b0:	e92dd800 	push	{fp, ip, lr, pc}
    92b4:	e24cb004 	sub	fp, ip, #4
    92b8:	e3a02000 	mov	r2, #0
    92bc:	ebffffd1 	bl	9208 <gpio_set_detection>
    92c0:	e24bd00c 	sub	sp, fp, #12
    92c4:	e89d6800 	ldm	sp, {fp, sp, lr}
    92c8:	e12fff1e 	bx	lr
    92cc:	6f697067 	svcvs	0x00697067
    92d0:	616e655f 	cmnvs	lr, pc, asr r5
    92d4:	5f656c62 	svcpl	0x00656c62
    92d8:	6e657665 	cdpvs	6, 6, cr7, cr5, cr5, {3}
    92dc:	65645f74 	strbvs	r5, [r4, #-3956]!	; 0xf74
    92e0:	74636574 	strbtvc	r6, [r3], #-1396	; 0x574
    92e4:	006e6f69 	rsbeq	r6, lr, r9, ror #30
    92e8:	ff00001c 			; <UNDEFINED> instruction: 0xff00001c

000092ec <gpio_enable_event_detection>:
    92ec:	e1a0c00d 	mov	ip, sp
    92f0:	e92dd800 	push	{fp, ip, lr, pc}
    92f4:	e24cb004 	sub	fp, ip, #4
    92f8:	e3a02001 	mov	r2, #1
    92fc:	ebffffc1 	bl	9208 <gpio_set_detection>
    9300:	e24bd00c 	sub	sp, fp, #12
    9304:	e89d6800 	ldm	sp, {fp, sp, lr}
    9308:	e12fff1e 	bx	lr
    930c:	6f697067 	svcvs	0x00697067
    9310:	6568635f 	strbvs	r6, [r8, #-863]!	; 0x35f
    9314:	615f6b63 	cmpvs	pc, r3, ror #22
    9318:	635f646e 	cmpvs	pc, #1845493760	; 0x6e000000
    931c:	7261656c 	rsbvc	r6, r1, #108, 10	; 0x1b000000
    9320:	6576655f 	ldrbvs	r6, [r6, #-1375]!	; 0x55f
    9324:	0000746e 	andeq	r7, r0, lr, ror #8
    9328:	ff00001c 			; <UNDEFINED> instruction: 0xff00001c

0000932c <gpio_check_and_clear_event>:
    932c:	e1a0c00d 	mov	ip, sp
    9330:	e92dd830 	push	{r4, r5, fp, ip, lr, pc}
    9334:	e24cb004 	sub	fp, ip, #4
    9338:	e1a04000 	mov	r4, r0
    933c:	e3500035 	cmp	r0, #53	; 0x35
    9340:	9a000004 	bls	9358 <gpio_check_and_clear_event+0x2c>
    9344:	e3a05000 	mov	r5, #0
    9348:	e1a00005 	mov	r0, r5
    934c:	e24bd014 	sub	sp, fp, #20
    9350:	e89d6830 	ldm	sp, {r4, r5, fp, sp, lr}
    9354:	e12fff1e 	bx	lr
    9358:	ebffff76 	bl	9138 <gpio_check_event>
    935c:	e2505000 	subs	r5, r0, #0
    9360:	0afffff8 	beq	9348 <gpio_check_and_clear_event+0x1c>
    9364:	e1a00004 	mov	r0, r4
    9368:	ebffff8c 	bl	91a0 <gpio_clear_event>
    936c:	eafffff5 	b	9348 <gpio_check_and_clear_event+0x1c>
    9370:	6f697067 	svcvs	0x00697067
    9374:	7369645f 	cmnvc	r9, #1593835520	; 0x5f000000
    9378:	656c6261 	strbvs	r6, [ip, #-609]!	; 0x261
    937c:	6c6c615f 	stfvse	f6, [ip], #-380	; 0xfffffe84
    9380:	6576655f 	ldrbvs	r6, [r6, #-1375]!	; 0x55f
    9384:	645f746e 	ldrbvs	r7, [pc], #-1134	; 938c <gpio_check_and_clear_event+0x60>
    9388:	63657465 	cmnvs	r5, #1694498816	; 0x65000000
    938c:	6e6f6974 	mcrvs	9, 3, r6, cr15, cr4, {3}
    9390:	00000000 	andeq	r0, r0, r0
    9394:	ff000024 			; <UNDEFINED> instruction: 0xff000024

00009398 <gpio_disable_all_event_detection>:
    9398:	e1a0c00d 	mov	ip, sp
    939c:	e92dd830 	push	{r4, r5, fp, ip, lr, pc}
    93a0:	e24cb004 	sub	fp, ip, #4
    93a4:	e1a05000 	mov	r5, r0
    93a8:	e3500035 	cmp	r0, #53	; 0x35
    93ac:	8a00000a 	bhi	93dc <gpio_disable_all_event_detection+0x44>
    93b0:	e3a04000 	mov	r4, #0
    93b4:	ea000004 	b	93cc <gpio_disable_all_event_detection+0x34>
    93b8:	e3a02000 	mov	r2, #0
    93bc:	e1a01004 	mov	r1, r4
    93c0:	e1a00005 	mov	r0, r5
    93c4:	ebffff8f 	bl	9208 <gpio_set_detection>
    93c8:	e2844001 	add	r4, r4, #1
    93cc:	e3540005 	cmp	r4, #5
    93d0:	dafffff8 	ble	93b8 <gpio_disable_all_event_detection+0x20>
    93d4:	e1a00005 	mov	r0, r5
    93d8:	ebffff70 	bl	91a0 <gpio_clear_event>
    93dc:	e24bd014 	sub	sp, fp, #20
    93e0:	e89d6830 	ldm	sp, {r4, r5, fp, sp, lr}
    93e4:	e12fff1e 	bx	lr
    93e8:	6f697067 	svcvs	0x00697067
    93ec:	7465735f 	strbtvc	r7, [r5], #-863	; 0x35f
    93f0:	6c75705f 	ldclvs	0, cr7, [r5], #-380	; 0xfffffe84
    93f4:	0070756c 	rsbseq	r7, r0, ip, ror #10
    93f8:	ff000010 			; <UNDEFINED> instruction: 0xff000010

000093fc <gpio_set_pullup>:
    93fc:	e1a0c00d 	mov	ip, sp
    9400:	e92dd800 	push	{fp, ip, lr, pc}
    9404:	e24cb004 	sub	fp, ip, #4
    9408:	e3a01002 	mov	r1, #2
    940c:	ebfffef9 	bl	8ff8 <gpio_set_pud>
    9410:	e24bd00c 	sub	sp, fp, #12
    9414:	e89d6800 	ldm	sp, {fp, sp, lr}
    9418:	e12fff1e 	bx	lr
    941c:	6f697067 	svcvs	0x00697067
    9420:	7465735f 	strbtvc	r7, [r5], #-863	; 0x35f
    9424:	6c75705f 	ldclvs	0, cr7, [r5], #-380	; 0xfffffe84
    9428:	776f646c 	strbvc	r6, [pc, -ip, ror #8]!
    942c:	0000006e 	andeq	r0, r0, lr, rrx
    9430:	ff000014 			; <UNDEFINED> instruction: 0xff000014

00009434 <gpio_set_pulldown>:
    9434:	e1a0c00d 	mov	ip, sp
    9438:	e92dd800 	push	{fp, ip, lr, pc}
    943c:	e24cb004 	sub	fp, ip, #4
    9440:	e3a01001 	mov	r1, #1
    9444:	ebfffeeb 	bl	8ff8 <gpio_set_pud>
    9448:	e24bd00c 	sub	sp, fp, #12
    944c:	e89d6800 	ldm	sp, {fp, sp, lr}
    9450:	e12fff1e 	bx	lr
    9454:	6f697067 	svcvs	0x00697067
    9458:	7465735f 	strbtvc	r7, [r5], #-863	; 0x35f
    945c:	6c75705f 	ldclvs	0, cr7, [r5], #-380	; 0xfffffe84
    9460:	6e6f6e6c 	cdpvs	14, 6, cr6, cr15, cr12, {3}
    9464:	00000065 	andeq	r0, r0, r5, rrx
    9468:	ff000014 			; <UNDEFINED> instruction: 0xff000014

0000946c <gpio_set_pullnone>:
    946c:	e1a0c00d 	mov	ip, sp
    9470:	e92dd800 	push	{fp, ip, lr, pc}
    9474:	e24cb004 	sub	fp, ip, #4
    9478:	e3a01000 	mov	r1, #0
    947c:	ebfffedd 	bl	8ff8 <gpio_set_pud>
    9480:	e24bd00c 	sub	sp, fp, #12
    9484:	e89d6800 	ldm	sp, {fp, sp, lr}
    9488:	e12fff1e 	bx	lr

0000948c <uart_init>:
    948c:	e92d4010 	push	{r4, lr}
    9490:	e3a01002 	mov	r1, #2
    9494:	e3a0000e 	mov	r0, #14
    9498:	ebfffe2d 	bl	8d54 <gpio_set_function>
    949c:	e3a01002 	mov	r1, #2
    94a0:	e3a0000f 	mov	r0, #15
    94a4:	ebfffe2a 	bl	8d54 <gpio_set_function>
    94a8:	e59f4044 	ldr	r4, [pc, #68]	; 94f4 <uart_init+0x68>
    94ac:	e5943004 	ldr	r3, [r4, #4]
    94b0:	e3833001 	orr	r3, r3, #1
    94b4:	e5843004 	str	r3, [r4, #4]
    94b8:	ebfffe02 	bl	8cc8 <dmb>
    94bc:	ebfffe03 	bl	8cd0 <dsb>
    94c0:	e3a03000 	mov	r3, #0
    94c4:	e5843044 	str	r3, [r4, #68]	; 0x44
    94c8:	e5843060 	str	r3, [r4, #96]	; 0x60
    94cc:	e3a02003 	mov	r2, #3
    94d0:	e584204c 	str	r2, [r4, #76]	; 0x4c
    94d4:	e5843050 	str	r3, [r4, #80]	; 0x50
    94d8:	e5843044 	str	r3, [r4, #68]	; 0x44
    94dc:	e3a0300e 	mov	r3, #14
    94e0:	e5843048 	str	r3, [r4, #72]	; 0x48
    94e4:	e2833c01 	add	r3, r3, #256	; 0x100
    94e8:	e5843068 	str	r3, [r4, #104]	; 0x68
    94ec:	e5842060 	str	r2, [r4, #96]	; 0x60
    94f0:	e8bd8010 	pop	{r4, pc}
    94f4:	20215000 	eorcs	r5, r1, r0

000094f8 <uart_getc>:
    94f8:	e59f3018 	ldr	r3, [pc, #24]	; 9518 <uart_getc+0x20>
    94fc:	e5933054 	ldr	r3, [r3, #84]	; 0x54
    9500:	e3130001 	tst	r3, #1
    9504:	0afffffb 	beq	94f8 <uart_getc>
    9508:	e59f3008 	ldr	r3, [pc, #8]	; 9518 <uart_getc+0x20>
    950c:	e5930040 	ldr	r0, [r3, #64]	; 0x40
    9510:	e6ef0070 	uxtb	r0, r0
    9514:	e12fff1e 	bx	lr
    9518:	20215000 	eorcs	r5, r1, r0

0000951c <uart_putc>:
    951c:	e59f3014 	ldr	r3, [pc, #20]	; 9538 <uart_putc+0x1c>
    9520:	e5933054 	ldr	r3, [r3, #84]	; 0x54
    9524:	e3130020 	tst	r3, #32
    9528:	0afffffb 	beq	951c <uart_putc>
    952c:	e59f3004 	ldr	r3, [pc, #4]	; 9538 <uart_putc+0x1c>
    9530:	e5830040 	str	r0, [r3, #64]	; 0x40
    9534:	e12fff1e 	bx	lr
    9538:	20215000 	eorcs	r5, r1, r0

0000953c <pwm_compute>:
    953c:	e92d47f0 	push	{r4, r5, r6, r7, r8, r9, sl, lr}
    9540:	e1510002 	cmp	r1, r2
    9544:	9a000005 	bls	9560 <pwm_compute+0x24>
    9548:	e59f00cc 	ldr	r0, [pc, #204]	; 961c <pwm_compute+0xe0>
    954c:	e59f10cc 	ldr	r1, [pc, #204]	; 9620 <pwm_compute+0xe4>
    9550:	e59f20cc 	ldr	r2, [pc, #204]	; 9624 <pwm_compute+0xe8>
    9554:	e3a03028 	mov	r3, #40	; 0x28
    9558:	ebfffc2c 	bl	8610 <printk>
    955c:	ebfffd9b 	bl	8bd0 <rpi_reboot>
    9560:	e1a07001 	mov	r7, r1
    9564:	e061c002 	rsb	ip, r1, r2
    9568:	e151000c 	cmp	r1, ip
    956c:	d26c3000 	rsble	r3, ip, #0
    9570:	d0833fa3 	addle	r3, r3, r3, lsr #31
    9574:	c0813fa1 	addgt	r3, r1, r1, lsr #31
    9578:	e1a030c3 	asr	r3, r3, #1
    957c:	e081100c 	add	r1, r1, ip
    9580:	e1520001 	cmp	r2, r1
    9584:	1a000006 	bne	95a4 <pwm_compute+0x68>
    9588:	e3a04000 	mov	r4, #0
    958c:	e1a05004 	mov	r5, r4
    9590:	e1a01004 	mov	r1, r4
    9594:	e2678000 	rsb	r8, r7, #0
    9598:	e3a0a001 	mov	sl, #1
    959c:	e1a09004 	mov	r9, r4
    95a0:	ea000005 	b	95bc <pwm_compute+0x80>
    95a4:	e59f007c 	ldr	r0, [pc, #124]	; 9628 <pwm_compute+0xec>
    95a8:	e59f1070 	ldr	r1, [pc, #112]	; 9620 <pwm_compute+0xe4>
    95ac:	e59f2078 	ldr	r2, [pc, #120]	; 962c <pwm_compute+0xf0>
    95b0:	e3a0301c 	mov	r3, #28
    95b4:	ebfffc15 	bl	8610 <printk>
    95b8:	ebfffd84 	bl	8bd0 <rpi_reboot>
    95bc:	e15c0004 	cmp	ip, r4
    95c0:	01570005 	cmpeq	r7, r5
    95c4:	0a00000c 	beq	95fc <pwm_compute+0xc0>
    95c8:	e1580003 	cmp	r8, r3
    95cc:	b06c6003 	rsblt	r6, ip, r3
    95d0:	b2855001 	addlt	r5, r5, #1
    95d4:	b780a101 	strlt	sl, [r0, r1, lsl #2]
    95d8:	b2811001 	addlt	r1, r1, #1
    95dc:	a1a06003 	movge	r6, r3
    95e0:	e15c0003 	cmp	ip, r3
    95e4:	d1a03006 	movle	r3, r6
    95e8:	c0873006 	addgt	r3, r7, r6
    95ec:	c2844001 	addgt	r4, r4, #1
    95f0:	c7809101 	strgt	r9, [r0, r1, lsl #2]
    95f4:	c2811001 	addgt	r1, r1, #1
    95f8:	eaffffef 	b	95bc <pwm_compute+0x80>
    95fc:	e1520001 	cmp	r2, r1
    9600:	08bd87f0 	popeq	{r4, r5, r6, r7, r8, r9, sl, pc}
    9604:	e59f0024 	ldr	r0, [pc, #36]	; 9630 <pwm_compute+0xf4>
    9608:	e59f1010 	ldr	r1, [pc, #16]	; 9620 <pwm_compute+0xe4>
    960c:	e59f2018 	ldr	r2, [pc, #24]	; 962c <pwm_compute+0xf0>
    9610:	e3a03024 	mov	r3, #36	; 0x24
    9614:	ebfffbfd 	bl	8610 <printk>
    9618:	ebfffd6c 	bl	8bd0 <rpi_reboot>
    961c:	000099f8 	strdeq	r9, [r0], -r8
    9620:	00009a10 	andeq	r9, r0, r0, lsl sl
    9624:	000099d4 	ldrdeq	r9, [r0], -r4
    9628:	00009a20 	andeq	r9, r0, r0, lsr #20
    962c:	000099e0 	andeq	r9, r0, r0, ror #19
    9630:	00009a3c 	andeq	r9, r0, ip, lsr sl

00009634 <pwm_print>:
    9634:	e92d40f8 	push	{r3, r4, r5, r6, r7, lr}
    9638:	e1a05000 	mov	r5, r0
    963c:	e1a04001 	mov	r4, r1
    9640:	e1a07002 	mov	r7, r2
    9644:	e1510002 	cmp	r1, r2
    9648:	9a000005 	bls	9664 <pwm_print+0x30>
    964c:	e59f0068 	ldr	r0, [pc, #104]	; 96bc <pwm_print+0x88>
    9650:	e59f1068 	ldr	r1, [pc, #104]	; 96c0 <pwm_print+0x8c>
    9654:	e59f2068 	ldr	r2, [pc, #104]	; 96c4 <pwm_print+0x90>
    9658:	e3a0302f 	mov	r3, #47	; 0x2f
    965c:	ebfffbeb 	bl	8610 <printk>
    9660:	ebfffd5a 	bl	8bd0 <rpi_reboot>
    9664:	e0616002 	rsb	r6, r1, r2
    9668:	e59f0058 	ldr	r0, [pc, #88]	; 96c8 <pwm_print+0x94>
    966c:	ebfffbe7 	bl	8610 <printk>
    9670:	e59f0054 	ldr	r0, [pc, #84]	; 96cc <pwm_print+0x98>
    9674:	e1a01007 	mov	r1, r7
    9678:	e1a02004 	mov	r2, r4
    967c:	e1a03006 	mov	r3, r6
    9680:	ebfffbe2 	bl	8610 <printk>
    9684:	e3570000 	cmp	r7, #0
    9688:	08bd80f8 	popeq	{r3, r4, r5, r6, r7, pc}
    968c:	e3a03000 	mov	r3, #0
    9690:	e1a04003 	mov	r4, r3
    9694:	e59f6034 	ldr	r6, [pc, #52]	; 96d0 <pwm_print+0x9c>
    9698:	e1a00006 	mov	r0, r6
    969c:	e1a01004 	mov	r1, r4
    96a0:	e7952103 	ldr	r2, [r5, r3, lsl #2]
    96a4:	ebfffbd9 	bl	8610 <printk>
    96a8:	e2844001 	add	r4, r4, #1
    96ac:	e1a03004 	mov	r3, r4
    96b0:	e1540007 	cmp	r4, r7
    96b4:	1afffff7 	bne	9698 <pwm_print+0x64>
    96b8:	e8bd80f8 	pop	{r3, r4, r5, r6, r7, pc}
    96bc:	000099f8 	strdeq	r9, [r0], -r8
    96c0:	00009a10 	andeq	r9, r0, r0, lsl sl
    96c4:	000099ec 	andeq	r9, r0, ip, ror #19
    96c8:	00009a58 	andeq	r9, r0, r8, asr sl
    96cc:	00009a8c 	andeq	r9, r0, ip, lsl #21
    96d0:	00009aa4 	andeq	r9, r0, r4, lsr #21

000096d4 <enable_cache>:
    96d4:	ee113f10 	mrc	15, 0, r3, cr1, cr0, {0}
    96d8:	e3833b06 	orr	r3, r3, #6144	; 0x1800
    96dc:	ee013f10 	mcr	15, 0, r3, cr1, cr0, {0}
    96e0:	e12fff1e 	bx	lr

000096e4 <disable_cache>:
    96e4:	ee113f10 	mrc	15, 0, r3, cr1, cr0, {0}
    96e8:	e3c33b06 	bic	r3, r3, #6144	; 0x1800
    96ec:	ee013f10 	mcr	15, 0, r3, cr1, cr0, {0}
    96f0:	e12fff1e 	bx	lr

Disassembly of section .data:

000096f4 <rpiIRQController>:
    96f4:	2000b200 	andcs	fp, r0, r0, lsl #4

000096f8 <rpiArmTimer>:
    96f8:	2000b400 	andcs	fp, r0, r0, lsl #8

Disassembly of section .rodata:

000096fc <led>:
    96fc:	00000015 	andeq	r0, r0, r5, lsl r0

00009700 <echo>:
    9700:	00000010 	andeq	r0, r0, r0, lsl r0

00009704 <trigger>:
    9704:	0000000c 	andeq	r0, r0, ip
    9708:	74736944 	ldrbtvc	r6, [r3], #-2372	; 0x944
    970c:	65636e61 	strbvs	r6, [r3, #-3681]!	; 0xe61
    9710:	0a642520 	beq	1912b98 <__bss_end__+0x1908b50>
    9714:	00000000 	andeq	r0, r0, r0

00009718 <__FUNCTION__.3819>:
    9718:	74736166 	ldrbtvc	r6, [r3], #-358	; 0x166
    971c:	746e695f 	strbtvc	r6, [lr], #-2399	; 0x95f
    9720:	75727265 	ldrbvc	r7, [r2, #-613]!	; 0x265
    9724:	765f7470 			; <UNDEFINED> instruction: 0x765f7470
    9728:	6f746365 	svcvs	0x00746365
    972c:	00000072 	andeq	r0, r0, r2, ror r0

00009730 <__FUNCTION__.3823>:
    9730:	74666f73 	strbtvc	r6, [r6], #-3955	; 0xf73
    9734:	65726177 	ldrbvs	r6, [r2, #-375]!	; 0x177
    9738:	746e695f 	strbtvc	r6, [lr], #-2399	; 0x95f
    973c:	75727265 	ldrbvc	r7, [r2, #-613]!	; 0x265
    9740:	765f7470 			; <UNDEFINED> instruction: 0x765f7470
    9744:	6f746365 	svcvs	0x00746365
    9748:	00000072 	andeq	r0, r0, r2, ror r0

0000974c <__FUNCTION__.3827>:
    974c:	65736572 	ldrbvs	r6, [r3, #-1394]!	; 0x572
    9750:	65765f74 	ldrbvs	r5, [r6, #-3956]!	; 0xf74
    9754:	726f7463 	rsbvc	r7, pc, #1660944384	; 0x63000000
    9758:	00000000 	andeq	r0, r0, r0

0000975c <__FUNCTION__.3831>:
    975c:	65646e75 	strbvs	r6, [r4, #-3701]!	; 0xe75
    9760:	656e6966 	strbvs	r6, [lr, #-2406]!	; 0x966
    9764:	6e695f64 	cdpvs	15, 6, cr5, cr9, cr4, {3}
    9768:	75727473 	ldrbvc	r7, [r2, #-1139]!	; 0x473
    976c:	6f697463 	svcvs	0x00697463
    9770:	65765f6e 	ldrbvs	r5, [r6, #-3950]!	; 0xf6e
    9774:	726f7463 	rsbvc	r7, pc, #1660944384	; 0x63000000
    9778:	00000000 	andeq	r0, r0, r0

0000977c <__FUNCTION__.3835>:
    977c:	66657270 			; <UNDEFINED> instruction: 0x66657270
    9780:	68637465 	stmdavs	r3!, {r0, r2, r5, r6, sl, ip, sp, lr}^
    9784:	6f62615f 	svcvs	0x0062615f
    9788:	765f7472 			; <UNDEFINED> instruction: 0x765f7472
    978c:	6f746365 	svcvs	0x00746365
    9790:	00000072 	andeq	r0, r0, r2, ror r0

00009794 <__FUNCTION__.3839>:
    9794:	61746164 	cmnvs	r4, r4, ror #2
    9798:	6f62615f 	svcvs	0x0062615f
    979c:	765f7472 			; <UNDEFINED> instruction: 0x765f7472
    97a0:	6f746365 	svcvs	0x00746365
    97a4:	00000072 	andeq	r0, r0, r2, ror r0
    97a8:	494e4150 	stmdbmi	lr, {r4, r6, r8, lr}^
    97ac:	73253a43 	teqvc	r5, #274432	; 0x43000
    97b0:	3a73253a 	bcc	1cd2ca0 <__bss_end__+0x1cc8c58>
    97b4:	453a6425 	ldrmi	r6, [sl, #-1061]!	; 0x425
    97b8:	524f5252 	subpl	r5, pc, #536870917	; 0x20000005
    97bc:	6e75203a 	mrcvs	0, 3, r2, cr5, cr10, {1}
    97c0:	646e6168 	strbtvs	r6, [lr], #-360	; 0x168
    97c4:	2064656c 	rsbcs	r6, r4, ip, ror #10
    97c8:	65637865 	strbvs	r7, [r3, #-2149]!	; 0x865
    97cc:	6f697470 	svcvs	0x00697470
    97d0:	253c206e 	ldrcs	r2, [ip, #-110]!	; 0x6e
    97d4:	61203e73 	teqvs	r0, r3, ror lr
    97d8:	43502074 	cmpmi	r0, #116	; 0x74
    97dc:	0a78253d 	beq	1e12cd8 <__bss_end__+0x1e08c90>
    97e0:	0000000a 	andeq	r0, r0, sl
    97e4:	2e2f2e2e 	cdpcs	14, 2, cr2, cr15, cr14, {1}
    97e8:	616c2f2e 	cmnvs	ip, lr, lsr #30
    97ec:	692d3762 	pushvs	{r1, r5, r6, r8, r9, sl, ip, sp}
    97f0:	7265746e 	rsbvc	r7, r5, #1845493760	; 0x6e000000
    97f4:	74707572 	ldrbtvc	r7, [r0], #-1394	; 0x572
    97f8:	69742f73 	ldmdbvs	r4!, {r0, r1, r4, r5, r6, r8, r9, sl, fp, sp}^
    97fc:	2d72656d 	cfldr64cs	mvdx6, [r2, #-436]!	; 0xfffffe4c
    9800:	2f746e69 	svccs	0x00746e69
    9804:	746e692f 	strbtvc	r6, [lr], #-2351	; 0x92f
    9808:	75727265 	ldrbvc	r7, [r2, #-613]!	; 0x265
    980c:	2d737470 	cfldrdcs	mvd7, [r3, #-448]!	; 0xfffffe40
    9810:	00632e63 	rsbeq	r2, r3, r3, ror #28
    9814:	74736166 	ldrbtvc	r6, [r3], #-358	; 0x166
    9818:	00000000 	andeq	r0, r0, r0
    981c:	74666f73 	strbtvc	r6, [r6], #-3955	; 0xf73
    9820:	746e6920 	strbtvc	r6, [lr], #-2336	; 0x920
    9824:	75727265 	ldrbvc	r7, [r2, #-613]!	; 0x265
    9828:	00007470 	andeq	r7, r0, r0, ror r4
    982c:	65736572 	ldrbvs	r6, [r3, #-1394]!	; 0x572
    9830:	65762074 	ldrbvs	r2, [r6, #-116]!	; 0x74
    9834:	726f7463 	rsbvc	r7, pc, #1660944384	; 0x63000000
    9838:	00000000 	andeq	r0, r0, r0
    983c:	65646e75 	strbvs	r6, [r4, #-3701]!	; 0xe75
    9840:	656e6966 	strbvs	r6, [lr, #-2406]!	; 0x966
    9844:	6e692064 	cdpvs	0, 6, cr2, cr9, cr4, {3}
    9848:	75727473 	ldrbvc	r7, [r2, #-1139]!	; 0x473
    984c:	6f697463 	svcvs	0x00697463
    9850:	0000006e 	andeq	r0, r0, lr, rrx
    9854:	66657270 			; <UNDEFINED> instruction: 0x66657270
    9858:	68637465 	stmdavs	r3!, {r0, r2, r5, r6, sl, ip, sp, lr}^
    985c:	6f626120 	svcvs	0x00626120
    9860:	00007472 	andeq	r7, r0, r2, ror r4
    9864:	61746164 	cmnvs	r4, r4, ror #2
    9868:	6f626120 	svcvs	0x00626120
    986c:	00007472 	andeq	r7, r0, r2, ror r4

00009870 <__FUNCTION__.3833>:
    9870:	74696d65 	strbtvc	r6, [r9], #-3429	; 0xd65
    9874:	00000000 	andeq	r0, r0, r0

00009878 <__FUNCTION__.3848>:
    9878:	705f6176 	subsvc	r6, pc, r6, ror r1	; <UNPREDICTABLE>
    987c:	746e6972 	strbtvc	r6, [lr], #-2418	; 0x972
    9880:	0000006b 	andeq	r0, r0, fp, rrx
    9884:	494e4150 	stmdbmi	lr, {r4, r6, r8, lr}^
    9888:	73253a43 	teqvc	r5, #274432	; 0x43000
    988c:	3a73253a 	bcc	1cd2d7c <__bss_end__+0x1cc8d34>
    9890:	303a6425 	eorscc	r6, sl, r5, lsr #8
    9894:	0000000a 	andeq	r0, r0, sl
    9898:	34317363 	ldrtcc	r7, [r1], #-867	; 0x363
    989c:	702d6530 	eorvc	r6, sp, r0, lsr r5
    98a0:	746e6972 	strbtvc	r6, [lr], #-2418	; 0x972
    98a4:	00632e66 	rsbeq	r2, r3, r6, ror #28
    98a8:	33323130 	teqcc	r2, #48, 2
    98ac:	37363534 			; <UNDEFINED> instruction: 0x37363534
    98b0:	00003938 	andeq	r3, r0, r8, lsr r9
    98b4:	33323130 	teqcc	r2, #48, 2
    98b8:	37363534 			; <UNDEFINED> instruction: 0x37363534
    98bc:	62613938 	rsbvs	r3, r1, #56, 18	; 0xe0000
    98c0:	66656463 	strbtvs	r6, [r5], -r3, ror #8
    98c4:	00000000 	andeq	r0, r0, r0
    98c8:	00003130 	andeq	r3, r0, r0, lsr r1
    98cc:	494e4150 	stmdbmi	lr, {r4, r6, r8, lr}^
    98d0:	73253a43 	teqvc	r5, #274432	; 0x43000
    98d4:	3a73253a 	bcc	1cd2dc4 <__bss_end__+0x1cc8d7c>
    98d8:	773a6425 	ldrvc	r6, [sl, -r5, lsr #8]!
    98dc:	68746469 	ldmdavs	r4!, {r0, r3, r5, r6, sl, sp, lr}^
    98e0:	33203c20 	teqcc	r0, #32, 24	; 0x2000
    98e4:	00000a32 	andeq	r0, r0, r2, lsr sl
    98e8:	494e4150 	stmdbmi	lr, {r4, r6, r8, lr}^
    98ec:	73253a43 	teqvc	r5, #274432	; 0x43000
    98f0:	3a73253a 	bcc	1cd2de0 <__bss_end__+0x1cc8d98>
    98f4:	663a6425 	ldrtvs	r6, [sl], -r5, lsr #8
    98f8:	74616f6c 	strbtvc	r6, [r1], #-3948	; 0xf6c
    98fc:	746f6e20 	strbtvc	r6, [pc], #-3616	; 9904 <__FUNCTION__.3848+0x8c>
    9900:	616e6520 	cmnvs	lr, r0, lsr #10
    9904:	64656c62 	strbtvs	r6, [r5], #-3170	; 0xc62
    9908:	0a212121 	beq	851d94 <__bss_end__+0x847d4c>
    990c:	00000000 	andeq	r0, r0, r0
    9910:	494e4150 	stmdbmi	lr, {r4, r6, r8, lr}^
    9914:	73253a43 	teqvc	r5, #274432	; 0x43000
    9918:	3a73253a 	bcc	1cd2e08 <__bss_end__+0x1cc8dc0>
    991c:	703a6425 	eorsvc	r6, sl, r5, lsr #8
    9920:	746e6972 	strbtvc	r6, [lr], #-2418	; 0x972
    9924:	6e203a6b 	vnmulvs.f32	s6, s0, s23
    9928:	6820746f 	stmdavs	r0!, {r0, r1, r2, r3, r5, r6, sl, ip, sp, lr}
    992c:	6c646e61 	stclvs	14, cr6, [r4], #-388	; 0xfffffe7c
    9930:	20676e69 	rsbcs	r6, r7, r9, ror #28
    9934:	63657073 	cmnvs	r5, #115	; 0x73
    9938:	65696669 	strbvs	r6, [r9, #-1641]!	; 0x669
    993c:	25272072 	strcs	r2, [r7, #-114]!	; 0x72
    9940:	0a0a2763 	beq	2936d4 <__bss_end__+0x28968c>
    9944:	00000000 	andeq	r0, r0, r0
    9948:	4e41503c 	mcrmi	0, 2, r5, cr1, cr12, {1}
    994c:	3a3e4349 	bcc	f9a678 <__bss_end__+0xf90630>
    9950:	00000000 	andeq	r0, r0, r0
    9954:	253a7325 	ldrcs	r7, [sl, #-805]!	; 0x325
    9958:	50203a64 	eorpl	r3, r0, r4, ror #20
    995c:	43494e41 	movtmi	r4, #40513	; 0x9e41
    9960:	4e415020 	cdpmi	0, 4, cr5, cr1, cr0, {1}
    9964:	50204349 	eorpl	r4, r0, r9, asr #6
    9968:	43494e41 	movtmi	r4, #40513	; 0x9e41
    996c:	7325203a 	teqvc	r5, #58	; 0x3a
    9970:	0000000a 	andeq	r0, r0, sl

00009974 <__FUNCTION__.3784>:
    9974:	5f697072 	svcpl	0x00697072
    9978:	6f626572 	svcvs	0x00626572
    997c:	0000746f 	andeq	r7, r0, pc, ror #8
    9980:	494e4150 	stmdbmi	lr, {r4, r6, r8, lr}^
    9984:	73253a43 	teqvc	r5, #274432	; 0x43000
    9988:	3a73253a 	bcc	1cd2e78 <__bss_end__+0x1cc8e30>
    998c:	613a6425 	teqvs	sl, r5, lsr #8
    9990:	73755f74 	cmnvc	r5, #116, 30	; 0x1d0
    9994:	6c5f7265 	lfmvs	f7, 2, [pc], {101}	; 0x65
    9998:	6c657665 	stclvs	6, cr7, [r5], #-404	; 0xfffffe6c
    999c:	000a2928 	andeq	r2, sl, r8, lsr #18
    99a0:	34317363 	ldrtcc	r7, [r1], #-867	; 0x363
    99a4:	722d6530 	eorvc	r6, sp, #48, 10	; 0xc000000
    99a8:	6f6f6265 	svcvs	0x006f6265
    99ac:	00632e74 	rsbeq	r2, r3, r4, ror lr
    99b0:	454e4f44 	strbmi	r4, [lr, #-3908]	; 0xf44
    99b4:	0a212121 	beq	851e40 <__bss_end__+0x847df8>
    99b8:	00000000 	andeq	r0, r0, r0
    99bc:	2020004c 	eorcs	r0, r0, ip, asr #32
    99c0:	20200058 	eorcs	r0, r0, r8, asr r0
    99c4:	20200064 	eorcs	r0, r0, r4, rrx
    99c8:	20200070 	eorcs	r0, r0, r0, ror r0
    99cc:	2020007c 	eorcs	r0, r0, ip, ror r0
    99d0:	20200088 	eorcs	r0, r0, r8, lsl #1

000099d4 <__FUNCTION__.3801>:
    99d4:	5f6d7770 	svcpl	0x006d7770
    99d8:	706d6f63 	rsbvc	r6, sp, r3, ror #30
    99dc:	00657475 	rsbeq	r7, r5, r5, ror r4

000099e0 <__FUNCTION__.3793>:
    99e0:	5f746e69 	svcpl	0x00746e69
    99e4:	656e696c 	strbvs	r6, [lr, #-2412]!	; 0x96c
    99e8:	00000000 	andeq	r0, r0, r0

000099ec <__FUNCTION__.3808>:
    99ec:	5f6d7770 	svcpl	0x006d7770
    99f0:	6e697270 	mcrvs	2, 3, r7, cr9, cr0, {3}
    99f4:	00000074 	andeq	r0, r0, r4, ror r0
    99f8:	494e4150 	stmdbmi	lr, {r4, r6, r8, lr}^
    99fc:	73253a43 	teqvc	r5, #274432	; 0x43000
    9a00:	3a73253a 	bcc	1cd2ef0 <__bss_end__+0x1cc8ea8>
    9a04:	6f3a6425 	svcvs	0x003a6425
    9a08:	6e3d3c6e 	cdpvs	12, 3, cr3, cr13, cr14, {3}
    9a0c:	0000000a 	andeq	r0, r0, sl
    9a10:	34317363 	ldrtcc	r7, [r1], #-867	; 0x363
    9a14:	702d6530 	eorvc	r6, sp, r0, lsr r5
    9a18:	632e6d77 	teqvs	lr, #7616	; 0x1dc0
    9a1c:	00000000 	andeq	r0, r0, r0
    9a20:	494e4150 	stmdbmi	lr, {r4, r6, r8, lr}^
    9a24:	73253a43 	teqvc	r5, #274432	; 0x43000
    9a28:	3a73253a 	bcc	1cd2f18 <__bss_end__+0x1cc8ed0>
    9a2c:	6e3a6425 	cdpvs	4, 3, cr6, cr10, cr5, {1}
    9a30:	31783d3d 	cmncc	r8, sp, lsr sp
    9a34:	0a31792b 	beq	c67ee8 <__bss_end__+0xc5dea0>
    9a38:	00000000 	andeq	r0, r0, r0
    9a3c:	494e4150 	stmdbmi	lr, {r4, r6, r8, lr}^
    9a40:	73253a43 	teqvc	r5, #274432	; 0x43000
    9a44:	3a73253a 	bcc	1cd2f34 <__bss_end__+0x1cc8eec>
    9a48:	703a6425 	eorsvc	r6, sl, r5, lsr #8
    9a4c:	3d20736f 	stccc	3, cr7, [r0, #-444]!	; 0xfffffe44
    9a50:	0a6e203d 	beq	1b91b4c <__bss_end__+0x1b87b04>
    9a54:	00000000 	andeq	r0, r0, r0
    9a58:	2d2d2d2d 	stccs	13, cr2, [sp, #-180]!	; 0xffffff4c
    9a5c:	2d2d2d2d 	stccs	13, cr2, [sp, #-180]!	; 0xffffff4c
    9a60:	2d2d2d2d 	stccs	13, cr2, [sp, #-180]!	; 0xffffff4c
    9a64:	2d2d2d2d 	stccs	13, cr2, [sp, #-180]!	; 0xffffff4c
    9a68:	2d2d2d2d 	stccs	13, cr2, [sp, #-180]!	; 0xffffff4c
    9a6c:	2d2d2d2d 	stccs	13, cr2, [sp, #-180]!	; 0xffffff4c
    9a70:	2d2d2d2d 	stccs	13, cr2, [sp, #-180]!	; 0xffffff4c
    9a74:	2d2d2d2d 	stccs	13, cr2, [sp, #-180]!	; 0xffffff4c
    9a78:	2d2d2d2d 	stccs	13, cr2, [sp, #-180]!	; 0xffffff4c
    9a7c:	2d2d2d2d 	stccs	13, cr2, [sp, #-180]!	; 0xffffff4c
    9a80:	2d2d2d2d 	stccs	13, cr2, [sp, #-180]!	; 0xffffff4c
    9a84:	2d2d2d2d 	stccs	13, cr2, [sp, #-180]!	; 0xffffff4c
    9a88:	0000000a 	andeq	r0, r0, sl
    9a8c:	64253d6e 	strtvs	r3, [r5], #-3438	; 0xd6e
    9a90:	6e6f202c 	cdpvs	0, 6, cr2, cr15, cr12, {1}
    9a94:	2c64253d 	cfstr64cs	mvdx2, [r4], #-244	; 0xffffff0c
    9a98:	66666f20 	strbtvs	r6, [r6], -r0, lsr #30
    9a9c:	0a64253d 	beq	1912f98 <__bss_end__+0x1908f50>
    9aa0:	00000000 	andeq	r0, r0, r0
    9aa4:	6d777009 	ldclvs	0, cr7, [r7, #-36]!	; 0xffffffdc
    9aa8:	5d64255b 	cfstr64pl	mvdx2, [r4, #-364]!	; 0xfffffe94
    9aac:	0a64253d 	beq	1912fa8 <__bss_end__+0x1908f60>
    9ab0:	00000000 	andeq	r0, r0, r0

Disassembly of section .bss:

00009ab4 <__bss_start__>:
    9ab4:	00000000 	andeq	r0, r0, r0

00009ab8 <buf.3875>:
	...

00009eb8 <pwm_choices>:
	...

Disassembly of section .comment:

00000000 <.comment>:
   0:	3a434347 	bcc	10d0d24 <__bss_end__+0x10c6cdc>
   4:	4e472820 	cdpmi	8, 4, cr2, cr7, cr0, {1}
   8:	34202955 	strtcc	r2, [r0], #-2389	; 0x955
   c:	332e382e 	teqcc	lr, #3014656	; 0x2e0000
  10:	43434700 	movtmi	r4, #14080	; 0x3700
  14:	4728203a 			; <UNDEFINED> instruction: 0x4728203a
  18:	5420554e 	strtpl	r5, [r0], #-1358	; 0x54e
  1c:	736c6f6f 	cmnvc	ip, #444	; 0x1bc
  20:	726f6620 	rsbvc	r6, pc, #32, 12	; 0x2000000
  24:	6d724120 	ldfvse	f4, [r2, #-128]!	; 0xffffff80
  28:	626d4520 	rsbvs	r4, sp, #32, 10	; 0x8000000
  2c:	65646465 	strbvs	r6, [r4, #-1125]!	; 0x465
  30:	72502064 	subsvc	r2, r0, #100	; 0x64
  34:	7365636f 	cmnvc	r5, #-1140850687	; 0xbc000001
  38:	73726f73 	cmnvc	r2, #460	; 0x1cc
  3c:	322d3720 	eorcc	r3, sp, #32, 14	; 0x800000
  40:	2d373130 	ldfcss	f3, [r7, #-192]!	; 0xffffff40
  44:	6d2d3471 	cfstrsvs	mvf3, [sp, #-452]!	; 0xfffffe3c
  48:	726f6a61 	rsbvc	r6, pc, #397312	; 0x61000
  4c:	2e372029 	cdpcs	0, 3, cr2, cr7, cr9, {1}
  50:	20312e32 	eorscs	r2, r1, r2, lsr lr
  54:	37313032 			; <UNDEFINED> instruction: 0x37313032
  58:	34303930 	ldrtcc	r3, [r0], #-2352	; 0x930
  5c:	65722820 	ldrbvs	r2, [r2, #-2080]!	; 0x820
  60:	7361656c 	cmnvc	r1, #108, 10	; 0x1b000000
  64:	5b202965 	blpl	80a600 <__bss_end__+0x8005b8>
  68:	2f4d5241 	svccs	0x004d5241
  6c:	65626d65 	strbvs	r6, [r2, #-3429]!	; 0xd65
  70:	64656464 	strbtvs	r6, [r5], #-1124	; 0x464
  74:	622d372d 	eorvs	r3, sp, #11796480	; 0xb40000
  78:	636e6172 	cmnvs	lr, #-2147483620	; 0x8000001c
  7c:	65722068 	ldrbvs	r2, [r2, #-104]!	; 0x68
  80:	69736976 	ldmdbvs	r3!, {r1, r2, r4, r5, r6, r8, fp, sp, lr}^
  84:	32206e6f 	eorcc	r6, r0, #1776	; 0x6f0
  88:	30323535 	eorscc	r3, r2, r5, lsr r5
  8c:	47005d34 	smladxmi	r0, r4, sp, r5
  90:	203a4343 	eorscs	r4, sl, r3, asr #6
  94:	554e4728 	strbpl	r4, [lr, #-1832]	; 0x728
  98:	6f6f5420 	svcvs	0x006f5420
  9c:	6620736c 	strtvs	r7, [r0], -ip, ror #6
  a0:	4120726f 	teqmi	r0, pc, ror #4
  a4:	45206d72 	strmi	r6, [r0, #-3442]!	; 0xd72
  a8:	6465626d 	strbtvs	r6, [r5], #-621	; 0x26d
  ac:	20646564 	rsbcs	r6, r4, r4, ror #10
  b0:	636f7250 	cmnvs	pc, #80, 4
  b4:	6f737365 	svcvs	0x00737365
  b8:	37207372 			; <UNDEFINED> instruction: 0x37207372
  bc:	3130322d 	teqcc	r0, sp, lsr #4
  c0:	33712d38 	cmncc	r1, #56, 26	; 0xe00
  c4:	6470752d 	ldrbtvs	r7, [r0], #-1325	; 0x52d
  c8:	29657461 	stmdbcs	r5!, {r0, r5, r6, sl, ip, sp, lr}^
  cc:	332e3720 	teqcc	lr, #32, 14	; 0x800000
  d0:	3220312e 	eorcc	r3, r0, #-2147483637	; 0x8000000b
  d4:	30383130 	eorscc	r3, r8, r0, lsr r1
  d8:	20323236 	eorscs	r3, r2, r6, lsr r2
  dc:	6c657228 	sfmvs	f7, 2, [r5], #-160	; 0xffffff60
  e0:	65736165 	ldrbvs	r6, [r3, #-357]!	; 0x165
  e4:	415b2029 	cmpmi	fp, r9, lsr #32
  e8:	652f4d52 	strvs	r4, [pc, #-3410]!	; fffff39e <__bss_end__+0xffff5356>
  ec:	6465626d 	strbtvs	r6, [r5], #-621	; 0x26d
  f0:	2d646564 	cfstr64cs	mvdx6, [r4, #-400]!	; 0xfffffe70
  f4:	72622d37 	rsbvc	r2, r2, #3520	; 0xdc0
  f8:	68636e61 	stmdavs	r3!, {r0, r5, r6, r9, sl, fp, sp, lr}^
  fc:	76657220 	strbtvc	r7, [r5], -r0, lsr #4
 100:	6f697369 	svcvs	0x00697369
 104:	3632206e 	ldrtcc	r2, [r2], -lr, rrx
 108:	37303931 			; <UNDEFINED> instruction: 0x37303931
 10c:	Address 0x000000000000010c is out of bounds.


Disassembly of section .ARM.attributes:

00000000 <.ARM.attributes>:
   0:	00002c41 	andeq	r2, r0, r1, asr #24
   4:	61656100 	cmnvs	r5, r0, lsl #2
   8:	01006962 	tsteq	r0, r2, ror #18
   c:	00000022 	andeq	r0, r0, r2, lsr #32
  10:	4b5a3605 	blmi	168d82c <__bss_end__+0x16837e4>
  14:	08070600 	stmdaeq	r7, {r9, sl}
  18:	12010901 	andne	r0, r1, #16384	; 0x4000
  1c:	15011404 	strne	r1, [r1, #-1028]	; 0x404
  20:	18031701 	stmdane	r3, {r0, r8, r9, sl, ip}
  24:	1e011a01 	vmlane.f32	s2, s2, s2
  28:	44012201 	strmi	r2, [r1], #-513	; 0x201
  2c:	Address 0x000000000000002c is out of bounds.


Disassembly of section .debug_info:

00000000 <.debug_info>:
   0:	00000530 	andeq	r0, r0, r0, lsr r5
   4:	00000004 	andeq	r0, r0, r4
   8:	01040000 	mrseq	r0, (UNDEF: 4)
   c:	000000fe 	strdeq	r0, [r0], -lr
  10:	0004360c 	andeq	r3, r4, ip, lsl #12
  14:	14002e00 	strne	r2, [r0], #-3584	; 0xe00
  18:	6000008d 	andvs	r0, r0, sp, lsl #1
  1c:	00000002 	andeq	r0, r0, r2
  20:	02000000 	andeq	r0, r0, #0
  24:	01810107 	orreq	r0, r1, r7, lsl #2
  28:	18020000 	stmdane	r2, {}	; <UNPREDICTABLE>
  2c:	00000181 	andeq	r0, r0, r1, lsl #3
  30:	00030003 	andeq	r0, r3, r3
  34:	91030000 	mrsls	r0, (UNDEF: 3)
  38:	00000003 	andeq	r0, r0, r3
  3c:	00039b03 	andeq	r9, r3, r3, lsl #22
  40:	a5030100 	strge	r0, [r3, #-256]	; 0x100
  44:	02000003 	andeq	r0, r0, #3
  48:	0003af03 	andeq	sl, r3, r3, lsl #30
  4c:	b9030300 	stmdblt	r3, {r8, r9}
  50:	04000003 	streq	r0, [r0], #-3
  54:	0003c303 	andeq	ip, r3, r3, lsl #6
  58:	cd030500 	cfstr32gt	mvfx0, [r3, #-0]
  5c:	06000003 	streq	r0, [r0], -r3
  60:	0003d703 	andeq	sp, r3, r3, lsl #14
  64:	e1030700 	tst	r3, r0, lsl #14
  68:	08000003 	stmdaeq	r0, {r0, r1}
  6c:	0003eb03 	andeq	lr, r3, r3, lsl #22
  70:	3d030900 	stccc	9, cr0, [r3, #-0]
  74:	0a000002 	beq	84 <_start-0x7f7c>
  78:	00024803 	andeq	r4, r2, r3, lsl #16
  7c:	53030b00 	movwpl	r0, #15104	; 0x3b00
  80:	0c000002 	stceq	0, cr0, [r0], {2}
  84:	00025e03 	andeq	r5, r2, r3, lsl #28
  88:	69030d00 	stmdbvs	r3, {r8, sl, fp}
  8c:	0e000002 	cdpeq	0, 0, cr0, cr0, cr2, {0}
  90:	00027403 	andeq	r7, r2, r3, lsl #8
  94:	7f030f00 	svcvc	0x00030f00
  98:	10000002 	andne	r0, r0, r2
  9c:	00028a03 	andeq	r8, r2, r3, lsl #20
  a0:	95031100 	strls	r1, [r3, #-256]	; 0x100
  a4:	12000002 	andne	r0, r0, #2
  a8:	0002a003 	andeq	sl, r2, r3
  ac:	ff031300 			; <UNDEFINED> instruction: 0xff031300
  b0:	14000003 	strne	r0, [r0], #-3
  b4:	00040a03 	andeq	r0, r4, r3, lsl #20
  b8:	15031500 	strne	r1, [r3, #-1280]	; 0x500
  bc:	16000004 	strne	r0, [r0], -r4
  c0:	00042003 	andeq	r2, r4, r3
  c4:	2b031700 	blcs	c5ccc <__bss_end__+0xbbc84>
  c8:	18000004 	stmdane	r0, {r2}
  cc:	0002ba03 	andeq	fp, r2, r3, lsl #20
  d0:	3d031900 	stccc	9, cr1, [r3, #-0]
  d4:	1a000004 	bne	ec <_start-0x7f14>
  d8:	00044803 	andeq	r4, r4, r3, lsl #16
  dc:	53031b00 	movwpl	r1, #15104	; 0x3b00
  e0:	1c000004 	stcne	0, cr0, [r0], {4}
  e4:	00045e03 	andeq	r5, r4, r3, lsl #28
  e8:	3f031d00 	svccc	0x00031d00
  ec:	1e000000 	cdpne	0, 0, cr0, cr0, cr0, {0}
  f0:	00004a03 	andeq	r4, r0, r3, lsl #20
  f4:	55031f00 	strpl	r1, [r3, #-3840]	; 0xf00
  f8:	20000000 	andcs	r0, r0, r0
  fc:	00006003 	andeq	r6, r0, r3
 100:	6b032100 	blvs	c8508 <__bss_end__+0xbe4c0>
 104:	22000000 	andcs	r0, r0, #0
 108:	00007603 	andeq	r7, r0, r3, lsl #12
 10c:	81032300 	mrshi	r2, SP_svc
 110:	24000000 	strcs	r0, [r0], #-0
 114:	00008c03 	andeq	r8, r0, r3, lsl #24
 118:	97032500 	strls	r2, [r3, -r0, lsl #10]
 11c:	26000000 	strcs	r0, [r0], -r0
 120:	0000a203 	andeq	sl, r0, r3, lsl #4
 124:	73032700 	movwvc	r2, #14080	; 0x3700
 128:	28000001 	stmdacs	r0, {r0}
 12c:	00017e03 	andeq	r7, r1, r3, lsl #28
 130:	89032900 	stmdbhi	r3, {r8, fp, sp}
 134:	2a000001 	bcs	140 <_start-0x7ec0>
 138:	00019403 	andeq	r9, r1, r3, lsl #8
 13c:	9f032b00 	svcls	0x00032b00
 140:	2c000001 	stccs	0, cr0, [r0], {1}
 144:	0001aa03 	andeq	sl, r1, r3, lsl #20
 148:	b5032d00 	strlt	r2, [r3, #-3328]	; 0xd00
 14c:	2e000001 	cdpcs	0, 0, cr0, cr0, cr1, {0}
 150:	0001c003 	andeq	ip, r1, r3
 154:	cb032f00 	blgt	cbd5c <__bss_end__+0xc1d14>
 158:	30000001 	andcc	r0, r0, r1
 15c:	0001d603 	andeq	sp, r1, r3, lsl #12
 160:	c5033100 	strgt	r3, [r3, #-256]	; 0x100
 164:	32000002 	andcc	r0, r0, #2
 168:	0002d003 	andeq	sp, r2, r3
 16c:	db033300 	blle	ccd74 <__bss_end__+0xc2d2c>
 170:	34000002 	strcc	r0, [r0], #-2
 174:	0002e603 	andeq	lr, r2, r3, lsl #12
 178:	cb033500 	blgt	cd580 <__bss_end__+0xc3538>
 17c:	35000000 	strcc	r0, [r0, #-0]
 180:	08010400 	stmdaeq	r1, {sl}
 184:	000001e1 	andeq	r0, r0, r1, ror #3
 188:	81010702 	tsthi	r1, r2, lsl #14
 18c:	02000001 	andeq	r0, r0, #1
 190:	0001c65d 	andeq	ip, r1, sp, asr r6
 194:	01ef0300 	mvneq	r0, r0, lsl #6
 198:	03000000 	movweq	r0, #0
 19c:	0000001e 	andeq	r0, r0, lr, lsl r0
 1a0:	02f10301 	rscseq	r0, r1, #67108864	; 0x4000000
 1a4:	03040000 	movweq	r0, #16384	; 0x4000
 1a8:	00000000 	andeq	r0, r0, r0
 1ac:	030f0305 	movweq	r0, #62213	; 0xf305
 1b0:	03060000 	movweq	r0, #24576	; 0x6000
 1b4:	00000328 	andeq	r0, r0, r8, lsr #6
 1b8:	00ad0307 	adceq	r0, sp, r7, lsl #6
 1bc:	03030000 	movweq	r0, #12288	; 0x3000
 1c0:	000000bc 	strheq	r0, [r0], -ip
 1c4:	01040002 	tsteq	r4, r2
 1c8:	0001e306 	andeq	lr, r1, r6, lsl #6
 1cc:	05020400 	streq	r0, [r2, #-1024]	; 0x400
 1d0:	00000014 	andeq	r0, r0, r4, lsl r0
 1d4:	f5050404 			; <UNDEFINED> instruction: 0xf5050404
 1d8:	04000000 	streq	r0, [r0], #-0
 1dc:	00f00508 	rscseq	r0, r0, r8, lsl #10
 1e0:	02040000 	andeq	r0, r4, #0
 1e4:	00022507 	andeq	r2, r2, r7, lsl #10
 1e8:	02160500 	andseq	r0, r6, #0, 10
 1ec:	34040000 	strcc	r0, [r4], #-0
 1f0:	000001f4 	strdeq	r0, [r0], -r4
 1f4:	04070404 	streq	r0, [r7], #-1028	; 0x404
 1f8:	04000002 	streq	r0, [r0], #-2
 1fc:	01ff0708 	mvnseq	r0, r8, lsl #14
 200:	04060000 	streq	r0, [r6], #-0
 204:	746e6905 	strbtvc	r6, [lr], #-2309	; 0x905
 208:	07040400 	streq	r0, [r4, -r0, lsl #8]
 20c:	00000209 	andeq	r0, r0, r9, lsl #4
 210:	00022007 	andeq	r2, r2, r7
 214:	0703a000 	streq	sl, [r3, -r0]
 218:	0000033d 	andeq	r0, r0, sp, lsr r3
 21c:	00014d08 	andeq	r4, r1, r8, lsl #26
 220:	42080300 	andmi	r0, r8, #0, 6
 224:	00000003 	andeq	r0, r0, r3
 228:	00016908 	andeq	r6, r1, r8, lsl #18
 22c:	e9090300 	stmdb	r9, {r8, r9}
 230:	18000001 	stmdane	r0, {r0}
 234:	74657309 	strbtvc	r7, [r5], #-777	; 0x309
 238:	520a0300 	andpl	r0, sl, #0, 6
 23c:	1c000003 	stcne	0, cr0, [r0], {3}
 240:	00031e08 	andeq	r1, r3, r8, lsl #28
 244:	e90b0300 	stmdb	fp, {r8, r9}
 248:	24000001 	strcs	r0, [r0], #-1
 24c:	726c6309 	rsbvc	r6, ip, #603979776	; 0x24000000
 250:	520c0300 	andpl	r0, ip, #0, 6
 254:	28000003 	stmdacs	r0, {r0, r1}
 258:	00033708 	andeq	r3, r3, r8, lsl #14
 25c:	e90d0300 	stmdb	sp, {r8, r9}
 260:	30000001 	andcc	r0, r0, r1
 264:	76656c09 	strbtvc	r6, [r5], -r9, lsl #24
 268:	520e0300 	andpl	r0, lr, #0, 6
 26c:	34000003 	strcc	r0, [r0], #-3
 270:	00034108 	andeq	r4, r3, r8, lsl #2
 274:	e90f0300 	stmdb	pc, {r8, r9}	; <UNPREDICTABLE>
 278:	3c000001 	stccc	0, cr0, [r0], {1}
 27c:	73646509 	cmnvc	r4, #37748736	; 0x2400000
 280:	52100300 	andspl	r0, r0, #0, 6
 284:	40000003 	andmi	r0, r0, r3
 288:	00034b08 	andeq	r4, r3, r8, lsl #22
 28c:	e9110300 	ldmdb	r1, {r8, r9}
 290:	48000001 	stmdami	r0, {r0}
 294:	6e657209 	cdpvs	2, 6, cr7, cr5, cr9, {0}
 298:	52120300 	andspl	r0, r2, #0, 6
 29c:	4c000003 	stcmi	0, cr0, [r0], {3}
 2a0:	00035508 	andeq	r5, r3, r8, lsl #10
 2a4:	e9130300 	ldmdb	r3, {r8, r9}
 2a8:	54000001 	strpl	r0, [r0], #-1
 2ac:	6e656609 	cdpvs	6, 6, cr6, cr5, cr9, {0}
 2b0:	52140300 	andspl	r0, r4, #0, 6
 2b4:	58000003 	stmdapl	r0, {r0, r1}
 2b8:	00035f08 	andeq	r5, r3, r8, lsl #30
 2bc:	e9150300 	ldmdb	r5, {r8, r9}
 2c0:	60000001 	andvs	r0, r0, r1
 2c4:	6e656809 	cdpvs	8, 6, cr6, cr5, cr9, {0}
 2c8:	52160300 	andspl	r0, r6, #0, 6
 2cc:	64000003 	strvs	r0, [r0], #-3
 2d0:	00036908 	andeq	r6, r3, r8, lsl #18
 2d4:	e9170300 	ldmdb	r7, {r8, r9}
 2d8:	6c000001 	stcvs	0, cr0, [r0], {1}
 2dc:	6e656c09 	cdpvs	12, 6, cr6, cr5, cr9, {0}
 2e0:	52180300 	andspl	r0, r8, #0, 6
 2e4:	70000003 	andvc	r0, r0, r3
 2e8:	00037308 	andeq	r7, r3, r8, lsl #6
 2ec:	e9190300 	ldmdb	r9, {r8, r9}
 2f0:	78000001 	stmdavc	r0, {r0}
 2f4:	00000f08 	andeq	r0, r0, r8, lsl #30
 2f8:	521a0300 	andspl	r0, sl, #0, 6
 2fc:	7c000003 	stcvc	0, cr0, [r0], {3}
 300:	00037d08 	andeq	r7, r3, r8, lsl #26
 304:	e91b0300 	ldmdb	fp, {r8, r9}
 308:	84000001 	strhi	r0, [r0], #-1
 30c:	00016408 	andeq	r6, r1, r8, lsl #8
 310:	521c0300 	andspl	r0, ip, #0, 6
 314:	88000003 	stmdahi	r0, {r0, r1}
 318:	00038708 	andeq	r8, r3, r8, lsl #14
 31c:	e91d0300 	ldmdb	sp, {r8, r9}
 320:	90000001 	andls	r0, r0, r1
 324:	64757009 	ldrbtvs	r7, [r5], #-9
 328:	e91e0300 	ldmdb	lr, {r8, r9}
 32c:	94000001 	strls	r0, [r0], #-1
 330:	0000e408 	andeq	lr, r0, r8, lsl #8
 334:	521f0300 	andspl	r0, pc, #0, 6
 338:	98000003 	stmdals	r0, {r0, r1}
 33c:	02100a00 	andseq	r0, r0, #0, 20
 340:	e90b0000 	stmdb	fp, {}	; <UNPREDICTABLE>
 344:	52000001 	andpl	r0, r0, #1
 348:	0c000003 	stceq	0, cr0, [r0], {3}
 34c:	00000209 	andeq	r0, r0, r9, lsl #4
 350:	e90b0005 	stmdb	fp, {r0, r2}
 354:	62000001 	andvs	r0, r0, #1
 358:	0c000003 	stceq	0, cr0, [r0], {3}
 35c:	00000209 	andeq	r0, r0, r9, lsl #4
 360:	1f0d0001 	svcne	0x000d0001
 364:	03000002 	movweq	r0, #2
 368:	00037722 	andeq	r7, r3, r2, lsr #14
 36c:	20000000 	andcs	r0, r0, r0
 370:	3d040e20 	stccc	14, cr0, [r4, #-128]	; 0xffffff80
 374:	0f000003 	svceq	0x00000003
 378:	00000371 	andeq	r0, r0, r1, ror r3
 37c:	00047b10 	andeq	r7, r4, r0, lsl fp
 380:	09570100 	ldmdbeq	r7, {r8}^
 384:	20000002 	andcs	r0, r0, r2
 388:	5400008f 	strpl	r0, [r0], #-143	; 0x8f
 38c:	01000000 	mrseq	r0, (UNDEF: 0)
 390:	0003c39c 	muleq	r3, ip, r3
 394:	69701100 	ldmdbvs	r0!, {r8, ip}^
 398:	5701006e 	strpl	r0, [r1, -lr, rrx]
 39c:	00000209 	andeq	r0, r0, r9, lsl #4
 3a0:	00000000 	andeq	r0, r0, r0
 3a4:	00023812 	andeq	r3, r2, r2, lsl r8
 3a8:	095d0100 	ldmdbeq	sp, {r8}^
 3ac:	3a000002 	bcc	3bc <_start-0x7c44>
 3b0:	12000000 	andne	r0, r0, #0
 3b4:	00000147 	andeq	r0, r0, r7, asr #2
 3b8:	02095e01 	andeq	r5, r9, #1, 28
 3bc:	006a0000 	rsbeq	r0, sl, r0
 3c0:	13000000 	movwne	r0, #0
 3c4:	000000d9 	ldrdeq	r0, [r0], -r9
 3c8:	8ea84701 	cdphi	7, 10, cr4, cr8, cr1, {0}
 3cc:	00680000 	rsbeq	r0, r8, r0
 3d0:	9c010000 	stcls	0, cr0, [r1], {-0}
 3d4:	00000413 	andeq	r0, r0, r3, lsl r4
 3d8:	6e697011 	mcrvs	0, 3, r7, cr9, cr1, {0}
 3dc:	09470100 	stmdbeq	r7, {r8}^
 3e0:	8d000002 	stchi	0, cr0, [r0, #-8]
 3e4:	14000000 	strne	r0, [r0], #-0
 3e8:	006c6176 	rsbeq	r6, ip, r6, ror r1
 3ec:	02094701 	andeq	r4, r9, #262144	; 0x40000
 3f0:	51010000 	mrspl	r0, (UNDEF: 1)
 3f4:	00023812 	andeq	r3, r2, r2, lsl r8
 3f8:	094d0100 	stmdbeq	sp, {r8}^
 3fc:	ae000002 	cdpge	0, 0, cr0, cr0, cr2, {0}
 400:	12000000 	andne	r0, r0, #0
 404:	00000147 	andeq	r0, r0, r7, asr #2
 408:	02094e01 	andeq	r4, r9, #1, 28
 40c:	00f60000 	rscseq	r0, r6, r0
 410:	13000000 	movwne	r0, #0
 414:	0000002f 	andeq	r0, r0, pc, lsr #32
 418:	8e784201 	cdphi	2, 7, cr4, cr8, cr1, {0}
 41c:	00200000 	eoreq	r0, r0, r0
 420:	9c010000 	stcls	0, cr0, [r1], {-0}
 424:	0000044e 	andeq	r0, r0, lr, asr #8
 428:	6e697011 	mcrvs	0, 3, r7, cr9, cr1, {0}
 42c:	09420100 	stmdbeq	r2, {r8}^
 430:	34000002 	strcc	r0, [r0], #-2
 434:	15000001 	strne	r0, [r0, #-1]
 438:	00008e8c 	andeq	r8, r0, ip, lsl #29
 43c:	000004d0 	ldrdeq	r0, [r0], -r0	; <UNPREDICTABLE>
 440:	03500116 	cmpeq	r0, #-2147483643	; 0x80000005
 444:	165001f3 			; <UNDEFINED> instruction: 0x165001f3
 448:	31015101 	tstcc	r1, r1, lsl #2
 44c:	ab130000 	blge	4c0454 <__bss_end__+0x4b640c>
 450:	01000002 	tsteq	r0, r2
 454:	008e443d 	addeq	r4, lr, sp, lsr r4
 458:	00002000 	andeq	r2, r0, r0
 45c:	899c0100 	ldmibhi	ip, {r8}
 460:	11000004 	tstne	r0, r4
 464:	006e6970 	rsbeq	r6, lr, r0, ror r9
 468:	02093d01 	andeq	r3, r9, #1, 26	; 0x40
 46c:	01550000 	cmpeq	r5, r0
 470:	58150000 	ldmdapl	r5, {}	; <UNPREDICTABLE>
 474:	d000008e 	andle	r0, r0, lr, lsl #1
 478:	16000004 	strne	r0, [r0], -r4
 47c:	f3035001 	vhadd.u8	d5, d3, d1
 480:	01165001 	tsteq	r6, r1
 484:	00300151 	eorseq	r0, r0, r1, asr r1
 488:	04691000 	strbteq	r1, [r9], #-0
 48c:	31010000 	mrscc	r0, (UNDEF: 1)
 490:	00000209 	andeq	r0, r0, r9, lsl #4
 494:	00008dd4 	ldrdeq	r8, [r0], -r4
 498:	0000005c 	andeq	r0, r0, ip, asr r0
 49c:	04d09c01 	ldrbeq	r9, [r0], #3073	; 0xc01
 4a0:	70110000 	andsvc	r0, r1, r0
 4a4:	01006e69 	tsteq	r0, r9, ror #28
 4a8:	00020931 	andeq	r0, r2, r1, lsr r9
 4ac:	00017600 	andeq	r7, r1, r0, lsl #12
 4b0:	02381200 	eorseq	r1, r8, #0, 4
 4b4:	37010000 	strcc	r0, [r1, -r0]
 4b8:	00000209 	andeq	r0, r0, r9, lsl #4
 4bc:	000001b0 			; <UNDEFINED> instruction: 0x000001b0
 4c0:	00014712 	andeq	r4, r1, r2, lsl r7
 4c4:	09380100 	ldmdbeq	r8!, {r8}
 4c8:	c3000002 	movwgt	r0, #2
 4cc:	00000001 	andeq	r0, r0, r1
 4d0:	00015213 	andeq	r5, r1, r3, lsl r2
 4d4:	54220100 	strtpl	r0, [r2], #-256	; 0x100
 4d8:	6800008d 	stmdavs	r0, {r0, r2, r3, r7}
 4dc:	01000000 	mrseq	r0, (UNDEF: 0)
 4e0:	0005229c 	muleq	r5, ip, r2
 4e4:	69701100 	ldmdbvs	r0!, {r8, ip}^
 4e8:	2201006e 	andcs	r0, r1, #110	; 0x6e
 4ec:	00000209 	andeq	r0, r0, r9, lsl #4
 4f0:	000001f0 	strdeq	r0, [r0], -r0	; <UNPREDICTABLE>
 4f4:	0000eb17 	andeq	lr, r0, r7, lsl fp
 4f8:	09220100 	stmdbeq	r2!, {r8}
 4fc:	11000002 	tstne	r0, r2
 500:	12000002 	andne	r0, r0, #2
 504:	00000238 	andeq	r0, r0, r8, lsr r2
 508:	02092b01 	andeq	r2, r9, #1024	; 0x400
 50c:	02320000 	eorseq	r0, r2, #0
 510:	47120000 	ldrmi	r0, [r2, -r0]
 514:	01000001 	tsteq	r0, r1
 518:	0002092c 	andeq	r0, r2, ip, lsr #18
 51c:	00024500 	andeq	r4, r2, r0, lsl #10
 520:	f5180000 			; <UNDEFINED> instruction: 0xf5180000
 524:	01000003 	tsteq	r0, r3
 528:	008d2420 	addeq	r2, sp, r0, lsr #8
 52c:	00001800 	andeq	r1, r0, r0, lsl #16
 530:	009c0100 	addseq	r0, ip, r0, lsl #2
 534:	00000820 	andeq	r0, r0, r0, lsr #16
 538:	01570004 	cmpeq	r7, r4
 53c:	01040000 	mrseq	r0, (UNDEF: 4)
 540:	000000fe 	strdeq	r0, [r0], -lr
 544:	00066f0c 	andeq	r6, r6, ip, lsl #30
 548:	74002e00 	strvc	r2, [r0], #-3584	; 0xe00
 54c:	1800008f 	stmdane	r0, {r0, r1, r2, r3, r7}
 550:	bb000005 	bllt	56c <_start-0x7a94>
 554:	02000000 	andeq	r0, r0, #0
 558:	01810107 	orreq	r0, r1, r7, lsl #2
 55c:	18030000 	stmdane	r3, {}	; <UNPREDICTABLE>
 560:	00000181 	andeq	r0, r0, r1, lsl #3
 564:	00030003 	andeq	r0, r3, r3
 568:	91030000 	mrsls	r0, (UNDEF: 3)
 56c:	00000003 	andeq	r0, r0, r3
 570:	00039b03 	andeq	r9, r3, r3, lsl #22
 574:	a5030100 	strge	r0, [r3, #-256]	; 0x100
 578:	02000003 	andeq	r0, r0, #3
 57c:	0003af03 	andeq	sl, r3, r3, lsl #30
 580:	b9030300 	stmdblt	r3, {r8, r9}
 584:	04000003 	streq	r0, [r0], #-3
 588:	0003c303 	andeq	ip, r3, r3, lsl #6
 58c:	cd030500 	cfstr32gt	mvfx0, [r3, #-0]
 590:	06000003 	streq	r0, [r0], -r3
 594:	0003d703 	andeq	sp, r3, r3, lsl #14
 598:	e1030700 	tst	r3, r0, lsl #14
 59c:	08000003 	stmdaeq	r0, {r0, r1}
 5a0:	0003eb03 	andeq	lr, r3, r3, lsl #22
 5a4:	3d030900 	stccc	9, cr0, [r3, #-0]
 5a8:	0a000002 	beq	5b8 <_start-0x7a48>
 5ac:	00024803 	andeq	r4, r2, r3, lsl #16
 5b0:	53030b00 	movwpl	r0, #15104	; 0x3b00
 5b4:	0c000002 	stceq	0, cr0, [r0], {2}
 5b8:	00025e03 	andeq	r5, r2, r3, lsl #28
 5bc:	69030d00 	stmdbvs	r3, {r8, sl, fp}
 5c0:	0e000002 	cdpeq	0, 0, cr0, cr0, cr2, {0}
 5c4:	00027403 	andeq	r7, r2, r3, lsl #8
 5c8:	7f030f00 	svcvc	0x00030f00
 5cc:	10000002 	andne	r0, r0, r2
 5d0:	00028a03 	andeq	r8, r2, r3, lsl #20
 5d4:	95031100 	strls	r1, [r3, #-256]	; 0x100
 5d8:	12000002 	andne	r0, r0, #2
 5dc:	0002a003 	andeq	sl, r2, r3
 5e0:	ff031300 			; <UNDEFINED> instruction: 0xff031300
 5e4:	14000003 	strne	r0, [r0], #-3
 5e8:	00040a03 	andeq	r0, r4, r3, lsl #20
 5ec:	15031500 	strne	r1, [r3, #-1280]	; 0x500
 5f0:	16000004 	strne	r0, [r0], -r4
 5f4:	00042003 	andeq	r2, r4, r3
 5f8:	2b031700 	blcs	c6200 <__bss_end__+0xbc1b8>
 5fc:	18000004 	stmdane	r0, {r2}
 600:	0002ba03 	andeq	fp, r2, r3, lsl #20
 604:	3d031900 	stccc	9, cr1, [r3, #-0]
 608:	1a000004 	bne	620 <_start-0x79e0>
 60c:	00044803 	andeq	r4, r4, r3, lsl #16
 610:	53031b00 	movwpl	r1, #15104	; 0x3b00
 614:	1c000004 	stcne	0, cr0, [r0], {4}
 618:	00045e03 	andeq	r5, r4, r3, lsl #28
 61c:	3f031d00 	svccc	0x00031d00
 620:	1e000000 	cdpne	0, 0, cr0, cr0, cr0, {0}
 624:	00004a03 	andeq	r4, r0, r3, lsl #20
 628:	55031f00 	strpl	r1, [r3, #-3840]	; 0xf00
 62c:	20000000 	andcs	r0, r0, r0
 630:	00006003 	andeq	r6, r0, r3
 634:	6b032100 	blvs	c8a3c <__bss_end__+0xbe9f4>
 638:	22000000 	andcs	r0, r0, #0
 63c:	00007603 	andeq	r7, r0, r3, lsl #12
 640:	81032300 	mrshi	r2, SP_svc
 644:	24000000 	strcs	r0, [r0], #-0
 648:	00008c03 	andeq	r8, r0, r3, lsl #24
 64c:	97032500 	strls	r2, [r3, -r0, lsl #10]
 650:	26000000 	strcs	r0, [r0], -r0
 654:	0000a203 	andeq	sl, r0, r3, lsl #4
 658:	73032700 	movwvc	r2, #14080	; 0x3700
 65c:	28000001 	stmdacs	r0, {r0}
 660:	00017e03 	andeq	r7, r1, r3, lsl #28
 664:	89032900 	stmdbhi	r3, {r8, fp, sp}
 668:	2a000001 	bcs	674 <_start-0x798c>
 66c:	00019403 	andeq	r9, r1, r3, lsl #8
 670:	9f032b00 	svcls	0x00032b00
 674:	2c000001 	stccs	0, cr0, [r0], {1}
 678:	0001aa03 	andeq	sl, r1, r3, lsl #20
 67c:	b5032d00 	strlt	r2, [r3, #-3328]	; 0xd00
 680:	2e000001 	cdpcs	0, 0, cr0, cr0, cr1, {0}
 684:	0001c003 	andeq	ip, r1, r3
 688:	cb032f00 	blgt	cc290 <__bss_end__+0xc2248>
 68c:	30000001 	andcc	r0, r0, r1
 690:	0001d603 	andeq	sp, r1, r3, lsl #12
 694:	c5033100 	strgt	r3, [r3, #-256]	; 0x100
 698:	32000002 	andcc	r0, r0, #2
 69c:	0002d003 	andeq	sp, r2, r3
 6a0:	db033300 	blle	cd2a8 <__bss_end__+0xc3260>
 6a4:	34000002 	strcc	r0, [r0], #-2
 6a8:	0002e603 	andeq	lr, r2, r3, lsl #12
 6ac:	cb033500 	blgt	cdab4 <__bss_end__+0xc3a6c>
 6b0:	35000000 	strcc	r0, [r0, #-0]
 6b4:	08010400 	stmdaeq	r1, {sl}
 6b8:	000001e1 	andeq	r0, r0, r1, ror #3
 6bc:	0004d505 	andeq	sp, r4, r5, lsl #10
 6c0:	81010700 	tsthi	r1, r0, lsl #14
 6c4:	04000001 	streq	r0, [r0], #-1
 6c8:	0001be11 	andeq	fp, r1, r1, lsl lr
 6cc:	05430300 	strbeq	r0, [r3, #-768]	; 0x300
 6d0:	03000000 	movweq	r0, #0
 6d4:	00000633 	andeq	r0, r0, r3, lsr r6
 6d8:	061c0301 	ldreq	r0, [ip], -r1, lsl #6
 6dc:	03020000 	movweq	r0, #8192	; 0x2000
 6e0:	00000597 	muleq	r0, r7, r5
 6e4:	05b70303 	ldreq	r0, [r7, #771]!	; 0x303
 6e8:	03040000 	movweq	r0, #16384	; 0x4000
 6ec:	000004e0 	andeq	r0, r0, r0, ror #9
 6f0:	01040005 	tsteq	r4, r5
 6f4:	0001e306 	andeq	lr, r1, r6, lsl #6
 6f8:	05020400 	streq	r0, [r2, #-1024]	; 0x400
 6fc:	00000014 	andeq	r0, r0, r4, lsl r0
 700:	f5050404 			; <UNDEFINED> instruction: 0xf5050404
 704:	04000000 	streq	r0, [r0], #-0
 708:	00f00508 	rscseq	r0, r0, r8, lsl #10
 70c:	02040000 	andeq	r0, r4, #0
 710:	00022507 	andeq	r2, r2, r7, lsl #10
 714:	02160600 	andseq	r0, r6, #0, 12
 718:	34050000 	strcc	r0, [r5], #-0
 71c:	000001f1 	strdeq	r0, [r0], -r1
 720:	0001e107 	andeq	lr, r1, r7, lsl #2
 724:	07040400 	streq	r0, [r4, -r0, lsl #8]
 728:	00000204 	andeq	r0, r0, r4, lsl #4
 72c:	ff070804 			; <UNDEFINED> instruction: 0xff070804
 730:	08000001 	stmdaeq	r0, {r0}
 734:	6e690504 	cdpvs	5, 6, cr0, cr9, cr4, {0}
 738:	ff070074 			; <UNDEFINED> instruction: 0xff070074
 73c:	04000001 	streq	r0, [r0], #-1
 740:	02090704 	andeq	r0, r9, #4, 14	; 0x100000
 744:	20090000 	andcs	r0, r9, r0
 748:	a0000002 	andge	r0, r0, r2
 74c:	033f0702 	teqeq	pc, #524288	; 0x80000
 750:	4d0a0000 	stcmi	0, cr0, [sl, #-0]
 754:	02000001 	andeq	r0, r0, #1
 758:	00034408 	andeq	r4, r3, r8, lsl #8
 75c:	690a0000 	stmdbvs	sl, {}	; <UNPREDICTABLE>
 760:	02000001 	andeq	r0, r0, #1
 764:	0001e109 	andeq	lr, r1, r9, lsl #2
 768:	730b1800 	movwvc	r1, #47104	; 0xb800
 76c:	02007465 	andeq	r7, r0, #1694498816	; 0x65000000
 770:	0003540a 	andeq	r5, r3, sl, lsl #8
 774:	1e0a1c00 	cdpne	12, 0, cr1, cr10, cr0, {0}
 778:	02000003 	andeq	r0, r0, #3
 77c:	0001e10b 	andeq	lr, r1, fp, lsl #2
 780:	630b2400 	movwvs	r2, #46080	; 0xb400
 784:	0200726c 	andeq	r7, r0, #108, 4	; 0xc0000006
 788:	0003540c 	andeq	r5, r3, ip, lsl #8
 78c:	370a2800 	strcc	r2, [sl, -r0, lsl #16]
 790:	02000003 	andeq	r0, r0, #3
 794:	0001e10d 	andeq	lr, r1, sp, lsl #2
 798:	6c0b3000 	stcvs	0, cr3, [fp], {-0}
 79c:	02007665 	andeq	r7, r0, #105906176	; 0x6500000
 7a0:	0003540e 	andeq	r5, r3, lr, lsl #8
 7a4:	410a3400 	tstmi	sl, r0, lsl #8
 7a8:	02000003 	andeq	r0, r0, #3
 7ac:	0001e10f 	andeq	lr, r1, pc, lsl #2
 7b0:	650b3c00 	strvs	r3, [fp, #-3072]	; 0xc00
 7b4:	02007364 	andeq	r7, r0, #100, 6	; 0x90000001
 7b8:	00035410 	andeq	r5, r3, r0, lsl r4
 7bc:	4b0a4000 	blmi	2907c4 <__bss_end__+0x28677c>
 7c0:	02000003 	andeq	r0, r0, #3
 7c4:	0001e111 	andeq	lr, r1, r1, lsl r1
 7c8:	720b4800 	andvc	r4, fp, #0, 16
 7cc:	02006e65 	andeq	r6, r0, #1616	; 0x650
 7d0:	00035412 	andeq	r5, r3, r2, lsl r4
 7d4:	550a4c00 	strpl	r4, [sl, #-3072]	; 0xc00
 7d8:	02000003 	andeq	r0, r0, #3
 7dc:	0001e113 	andeq	lr, r1, r3, lsl r1
 7e0:	660b5400 	strvs	r5, [fp], -r0, lsl #8
 7e4:	02006e65 	andeq	r6, r0, #1616	; 0x650
 7e8:	00035414 	andeq	r5, r3, r4, lsl r4
 7ec:	5f0a5800 	svcpl	0x000a5800
 7f0:	02000003 	andeq	r0, r0, #3
 7f4:	0001e115 	andeq	lr, r1, r5, lsl r1
 7f8:	680b6000 	stmdavs	fp, {sp, lr}
 7fc:	02006e65 	andeq	r6, r0, #1616	; 0x650
 800:	00035416 	andeq	r5, r3, r6, lsl r4
 804:	690a6400 	stmdbvs	sl, {sl, sp, lr}
 808:	02000003 	andeq	r0, r0, #3
 80c:	0001e117 	andeq	lr, r1, r7, lsl r1
 810:	6c0b6c00 	stcvs	12, cr6, [fp], {-0}
 814:	02006e65 	andeq	r6, r0, #1616	; 0x650
 818:	00035418 	andeq	r5, r3, r8, lsl r4
 81c:	730a7000 	movwvc	r7, #40960	; 0xa000
 820:	02000003 	andeq	r0, r0, #3
 824:	0001e119 	andeq	lr, r1, r9, lsl r1
 828:	0f0a7800 	svceq	0x000a7800
 82c:	02000000 	andeq	r0, r0, #0
 830:	0003541a 	andeq	r5, r3, sl, lsl r4
 834:	7d0a7c00 	stcvc	12, cr7, [sl, #-0]
 838:	02000003 	andeq	r0, r0, #3
 83c:	0001e11b 	andeq	lr, r1, fp, lsl r1
 840:	640a8400 	strvs	r8, [sl], #-1024	; 0x400
 844:	02000001 	andeq	r0, r0, #1
 848:	0003541c 	andeq	r5, r3, ip, lsl r4
 84c:	870a8800 	strhi	r8, [sl, -r0, lsl #16]
 850:	02000003 	andeq	r0, r0, #3
 854:	0001e11d 	andeq	lr, r1, sp, lsl r1
 858:	700b9000 	andvc	r9, fp, r0
 85c:	02006475 	andeq	r6, r0, #1962934272	; 0x75000000
 860:	0001e11e 	andeq	lr, r1, lr, lsl r1
 864:	e40a9400 	str	r9, [sl], #-1024	; 0x400
 868:	02000000 	andeq	r0, r0, #0
 86c:	0003541f 	andeq	r5, r3, pc, lsl r4
 870:	07009800 	streq	r9, [r0, -r0, lsl #16]
 874:	00000212 	andeq	r0, r0, r2, lsl r2
 878:	0001e10c 	andeq	lr, r1, ip, lsl #2
 87c:	00035400 	andeq	r5, r3, r0, lsl #8
 880:	020b0d00 	andeq	r0, fp, #0, 26
 884:	00050000 	andeq	r0, r5, r0
 888:	0001e10c 	andeq	lr, r1, ip, lsl #2
 88c:	00036400 	andeq	r6, r3, r0, lsl #8
 890:	020b0d00 	andeq	r0, fp, #0, 26
 894:	00010000 	andeq	r0, r1, r0
 898:	00021f0e 	andeq	r1, r2, lr, lsl #30
 89c:	79220200 	stmdbvc	r2!, {r9}
 8a0:	00000003 	andeq	r0, r0, r3
 8a4:	0f202000 	svceq	0x00202000
 8a8:	00033f04 	andeq	r3, r3, r4, lsl #30
 8ac:	03731000 	cmneq	r3, #0
 8b0:	07020000 	streq	r0, [r2, -r0]
 8b4:	00018101 	andeq	r8, r1, r1, lsl #2
 8b8:	9e860100 	rmflss	f0, f6, f0
 8bc:	03000003 	movweq	r0, #3
 8c0:	0000067b 	andeq	r0, r0, fp, ror r6
 8c4:	05fa0300 	ldrbeq	r0, [sl, #768]!	; 0x300
 8c8:	03010000 	movweq	r0, #4096	; 0x1000
 8cc:	0000060c 	andeq	r0, r0, ip, lsl #12
 8d0:	e8110002 	ldmda	r1, {r1}
 8d4:	01000005 	tsteq	r0, r5
 8d8:	00946ca4 	addseq	r6, r4, r4, lsr #25
 8dc:	00002000 	andeq	r2, r0, r0
 8e0:	d99c0100 	ldmible	ip, {r8}
 8e4:	12000003 	andne	r0, r0, #3
 8e8:	006e6970 	rsbeq	r6, lr, r0, ror r9
 8ec:	020ba401 	andeq	sl, fp, #16777216	; 0x1000000
 8f0:	02720000 	rsbseq	r0, r2, #0
 8f4:	80130000 	andshi	r0, r3, r0
 8f8:	4f000094 	svcmi	0x00000094
 8fc:	14000004 	strne	r0, [r0], #-4
 900:	f3035001 	vhadd.u8	d5, d3, d1
 904:	01145001 	tsteq	r4, r1
 908:	00300151 	eorseq	r0, r0, r1, asr r1
 90c:	056c1100 	strbeq	r1, [ip, #-256]!	; 0x100
 910:	9f010000 	svcls	0x00010000
 914:	00009434 	andeq	r9, r0, r4, lsr r4
 918:	00000020 	andeq	r0, r0, r0, lsr #32
 91c:	04149c01 	ldreq	r9, [r4], #-3073	; 0xc01
 920:	70120000 	andsvc	r0, r2, r0
 924:	01006e69 	tsteq	r0, r9, ror #28
 928:	00020b9f 	muleq	r2, pc, fp	; <UNPREDICTABLE>
 92c:	00029300 	andeq	r9, r2, r0, lsl #6
 930:	94481300 	strbls	r1, [r8], #-768	; 0x300
 934:	044f0000 	strbeq	r0, [pc], #-0	; 93c <_start-0x76c4>
 938:	01140000 	tsteq	r4, r0
 93c:	01f30350 	mvnseq	r0, r0, asr r3
 940:	51011450 	tstpl	r1, r0, asr r4
 944:	00003101 	andeq	r3, r0, r1, lsl #2
 948:	00049611 	andeq	r9, r4, r1, lsl r6
 94c:	fc9a0100 	ldc2	1, cr0, [sl], {0}
 950:	20000093 	mulcs	r0, r3, r0
 954:	01000000 	mrseq	r0, (UNDEF: 0)
 958:	00044f9c 	muleq	r4, ip, pc	; <UNPREDICTABLE>
 95c:	69701200 	ldmdbvs	r0!, {r9, ip}^
 960:	9a01006e 	bls	40b20 <__bss_end__+0x36ad8>
 964:	0000020b 	andeq	r0, r0, fp, lsl #4
 968:	000002b4 			; <UNDEFINED> instruction: 0x000002b4
 96c:	00941013 	addseq	r1, r4, r3, lsl r0
 970:	00044f00 	andeq	r4, r4, r0, lsl #30
 974:	50011400 	andpl	r1, r1, r0, lsl #8
 978:	5001f303 	andpl	pc, r1, r3, lsl #6
 97c:	01510114 	cmpeq	r1, r4, lsl r1
 980:	15000032 	strne	r0, [r0, #-50]	; 0x32
 984:	0000068c 	andeq	r0, r0, ip, lsl #13
 988:	8ff88801 	svchi	0x00f88801
 98c:	00a40000 	adceq	r0, r4, r0
 990:	9c010000 	stcls	0, cr0, [r1], {-0}
 994:	000004d1 	ldrdeq	r0, [r0], -r1
 998:	6e697012 	mcrvs	0, 3, r7, cr9, cr2, {0}
 99c:	0b880100 	bleq	fe200da4 <__bss_end__+0xfe1f6d5c>
 9a0:	d5000002 	strle	r0, [r0, #-2]
 9a4:	12000002 	andne	r0, r0, #2
 9a8:	00647570 	rsbeq	r7, r4, r0, ror r5
 9ac:	020b8801 	andeq	r8, fp, #65536	; 0x10000
 9b0:	02f60000 	rscseq	r0, r6, #0
 9b4:	38160000 	ldmdacc	r6, {}	; <UNPREDICTABLE>
 9b8:	01000002 	tsteq	r0, r2
 9bc:	00020b8e 	andeq	r0, r2, lr, lsl #23
 9c0:	00031700 	andeq	r1, r3, r0, lsl #14
 9c4:	01471600 	cmpeq	r7, r0, lsl #12
 9c8:	8f010000 	svchi	0x00010000
 9cc:	0000020b 	andeq	r0, r0, fp, lsl #4
 9d0:	00000337 	andeq	r0, r0, r7, lsr r3
 9d4:	00902017 	addseq	r2, r0, r7, lsl r0
 9d8:	00002400 	andeq	r2, r0, r0, lsl #8
 9dc:	0004ba00 	andeq	fp, r4, r0, lsl #20
 9e0:	00691800 	rsbeq	r1, r9, r0, lsl #16
 9e4:	02069201 	andeq	r9, r6, #268435456	; 0x10000000
 9e8:	91020000 	mrsls	r0, (UNDEF: 2)
 9ec:	58190068 	ldmdapl	r9, {r3, r5, r6}
 9f0:	24000090 	strcs	r0, [r0], #-144	; 0x90
 9f4:	18000000 	stmdane	r0, {}	; <UNPREDICTABLE>
 9f8:	95010069 	strls	r0, [r1, #-105]	; 0x69
 9fc:	00000206 	andeq	r0, r0, r6, lsl #4
 a00:	006c9102 	rsbeq	r9, ip, r2, lsl #2
 a04:	05221100 	streq	r1, [r2, #-256]!	; 0x100
 a08:	6a010000 	bvs	40a10 <__bss_end__+0x369c8>
 a0c:	00009398 	muleq	r0, r8, r3
 a10:	00000050 	andeq	r0, r0, r0, asr r0
 a14:	053c9c01 	ldreq	r9, [ip, #-3073]!	; 0xc01
 a18:	70120000 	andsvc	r0, r2, r0
 a1c:	01006e69 	tsteq	r0, r9, ror #28
 a20:	00020b6a 	andeq	r0, r2, sl, ror #22
 a24:	00035a00 	andeq	r5, r3, r0, lsl #20
 a28:	93b01700 	movsls	r1, #0, 14
 a2c:	00240000 	eoreq	r0, r4, r0
 a30:	052b0000 	streq	r0, [fp, #-0]!
 a34:	691a0000 	ldmdbvs	sl, {}	; <UNPREDICTABLE>
 a38:	ff6f0100 			; <UNDEFINED> instruction: 0xff6f0100
 a3c:	86000001 	strhi	r0, [r0], -r1
 a40:	13000003 	movwne	r0, #3
 a44:	000093c8 	andeq	r9, r0, r8, asr #7
 a48:	0000074b 	andeq	r0, r0, fp, asr #14
 a4c:	02500114 	subseq	r0, r0, #20, 2
 a50:	01140075 	tsteq	r4, r5, ror r0
 a54:	00740251 	rsbseq	r0, r4, r1, asr r2
 a58:	01520114 	cmpeq	r2, r4, lsl r1
 a5c:	13000030 	movwne	r0, #48	; 0x30
 a60:	000093dc 	ldrdeq	r9, [r0], -ip
 a64:	00000594 	muleq	r0, r4, r5
 a68:	02500114 	subseq	r0, r0, #20, 2
 a6c:	00000075 	andeq	r0, r0, r5, ror r0
 a70:	0004ff1b 	andeq	pc, r4, fp, lsl pc	; <UNPREDICTABLE>
 a74:	8d5f0100 	ldfhie	f0, [pc, #-0]	; a7c <_start-0x7584>
 a78:	2c000005 	stccs	0, cr0, [r0], {5}
 a7c:	44000093 	strmi	r0, [r0], #-147	; 0x93
 a80:	01000000 	mrseq	r0, (UNDEF: 0)
 a84:	00058d9c 	muleq	r5, ip, sp
 a88:	69701200 	ldmdbvs	r0!, {r9, ip}^
 a8c:	5f01006e 	svcpl	0x0001006e
 a90:	0000020b 	andeq	r0, r0, fp, lsl #4
 a94:	00000399 	muleq	r0, r9, r3
 a98:	00056616 	andeq	r6, r5, r6, lsl r6
 a9c:	8d650100 	stfhie	f0, [r5, #-0]
 aa0:	db000005 	blle	abc <_start-0x7544>
 aa4:	1c000003 	stcne	0, cr0, [r0], {3}
 aa8:	0000935c 	andeq	r9, r0, ip, asr r3
 aac:	000005e6 	andeq	r0, r0, r6, ror #11
 ab0:	00936c13 	addseq	r6, r3, r3, lsl ip
 ab4:	00059400 	andeq	r9, r5, r0, lsl #8
 ab8:	50011400 	andpl	r1, r1, r0, lsl #8
 abc:	00007402 	andeq	r7, r0, r2, lsl #8
 ac0:	02010400 	andeq	r0, r1, #0, 8
 ac4:	0000064c 	andeq	r0, r0, ip, asr #12
 ac8:	00048511 	andeq	r8, r4, r1, lsl r5
 acc:	a0530100 	subsge	r0, r3, r0, lsl #2
 ad0:	50000091 	mulpl	r0, r1, r0
 ad4:	01000000 	mrseq	r0, (UNDEF: 0)
 ad8:	0005e69c 	muleq	r5, ip, r6
 adc:	69701200 	ldmdbvs	r0!, {r9, ip}^
 ae0:	5301006e 	movwpl	r0, #4206	; 0x106e
 ae4:	0000020b 	andeq	r0, r0, fp, lsl #4
 ae8:	000003ee 	andeq	r0, r0, lr, ror #7
 aec:	00023816 	andeq	r3, r2, r6, lsl r8
 af0:	0b590100 	bleq	1640ef8 <__bss_end__+0x1636eb0>
 af4:	28000002 	stmdacs	r0, {r1}
 af8:	1d000004 	stcne	0, cr0, [r0, #-16]
 afc:	00000147 	andeq	r0, r0, r7, asr #2
 b00:	020b5a01 	andeq	r5, fp, #4096	; 0x1000
 b04:	55010000 	strpl	r0, [r1, #-0]
 b08:	0091cc13 	addseq	ip, r1, r3, lsl ip
 b0c:	0005e600 	andeq	lr, r5, r0, lsl #12
 b10:	50011400 	andpl	r1, r1, r0, lsl #8
 b14:	5001f303 	andpl	pc, r1, r3, lsl #6
 b18:	5b1b0000 	blpl	6c0b20 <__bss_end__+0x6b6ad8>
 b1c:	01000005 	tsteq	r0, r5
 b20:	00058d48 	andeq	r8, r5, r8, asr #26
 b24:	00913800 	addseq	r3, r1, r0, lsl #16
 b28:	00005000 	andeq	r5, r0, r0
 b2c:	2d9c0100 	ldfcss	f0, [ip]
 b30:	12000006 	andne	r0, r0, #6
 b34:	006e6970 	rsbeq	r6, lr, r0, ror r9
 b38:	020b4801 	andeq	r4, fp, #65536	; 0x10000
 b3c:	04480000 	strbeq	r0, [r8], #-0
 b40:	38160000 	ldmdacc	r6, {}	; <UNPREDICTABLE>
 b44:	01000002 	tsteq	r0, r2
 b48:	00020b4e 	andeq	r0, r2, lr, asr #22
 b4c:	00048200 	andeq	r8, r4, r0, lsl #4
 b50:	01471600 	cmpeq	r7, r0, lsl #12
 b54:	4f010000 	svcmi	0x00010000
 b58:	0000020b 	andeq	r0, r0, fp, lsl #4
 b5c:	000004b2 			; <UNDEFINED> instruction: 0x000004b2
 b60:	04a61100 	strteq	r1, [r6], #256	; 0x100
 b64:	43010000 	movwmi	r0, #4096	; 0x1000
 b68:	000092ec 	andeq	r9, r0, ip, ror #5
 b6c:	00000020 	andeq	r0, r0, r0, lsr #32
 b70:	067e9c01 	ldrbteq	r9, [lr], -r1, lsl #24
 b74:	70120000 	andsvc	r0, r2, r0
 b78:	01006e69 	tsteq	r0, r9, ror #28
 b7c:	00020b43 	andeq	r0, r2, r3, asr #22
 b80:	0004d500 	andeq	sp, r4, r0, lsl #10
 b84:	05661e00 	strbeq	r1, [r6, #-3584]!	; 0xe00
 b88:	43010000 	movwmi	r0, #4096	; 0x1000
 b8c:	0000020b 	andeq	r0, r0, fp, lsl #4
 b90:	000004f6 	strdeq	r0, [r0], -r6
 b94:	00930013 	addseq	r0, r3, r3, lsl r0
 b98:	00074b00 	andeq	r4, r7, r0, lsl #22
 b9c:	50011400 	andpl	r1, r1, r0, lsl #8
 ba0:	5001f303 	andpl	pc, r1, r3, lsl #6
 ba4:	03510114 	cmpeq	r1, #20, 2
 ba8:	145101f3 	ldrbne	r0, [r1], #-499	; 0x1f3
 bac:	31015201 	tstcc	r1, r1, lsl #4
 bb0:	52110000 	andspl	r0, r1, #0
 bb4:	01000006 	tsteq	r0, r6
 bb8:	0092ac3e 	addseq	sl, r2, lr, lsr ip
 bbc:	00002000 	andeq	r2, r0, r0
 bc0:	cf9c0100 	svcgt	0x009c0100
 bc4:	12000006 	andne	r0, r0, #6
 bc8:	006e6970 	rsbeq	r6, lr, r0, ror r9
 bcc:	020b3e01 	andeq	r3, fp, #1, 28
 bd0:	05170000 	ldreq	r0, [r7, #-0]
 bd4:	661e0000 	ldrvs	r0, [lr], -r0
 bd8:	01000005 	tsteq	r0, r5
 bdc:	00020b3e 	andeq	r0, r2, lr, lsr fp
 be0:	00053800 	andeq	r3, r5, r0, lsl #16
 be4:	92c01300 	sbcls	r1, r0, #0, 6
 be8:	074b0000 	strbeq	r0, [fp, -r0]
 bec:	01140000 	tsteq	r4, r0
 bf0:	01f30350 	mvnseq	r0, r0, asr r3
 bf4:	51011450 	tstpl	r1, r0, asr r4
 bf8:	5101f303 	tstpl	r1, r3, lsl #6
 bfc:	01520114 	cmpeq	r2, r4, lsl r1
 c00:	1b000030 	blne	cc8 <_start-0x7338>
 c04:	0000057e 	andeq	r0, r0, lr, ror r5
 c08:	058d3101 	streq	r3, [sp, #257]	; 0x101
 c0c:	90bc0000 	adcsls	r0, ip, r0
 c10:	00640000 	rsbeq	r0, r4, r0
 c14:	9c010000 	stcls	0, cr0, [r1], {-0}
 c18:	00000745 	andeq	r0, r0, r5, asr #14
 c1c:	6e697012 	mcrvs	0, 3, r7, cr9, cr2, {0}
 c20:	0b310100 	bleq	c41028 <__bss_end__+0xc36fe0>
 c24:	59000002 	stmdbpl	r0, {r1}
 c28:	1e000005 	cdpne	0, 0, cr0, cr0, cr5, {0}
 c2c:	00000566 	andeq	r0, r0, r6, ror #10
 c30:	020b3101 	andeq	r3, fp, #1073741824	; 0x40000000
 c34:	05900000 	ldreq	r0, [r0]
 c38:	721a0000 	andsvc	r0, sl, #0
 c3c:	01006765 	tsteq	r0, r5, ror #14
 c40:	00074533 	andeq	r4, r7, r3, lsr r5
 c44:	0005b100 	andeq	fp, r5, r0, lsl #2
 c48:	02381600 	eorseq	r1, r8, #0, 12
 c4c:	39010000 	stmdbcc	r1, {}	; <UNPREDICTABLE>
 c50:	0000020b 	andeq	r0, r0, fp, lsl #4
 c54:	000005da 	ldrdeq	r0, [r0], -sl
 c58:	00014716 	andeq	r4, r1, r6, lsl r7
 c5c:	0b3a0100 	bleq	e81064 <__bss_end__+0xe7701c>
 c60:	fd000002 	stc2	0, cr0, [r0, #-8]
 c64:	13000005 	movwne	r0, #5
 c68:	000090d4 	ldrdeq	r9, [r0], -r4
 c6c:	000007e0 	andeq	r0, r0, r0, ror #15
 c70:	03500114 	cmpeq	r0, #20, 2
 c74:	005101f3 	ldrsheq	r0, [r1], #-19	; 0xffffffed
 c78:	ec040f00 	stc	15, cr0, [r4], {-0}
 c7c:	15000001 	strne	r0, [r0, #-1]
 c80:	000005d5 	ldrdeq	r0, [r0], -r5
 c84:	92082001 	andls	r2, r8, #1
 c88:	00800000 	addeq	r0, r0, r0
 c8c:	9c010000 	stcls	0, cr0, [r1], {-0}
 c90:	000007e0 	andeq	r0, r0, r0, ror #15
 c94:	6e697012 	mcrvs	0, 3, r7, cr9, cr2, {0}
 c98:	0b200100 	bleq	8010a0 <__bss_end__+0x7f7058>
 c9c:	10000002 	andne	r0, r0, r2
 ca0:	1e000006 	cdpne	0, 0, cr0, cr0, cr6, {0}
 ca4:	00000566 	andeq	r0, r0, r6, ror #10
 ca8:	020b2001 	andeq	r2, fp, #1
 cac:	06470000 	strbeq	r0, [r7], -r0
 cb0:	1a1e0000 	bne	780cb8 <__bss_end__+0x776c70>
 cb4:	01000005 	tsteq	r0, r5
 cb8:	00020b20 	andeq	r0, r2, r0, lsr #22
 cbc:	00066800 	andeq	r6, r6, r0, lsl #16
 cc0:	65721a00 	ldrbvs	r1, [r2, #-2560]!	; 0xa00
 cc4:	22010067 	andcs	r0, r1, #103	; 0x67
 cc8:	00000745 	andeq	r0, r0, r5, asr #14
 ccc:	0000069f 	muleq	r0, pc, r6	; <UNPREDICTABLE>
 cd0:	00023816 	andeq	r3, r2, r6, lsl r8
 cd4:	0b280100 	bleq	a010dc <__bss_end__+0x9f7094>
 cd8:	c8000002 	stmdagt	r0, {r1}
 cdc:	16000006 	strne	r0, [r0], -r6
 ce0:	00000147 	andeq	r0, r0, r7, asr #2
 ce4:	020b2901 	andeq	r2, fp, #16384	; 0x4000
 ce8:	06f50000 	ldrbteq	r0, [r5], r0
 cec:	241f0000 	ldrcs	r0, [pc], #-0	; cf4 <_start-0x730c>
 cf0:	e0000092 	mul	r0, r2, r0
 cf4:	cf000007 	svcgt	0x00000007
 cf8:	14000007 	strne	r0, [r0], #-7
 cfc:	f3035001 	vhadd.u8	d5, d3, d1
 d00:	13005101 	movwne	r5, #257	; 0x101
 d04:	00009268 	andeq	r9, r0, r8, ror #4
 d08:	00000594 	muleq	r0, r4, r5
 d0c:	02500114 	subseq	r0, r0, #20, 2
 d10:	00000074 	andeq	r0, r0, r4, ror r0
 d14:	0004c220 	andeq	ip, r4, r0, lsr #4
 d18:	45180100 	ldrmi	r0, [r8, #-256]	; 0x100
 d1c:	8c000007 	stchi	0, cr0, [r0], {7}
 d20:	5800008f 	stmdapl	r0, {r0, r1, r2, r3, r7}
 d24:	01000000 	mrseq	r0, (UNDEF: 0)
 d28:	0008179c 	muleq	r8, ip, r7
 d2c:	05661e00 	strbeq	r1, [r6, #-3584]!	; 0xe00
 d30:	18010000 	stmdane	r1, {}	; <UNPREDICTABLE>
 d34:	0000020b 	andeq	r0, r0, fp, lsl #4
 d38:	00000722 	andeq	r0, r0, r2, lsr #14
 d3c:	0005ad1d 	andeq	sl, r5, sp, lsl sp
 d40:	171a0100 	ldrne	r0, [sl, -r0, lsl #2]
 d44:	02000008 	andeq	r0, r0, #8
 d48:	21005091 	swpcs	r5, r1, [r0]
 d4c:	00000745 	andeq	r0, r0, r5, asr #14
 d50:	00020b0d 	andeq	r0, r2, sp, lsl #22
 d54:	00000500 	andeq	r0, r0, r0, lsl #10

Disassembly of section .debug_abbrev:

00000000 <.debug_abbrev>:
   0:	25011101 	strcs	r1, [r1, #-257]	; 0x101
   4:	030b130e 	movweq	r1, #45838	; 0xb30e
   8:	11081b0e 	tstne	r8, lr, lsl #22
   c:	10061201 	andne	r1, r6, r1, lsl #4
  10:	02000017 	andeq	r0, r0, #23
  14:	0b3e0104 	bleq	f8042c <__bss_end__+0xf763e4>
  18:	13490b0b 	movtne	r0, #39691	; 0x9b0b
  1c:	0b3b0b3a 	bleq	ec2d0c <__bss_end__+0xeb8cc4>
  20:	00001301 	andeq	r1, r0, r1, lsl #6
  24:	03002803 	movweq	r2, #2051	; 0x803
  28:	000b1c0e 	andeq	r1, fp, lr, lsl #24
  2c:	00240400 	eoreq	r0, r4, r0, lsl #8
  30:	0b3e0b0b 	bleq	f82c64 <__bss_end__+0xf78c1c>
  34:	00000e03 	andeq	r0, r0, r3, lsl #28
  38:	03001605 	movweq	r1, #1541	; 0x605
  3c:	3b0b3a0e 	blcc	2ce87c <__bss_end__+0x2c4834>
  40:	0013490b 	andseq	r4, r3, fp, lsl #18
  44:	00240600 	eoreq	r0, r4, r0, lsl #12
  48:	0b3e0b0b 	bleq	f82c7c <__bss_end__+0xf78c34>
  4c:	00000803 	andeq	r0, r0, r3, lsl #16
  50:	03011307 	movweq	r1, #4871	; 0x1307
  54:	3a0b0b0e 	bcc	2c2c94 <__bss_end__+0x2b8c4c>
  58:	010b3b0b 	tsteq	fp, fp, lsl #22
  5c:	08000013 	stmdaeq	r0, {r0, r1, r4}
  60:	0e03000d 	cdpeq	0, 0, cr0, cr3, cr13, {0}
  64:	0b3b0b3a 	bleq	ec2d54 <__bss_end__+0xeb8d0c>
  68:	0b381349 	bleq	e04d94 <__bss_end__+0xdfad4c>
  6c:	0d090000 	stceq	0, cr0, [r9, #-0]
  70:	3a080300 	bcc	200c78 <__bss_end__+0x1f6c30>
  74:	490b3b0b 	stmdbmi	fp, {r0, r1, r3, r8, r9, fp, ip, sp}
  78:	000b3813 	andeq	r3, fp, r3, lsl r8
  7c:	00350a00 	eorseq	r0, r5, r0, lsl #20
  80:	00001349 	andeq	r1, r0, r9, asr #6
  84:	4901010b 	stmdbmi	r1, {r0, r1, r3, r8}
  88:	00130113 	andseq	r0, r3, r3, lsl r1
  8c:	00210c00 	eoreq	r0, r1, r0, lsl #24
  90:	0b2f1349 	bleq	bc4dbc <__bss_end__+0xbbad74>
  94:	340d0000 	strcc	r0, [sp], #-0
  98:	3a0e0300 	bcc	380ca0 <__bss_end__+0x376c58>
  9c:	490b3b0b 	stmdbmi	fp, {r0, r1, r3, r8, r9, fp, ip, sp}
  a0:	00061c13 	andeq	r1, r6, r3, lsl ip
  a4:	000f0e00 	andeq	r0, pc, r0, lsl #28
  a8:	13490b0b 	movtne	r0, #39691	; 0x9b0b
  ac:	260f0000 	strcs	r0, [pc], -r0
  b0:	00134900 	andseq	r4, r3, r0, lsl #18
  b4:	012e1000 	teqeq	lr, r0
  b8:	0e03193f 	mcreq	9, 0, r1, cr3, cr15, {1}
  bc:	0b3b0b3a 	bleq	ec2dac <__bss_end__+0xeb8d64>
  c0:	13491927 	movtne	r1, #39207	; 0x9927
  c4:	06120111 			; <UNDEFINED> instruction: 0x06120111
  c8:	42971840 	addsmi	r1, r7, #64, 16	; 0x400000
  cc:	00130119 	andseq	r0, r3, r9, lsl r1
  d0:	00051100 	andeq	r1, r5, r0, lsl #2
  d4:	0b3a0803 	bleq	e820e8 <__bss_end__+0xe780a0>
  d8:	13490b3b 	movtne	r0, #39739	; 0x9b3b
  dc:	00001702 	andeq	r1, r0, r2, lsl #14
  e0:	03003412 	movweq	r3, #1042	; 0x412
  e4:	3b0b3a0e 	blcc	2ce924 <__bss_end__+0x2c48dc>
  e8:	0213490b 	andseq	r4, r3, #180224	; 0x2c000
  ec:	13000017 	movwne	r0, #23
  f0:	193f012e 	ldmdbne	pc!, {r1, r2, r3, r5, r8}	; <UNPREDICTABLE>
  f4:	0b3a0e03 	bleq	e83908 <__bss_end__+0xe798c0>
  f8:	19270b3b 	stmdbne	r7!, {r0, r1, r3, r4, r5, r8, r9, fp}
  fc:	06120111 			; <UNDEFINED> instruction: 0x06120111
 100:	42971840 	addsmi	r1, r7, #64, 16	; 0x400000
 104:	00130119 	andseq	r0, r3, r9, lsl r1
 108:	00051400 	andeq	r1, r5, r0, lsl #8
 10c:	0b3a0803 	bleq	e82120 <__bss_end__+0xe780d8>
 110:	13490b3b 	movtne	r0, #39739	; 0x9b3b
 114:	00001802 	andeq	r1, r0, r2, lsl #16
 118:	01828915 	orreq	r8, r2, r5, lsl r9
 11c:	31011101 	tstcc	r1, r1, lsl #2
 120:	16000013 			; <UNDEFINED> instruction: 0x16000013
 124:	0001828a 	andeq	r8, r1, sl, lsl #5
 128:	42911802 	addsmi	r1, r1, #131072	; 0x20000
 12c:	17000018 	smladne	r0, r8, r0, r0
 130:	0e030005 	cdpeq	0, 0, cr0, cr3, cr5, {0}
 134:	0b3b0b3a 	bleq	ec2e24 <__bss_end__+0xeb8ddc>
 138:	17021349 	strne	r1, [r2, -r9, asr #6]
 13c:	2e180000 	cdpcs	0, 1, cr0, cr8, cr0, {0}
 140:	03193f00 	tsteq	r9, #0, 30
 144:	3b0b3a0e 	blcc	2ce984 <__bss_end__+0x2c493c>
 148:	1119270b 	tstne	r9, fp, lsl #14
 14c:	40061201 	andmi	r1, r6, r1, lsl #4
 150:	19429718 	stmdbne	r2, {r3, r4, r8, r9, sl, ip, pc}^
 154:	01000000 	mrseq	r0, (UNDEF: 0)
 158:	0e250111 	mcreq	1, 1, r0, cr5, cr1, {0}
 15c:	0e030b13 	vmoveq.32	d3[0], r0
 160:	0111081b 	tsteq	r1, fp, lsl r8
 164:	17100612 			; <UNDEFINED> instruction: 0x17100612
 168:	04020000 	streq	r0, [r2], #-0
 16c:	0b0b3e01 	bleq	2cf978 <__bss_end__+0x2c5930>
 170:	3a13490b 	bcc	4d25a4 <__bss_end__+0x4c855c>
 174:	010b3b0b 	tsteq	fp, fp, lsl #22
 178:	03000013 	movweq	r0, #19
 17c:	0e030028 	cdpeq	0, 0, cr0, cr3, cr8, {1}
 180:	00000b1c 	andeq	r0, r0, ip, lsl fp
 184:	0b002404 	bleq	919c <gpio_check_event+0x64>
 188:	030b3e0b 	movweq	r3, #48651	; 0xbe0b
 18c:	0500000e 	streq	r0, [r0, #-14]
 190:	0e030104 	adfeqs	f0, f3, f4
 194:	0b0b0b3e 	bleq	2c2e94 <__bss_end__+0x2b8e4c>
 198:	0b3a1349 	bleq	e84ec4 <__bss_end__+0xe7ae7c>
 19c:	13010b3b 	movwne	r0, #6971	; 0x1b3b
 1a0:	16060000 	strne	r0, [r6], -r0
 1a4:	3a0e0300 	bcc	380dac <__bss_end__+0x376d64>
 1a8:	490b3b0b 	stmdbmi	fp, {r0, r1, r3, r8, r9, fp, ip, sp}
 1ac:	07000013 	smladeq	r0, r3, r0, r0
 1b0:	13490035 	movtne	r0, #36917	; 0x9035
 1b4:	24080000 	strcs	r0, [r8], #-0
 1b8:	3e0b0b00 	vmlacc.f64	d0, d11, d0
 1bc:	0008030b 	andeq	r0, r8, fp, lsl #6
 1c0:	01130900 	tsteq	r3, r0, lsl #18
 1c4:	0b0b0e03 	bleq	2c39d8 <__bss_end__+0x2b9990>
 1c8:	0b3b0b3a 	bleq	ec2eb8 <__bss_end__+0xeb8e70>
 1cc:	00001301 	andeq	r1, r0, r1, lsl #6
 1d0:	03000d0a 	movweq	r0, #3338	; 0xd0a
 1d4:	3b0b3a0e 	blcc	2cea14 <__bss_end__+0x2c49cc>
 1d8:	3813490b 	ldmdacc	r3, {r0, r1, r3, r8, fp, lr}
 1dc:	0b00000b 	bleq	210 <_start-0x7df0>
 1e0:	0803000d 	stmdaeq	r3, {r0, r2, r3}
 1e4:	0b3b0b3a 	bleq	ec2ed4 <__bss_end__+0xeb8e8c>
 1e8:	0b381349 	bleq	e04f14 <__bss_end__+0xdfaecc>
 1ec:	010c0000 	mrseq	r0, (UNDEF: 12)
 1f0:	01134901 	tsteq	r3, r1, lsl #18
 1f4:	0d000013 	stceq	0, cr0, [r0, #-76]	; 0xffffffb4
 1f8:	13490021 	movtne	r0, #36897	; 0x9021
 1fc:	00000b2f 	andeq	r0, r0, pc, lsr #22
 200:	0300340e 	movweq	r3, #1038	; 0x40e
 204:	3b0b3a0e 	blcc	2cea44 <__bss_end__+0x2c49fc>
 208:	1c13490b 	ldcne	9, cr4, [r3], {11}
 20c:	0f000006 	svceq	0x00000006
 210:	0b0b000f 	bleq	2c0254 <__bss_end__+0x2b620c>
 214:	00001349 	andeq	r1, r0, r9, asr #6
 218:	49002610 	stmdbmi	r0, {r4, r9, sl, sp}
 21c:	11000013 	tstne	r0, r3, lsl r0
 220:	193f012e 	ldmdbne	pc!, {r1, r2, r3, r5, r8}	; <UNPREDICTABLE>
 224:	0b3a0e03 	bleq	e83a38 <__bss_end__+0xe799f0>
 228:	19270b3b 	stmdbne	r7!, {r0, r1, r3, r4, r5, r8, r9, fp}
 22c:	06120111 			; <UNDEFINED> instruction: 0x06120111
 230:	42971840 	addsmi	r1, r7, #64, 16	; 0x400000
 234:	00130119 	andseq	r0, r3, r9, lsl r1
 238:	00051200 	andeq	r1, r5, r0, lsl #4
 23c:	0b3a0803 	bleq	e82250 <__bss_end__+0xe78208>
 240:	13490b3b 	movtne	r0, #39739	; 0x9b3b
 244:	00001702 	andeq	r1, r0, r2, lsl #14
 248:	01828913 	orreq	r8, r2, r3, lsl r9
 24c:	31011101 	tstcc	r1, r1, lsl #2
 250:	14000013 	strne	r0, [r0], #-19
 254:	0001828a 	andeq	r8, r1, sl, lsl #5
 258:	42911802 	addsmi	r1, r1, #131072	; 0x20000
 25c:	15000018 	strne	r0, [r0, #-24]
 260:	0e03012e 	adfeqsp	f0, f3, #0.5
 264:	0b3b0b3a 	bleq	ec2f54 <__bss_end__+0xeb8f0c>
 268:	01111927 	tsteq	r1, r7, lsr #18
 26c:	18400612 	stmdane	r0, {r1, r4, r9, sl}^
 270:	01194297 			; <UNDEFINED> instruction: 0x01194297
 274:	16000013 			; <UNDEFINED> instruction: 0x16000013
 278:	0e030034 	mcreq	0, 0, r0, cr3, cr4, {1}
 27c:	0b3b0b3a 	bleq	ec2f6c <__bss_end__+0xeb8f24>
 280:	17021349 	strne	r1, [r2, -r9, asr #6]
 284:	0b170000 	bleq	5c028c <__bss_end__+0x5b6244>
 288:	12011101 	andne	r1, r1, #1073741824	; 0x40000000
 28c:	00130106 	andseq	r0, r3, r6, lsl #2
 290:	00341800 	eorseq	r1, r4, r0, lsl #16
 294:	0b3a0803 	bleq	e822a8 <__bss_end__+0xe78260>
 298:	13490b3b 	movtne	r0, #39739	; 0x9b3b
 29c:	00001802 	andeq	r1, r0, r2, lsl #16
 2a0:	11010b19 	tstne	r1, r9, lsl fp
 2a4:	00061201 	andeq	r1, r6, r1, lsl #4
 2a8:	00341a00 	eorseq	r1, r4, r0, lsl #20
 2ac:	0b3a0803 	bleq	e822c0 <__bss_end__+0xe78278>
 2b0:	13490b3b 	movtne	r0, #39739	; 0x9b3b
 2b4:	00001702 	andeq	r1, r0, r2, lsl #14
 2b8:	3f012e1b 	svccc	0x00012e1b
 2bc:	3a0e0319 	bcc	380f28 <__bss_end__+0x376ee0>
 2c0:	270b3b0b 	strcs	r3, [fp, -fp, lsl #22]
 2c4:	11134919 	tstne	r3, r9, lsl r9
 2c8:	40061201 	andmi	r1, r6, r1, lsl #4
 2cc:	19429718 	stmdbne	r2, {r3, r4, r8, r9, sl, ip, pc}^
 2d0:	00001301 	andeq	r1, r0, r1, lsl #6
 2d4:	0182891c 	orreq	r8, r2, ip, lsl r9
 2d8:	31011100 	mrscc	r1, (UNDEF: 17)
 2dc:	1d000013 	stcne	0, cr0, [r0, #-76]	; 0xffffffb4
 2e0:	0e030034 	mcreq	0, 0, r0, cr3, cr4, {1}
 2e4:	0b3b0b3a 	bleq	ec2fd4 <__bss_end__+0xeb8f8c>
 2e8:	18021349 	stmdane	r2, {r0, r3, r6, r8, r9, ip}
 2ec:	051e0000 	ldreq	r0, [lr, #-0]
 2f0:	3a0e0300 	bcc	380ef8 <__bss_end__+0x376eb0>
 2f4:	490b3b0b 	stmdbmi	fp, {r0, r1, r3, r8, r9, fp, ip, sp}
 2f8:	00170213 	andseq	r0, r7, r3, lsl r2
 2fc:	82891f00 	addhi	r1, r9, #0, 30
 300:	01110101 	tsteq	r1, r1, lsl #2
 304:	13011331 	movwne	r1, #4913	; 0x1331
 308:	2e200000 	cdpcs	0, 2, cr0, cr0, cr0, {0}
 30c:	3a0e0301 	bcc	380f18 <__bss_end__+0x376ed0>
 310:	270b3b0b 	strcs	r3, [fp, -fp, lsl #22]
 314:	11134919 	tstne	r3, r9, lsl r9
 318:	40061201 	andmi	r1, r6, r1, lsl #4
 31c:	19429718 	stmdbne	r2, {r3, r4, r8, r9, sl, ip, pc}^
 320:	00001301 	andeq	r1, r0, r1, lsl #6
 324:	49010121 	stmdbmi	r1, {r0, r5, r8}
 328:	00000013 	andeq	r0, r0, r3, lsl r0

Disassembly of section .debug_loc:

00000000 <.debug_loc>:
   0:	0000020c 	andeq	r0, r0, ip, lsl #4
   4:	00000228 	andeq	r0, r0, r8, lsr #4
   8:	28500001 	ldmdacs	r0, {r0}^
   c:	58000002 	stmdapl	r0, {r1}
  10:	04000002 	streq	r0, [r0], #-2
  14:	5001f300 	andpl	pc, r1, r0, lsl #6
  18:	0002589f 	muleq	r2, pc, r8	; <UNPREDICTABLE>
  1c:	00025c00 	andeq	r5, r2, r0, lsl #24
  20:	50000100 	andpl	r0, r0, r0, lsl #2
  24:	0000025c 	andeq	r0, r0, ip, asr r2
  28:	00000260 	andeq	r0, r0, r0, ror #4
  2c:	01f30004 	mvnseq	r0, r4
  30:	00009f50 	andeq	r9, r0, r0, asr pc
  34:	00000000 	andeq	r0, r0, r0
  38:	02240000 	eoreq	r0, r4, #0
  3c:	022c0000 	eoreq	r0, ip, #0
  40:	00010000 	andeq	r0, r1, r0
  44:	00022c53 	andeq	r2, r2, r3, asr ip
  48:	00023000 	andeq	r3, r2, r0
  4c:	73000300 	movwvc	r0, #768	; 0x300
  50:	02309f74 	eorseq	r9, r0, #116, 30	; 0x1d0
  54:	024c0000 	subeq	r0, ip, #0
  58:	00060000 	andeq	r0, r6, r0
  5c:	355001f3 	ldrbcc	r0, [r0, #-499]	; 0x1f3
  60:	00009f25 	andeq	r9, r0, r5, lsr #30
  64:	00000000 	andeq	r0, r0, r0
  68:	02280000 	eoreq	r0, r8, #0
  6c:	02480000 	subeq	r0, r8, #0
  70:	00010000 	andeq	r0, r1, r0
  74:	00024850 	andeq	r4, r2, r0, asr r8
  78:	00024c00 	andeq	r4, r2, r0, lsl #24
  7c:	f3000600 	vmax.u8	d0, d0, d0
  80:	1a4f5001 	bne	13d408c <__bss_end__+0x13ca044>
  84:	0000009f 	muleq	r0, pc, r0	; <UNPREDICTABLE>
  88:	00000000 	andeq	r0, r0, r0
  8c:	00019400 	andeq	r9, r1, r0, lsl #8
  90:	0001b000 	andeq	fp, r1, r0
  94:	50000100 	andpl	r0, r0, r0, lsl #2
  98:	000001b0 			; <UNDEFINED> instruction: 0x000001b0
  9c:	000001fc 	strdeq	r0, [r0], -ip
  a0:	01f30004 	mvnseq	r0, r4
  a4:	00009f50 	andeq	r9, r0, r0, asr pc
  a8:	00000000 	andeq	r0, r0, r0
  ac:	01ac0000 			; <UNDEFINED> instruction: 0x01ac0000
  b0:	01c40000 	biceq	r0, r4, r0
  b4:	00010000 	andeq	r0, r1, r0
  b8:	0001c453 	andeq	ip, r1, r3, asr r4
  bc:	0001cc00 	andeq	ip, r1, r0, lsl #24
  c0:	73000300 	movwvc	r0, #768	; 0x300
  c4:	01d89f76 	bicseq	r9, r8, r6, ror pc
  c8:	01e40000 	mvneq	r0, r0
  cc:	00010000 	andeq	r0, r1, r0
  d0:	0001e453 	andeq	lr, r1, r3, asr r4
  d4:	0001e800 	andeq	lr, r1, r0, lsl #16
  d8:	73000300 	movwvc	r0, #768	; 0x300
  dc:	01e89f7a 	mvneq	r9, sl, ror pc
  e0:	01fc0000 	mvnseq	r0, r0
  e4:	00060000 	andeq	r0, r6, r0
  e8:	355001f3 	ldrbcc	r0, [r0, #-499]	; 0x1f3
  ec:	00009f25 	andeq	r9, r0, r5, lsr #30
  f0:	00000000 	andeq	r0, r0, r0
  f4:	01b00000 	movseq	r0, r0
  f8:	01c00000 	biceq	r0, r0, r0
  fc:	00010000 	andeq	r0, r1, r0
 100:	0001c050 	andeq	ip, r1, r0, asr r0
 104:	0001cc00 	andeq	ip, r1, r0, lsl #24
 108:	f3000600 	vmax.u8	d0, d0, d0
 10c:	1a4f5001 	bne	13d4118 <__bss_end__+0x13ca0d0>
 110:	0001d89f 	muleq	r1, pc, r8	; <UNPREDICTABLE>
 114:	0001e000 	andeq	lr, r1, r0
 118:	50000100 	andpl	r0, r0, r0, lsl #2
 11c:	000001e0 	andeq	r0, r0, r0, ror #3
 120:	000001fc 	strdeq	r0, [r0], -ip
 124:	01f30006 	mvnseq	r0, r6
 128:	9f1a4f50 	svcls	0x001a4f50
	...
 134:	00000164 	andeq	r0, r0, r4, ror #2
 138:	00000177 	andeq	r0, r0, r7, ror r1
 13c:	77500001 	ldrbvc	r0, [r0, -r1]
 140:	84000001 	strhi	r0, [r0], #-1
 144:	04000001 	streq	r0, [r0], #-1
 148:	5001f300 	andpl	pc, r1, r0, lsl #6
 14c:	0000009f 	muleq	r0, pc, r0	; <UNPREDICTABLE>
 150:	00000000 	andeq	r0, r0, r0
 154:	00013000 	andeq	r3, r1, r0
 158:	00014300 	andeq	r4, r1, r0, lsl #6
 15c:	50000100 	andpl	r0, r0, r0, lsl #2
 160:	00000143 	andeq	r0, r0, r3, asr #2
 164:	00000150 	andeq	r0, r0, r0, asr r1
 168:	01f30004 	mvnseq	r0, r4
 16c:	00009f50 	andeq	r9, r0, r0, asr pc
 170:	00000000 	andeq	r0, r0, r0
 174:	00c00000 	sbceq	r0, r0, r0
 178:	00f80000 	rscseq	r0, r8, r0
 17c:	00010000 	andeq	r0, r1, r0
 180:	0000f850 	andeq	pc, r0, r0, asr r8	; <UNPREDICTABLE>
 184:	00010c00 	andeq	r0, r1, r0, lsl #24
 188:	f3000400 	vshl.u8	d0, d0, d0
 18c:	0c9f5001 	ldceq	0, cr5, [pc], {1}
 190:	10000001 	andne	r0, r0, r1
 194:	01000001 	tsteq	r0, r1
 198:	01105000 	tsteq	r0, r0
 19c:	011c0000 	tsteq	ip, r0
 1a0:	00040000 	andeq	r0, r4, r0
 1a4:	9f5001f3 	svcls	0x005001f3
	...
 1b0:	000000e0 	andeq	r0, r0, r0, ror #1
 1b4:	00000100 	andeq	r0, r0, r0, lsl #2
 1b8:	00520001 	subseq	r0, r2, r1
 1bc:	00000000 	andeq	r0, r0, r0
 1c0:	f0000000 			; <UNDEFINED> instruction: 0xf0000000
 1c4:	fc000000 	stc2	0, cr0, [r0], {-0}
 1c8:	01000000 	mrseq	r0, (UNDEF: 0)
 1cc:	00fc5300 	rscseq	r5, ip, r0, lsl #6
 1d0:	01000000 	mrseq	r0, (UNDEF: 0)
 1d4:	00100000 	andseq	r0, r0, r0
 1d8:	725001f3 	subsvc	r0, r0, #-1073741764	; 0xc000003c
 1dc:	72243200 	eorvc	r3, r4, #0, 4
 1e0:	24312200 	ldrtcs	r2, [r1], #-512	; 0x200
 1e4:	9f1e331c 	svcls	0x001e331c
	...
 1f0:	00000040 	andeq	r0, r0, r0, asr #32
 1f4:	00000080 	andeq	r0, r0, r0, lsl #1
 1f8:	80500001 	subshi	r0, r0, r1
 1fc:	a8000000 	stmdage	r0, {}	; <UNPREDICTABLE>
 200:	04000000 	streq	r0, [r0], #-0
 204:	5001f300 	andpl	pc, r1, r0, lsl #6
 208:	0000009f 	muleq	r0, pc, r0	; <UNPREDICTABLE>
 20c:	00000000 	andeq	r0, r0, r0
 210:	00004000 	andeq	r4, r0, r0
 214:	00008c00 	andeq	r8, r0, r0, lsl #24
 218:	51000100 	mrspl	r0, (UNDEF: 16)
 21c:	0000008c 	andeq	r0, r0, ip, lsl #1
 220:	000000a8 	andeq	r0, r0, r8, lsr #1
 224:	01f30004 	mvnseq	r0, r4
 228:	00009f51 	andeq	r9, r0, r1, asr pc
 22c:	00000000 	andeq	r0, r0, r0
 230:	00680000 	rsbeq	r0, r8, r0
 234:	00940000 	addseq	r0, r4, r0
 238:	00010000 	andeq	r0, r1, r0
 23c:	00000052 	andeq	r0, r0, r2, asr r0
 240:	00000000 	andeq	r0, r0, r0
 244:	00007800 	andeq	r7, r0, r0, lsl #16
 248:	00009000 	andeq	r9, r0, r0
 24c:	53000100 	movwpl	r0, #256	; 0x100
 250:	00000090 	muleq	r0, r0, r0
 254:	00000094 	muleq	r0, r4, r0
 258:	01f30010 	mvnseq	r0, r0, lsl r0
 25c:	32007250 	andcc	r7, r0, #80, 4
 260:	22007224 	andcs	r7, r0, #36, 4	; 0x40000002
 264:	331c2431 	tstcc	ip, #822083584	; 0x31000000
 268:	00009f1e 	andeq	r9, r0, lr, lsl pc
 26c:	00000000 	andeq	r0, r0, r0
 270:	04f80000 	ldrbteq	r0, [r8], #0
 274:	050b0000 	streq	r0, [fp, #-0]
 278:	00010000 	andeq	r0, r1, r0
 27c:	00050b50 	andeq	r0, r5, r0, asr fp
 280:	00051800 	andeq	r1, r5, r0, lsl #16
 284:	f3000400 	vshl.u8	d0, d0, d0
 288:	009f5001 	addseq	r5, pc, r1
 28c:	00000000 	andeq	r0, r0, r0
 290:	c0000000 	andgt	r0, r0, r0
 294:	d3000004 	movwle	r0, #4
 298:	01000004 	tsteq	r0, r4
 29c:	04d35000 	ldrbeq	r5, [r3], #0
 2a0:	04e00000 	strbteq	r0, [r0], #0
 2a4:	00040000 	andeq	r0, r4, r0
 2a8:	9f5001f3 	svcls	0x005001f3
	...
 2b4:	00000488 	andeq	r0, r0, r8, lsl #9
 2b8:	0000049b 	muleq	r0, fp, r4
 2bc:	9b500001 	blls	14002c8 <__bss_end__+0x13f6280>
 2c0:	a8000004 	stmdage	r0, {r2}
 2c4:	04000004 	streq	r0, [r0], #-4
 2c8:	5001f300 	andpl	pc, r1, r0, lsl #6
 2cc:	0000009f 	muleq	r0, pc, r0	; <UNPREDICTABLE>
 2d0:	00000000 	andeq	r0, r0, r0
 2d4:	00008400 	andeq	r8, r0, r0, lsl #8
 2d8:	0000a400 	andeq	sl, r0, r0, lsl #8
 2dc:	50000100 	andpl	r0, r0, r0, lsl #2
 2e0:	000000a4 	andeq	r0, r0, r4, lsr #1
 2e4:	00000128 	andeq	r0, r0, r8, lsr #2
 2e8:	01f30004 	mvnseq	r0, r4
 2ec:	00009f50 	andeq	r9, r0, r0, asr pc
 2f0:	00000000 	andeq	r0, r0, r0
 2f4:	00840000 	addeq	r0, r4, r0
 2f8:	00e00000 	rsceq	r0, r0, r0
 2fc:	00010000 	andeq	r0, r1, r0
 300:	0000e051 	andeq	lr, r0, r1, asr r0
 304:	00012800 	andeq	r2, r1, r0, lsl #16
 308:	f3000400 	vshl.u8	d0, d0, d0
 30c:	009f5101 	addseq	r5, pc, r1, lsl #2
 310:	00000000 	andeq	r0, r0, r0
 314:	a0000000 	andge	r0, r0, r0
 318:	0c000000 	stceq	0, cr0, [r0], {-0}
 31c:	01000001 	tsteq	r0, r1
 320:	010c5200 	mrseq	r5, R12_fiq
 324:	01180000 	tsteq	r8, r0
 328:	00030000 	andeq	r0, r3, r0
 32c:	009f5a72 	addseq	r5, pc, r2, ror sl	; <UNPREDICTABLE>
 330:	00000000 	andeq	r0, r0, r0
 334:	a4000000 	strge	r0, [r0], #-0
 338:	d8000000 	stmdale	r0, {}	; <UNPREDICTABLE>
 33c:	01000000 	mrseq	r0, (UNDEF: 0)
 340:	00d85000 	sbcseq	r5, r8, r0
 344:	01180000 	tsteq	r8, r0
 348:	00060000 	andeq	r0, r6, r0
 34c:	4f5001f3 	svcmi	0x005001f3
 350:	00009f1a 	andeq	r9, r0, sl, lsl pc
 354:	00000000 	andeq	r0, r0, r0
 358:	04240000 	strteq	r0, [r4], #-0
 35c:	04440000 	strbeq	r0, [r4], #-0
 360:	00010000 	andeq	r0, r1, r0
 364:	00044450 	andeq	r4, r4, r0, asr r4
 368:	00047000 	andeq	r7, r4, r0
 36c:	55000100 	strpl	r0, [r0, #-256]	; 0x100
 370:	00000470 	andeq	r0, r0, r0, ror r4
 374:	00000474 	andeq	r0, r0, r4, ror r4
 378:	01f30004 	mvnseq	r0, r4
 37c:	00009f50 	andeq	r9, r0, r0, asr pc
 380:	00000000 	andeq	r0, r0, r0
 384:	04440000 	strbeq	r0, [r4], #-0
 388:	04680000 	strbteq	r0, [r8], #-0
 38c:	00010000 	andeq	r0, r1, r0
 390:	00000054 	andeq	r0, r0, r4, asr r0
 394:	00000000 	andeq	r0, r0, r0
 398:	0003b800 	andeq	fp, r3, r0, lsl #16
 39c:	0003d400 	andeq	sp, r3, r0, lsl #8
 3a0:	50000100 	andpl	r0, r0, r0, lsl #2
 3a4:	000003d4 	ldrdeq	r0, [r0], -r4
 3a8:	000003e0 	andeq	r0, r0, r0, ror #7
 3ac:	e0540001 	subs	r0, r4, r1
 3b0:	e4000003 	str	r0, [r0], #-3
 3b4:	04000003 	streq	r0, [r0], #-3
 3b8:	5001f300 	andpl	pc, r1, r0, lsl #6
 3bc:	0003e49f 	muleq	r3, pc, r4	; <UNPREDICTABLE>
 3c0:	0003e700 	andeq	lr, r3, r0, lsl #14
 3c4:	50000100 	andpl	r0, r0, r0, lsl #2
 3c8:	000003e7 	andeq	r0, r0, r7, ror #7
 3cc:	000003fc 	strdeq	r0, [r0], -ip
 3d0:	00540001 	subseq	r0, r4, r1
 3d4:	00000000 	andeq	r0, r0, r0
 3d8:	e8000000 	stmda	r0, {}	; <UNPREDICTABLE>
 3dc:	f4000003 	vst4.8	{d0-d3}, [r0], r3
 3e0:	01000003 	tsteq	r0, r3
 3e4:	00005000 	andeq	r5, r0, r0
 3e8:	00000000 	andeq	r0, r0, r0
 3ec:	022c0000 	eoreq	r0, ip, #0
 3f0:	02400000 	subeq	r0, r0, #0
 3f4:	00010000 	andeq	r0, r1, r0
 3f8:	00024050 	andeq	r4, r2, r0, asr r0
 3fc:	00024c00 	andeq	r4, r2, r0, lsl #24
 400:	f3000400 	vshl.u8	d0, d0, d0
 404:	4c9f5001 	ldcmi	0, cr5, [pc], {1}
 408:	57000002 	strpl	r0, [r0, -r2]
 40c:	01000002 	tsteq	r0, r2
 410:	02575000 	subseq	r5, r7, #0
 414:	027c0000 	rsbseq	r0, ip, #0
 418:	00040000 	andeq	r0, r4, r0
 41c:	9f5001f3 	svcls	0x005001f3
	...
 428:	00000250 	andeq	r0, r0, r0, asr r2
 42c:	0000026c 	andeq	r0, r0, ip, ror #4
 430:	6c540001 	mrrcvs	0, 0, r0, r4, cr1
 434:	7c000002 	stcvc	0, cr0, [r0], {2}
 438:	03000002 	movweq	r0, #2
 43c:	9f707400 	svcls	0x00707400
	...
 448:	000001c4 	andeq	r0, r0, r4, asr #3
 44c:	000001e0 	andeq	r0, r0, r0, ror #3
 450:	e0500001 	subs	r0, r0, r1
 454:	08000001 	stmdaeq	r0, {r0}
 458:	04000002 	streq	r0, [r0], #-2
 45c:	5001f300 	andpl	pc, r1, r0, lsl #6
 460:	0002089f 	muleq	r2, pc, r8	; <UNPREDICTABLE>
 464:	00020c00 	andeq	r0, r2, r0, lsl #24
 468:	50000100 	andpl	r0, r0, r0, lsl #2
 46c:	0000020c 	andeq	r0, r0, ip, lsl #4
 470:	00000214 	andeq	r0, r0, r4, lsl r2
 474:	01f30004 	mvnseq	r0, r4
 478:	00009f50 	andeq	r9, r0, r0, asr pc
 47c:	00000000 	andeq	r0, r0, r0
 480:	01dc0000 	bicseq	r0, ip, r0
 484:	01e40000 	mvneq	r0, r0
 488:	00010000 	andeq	r0, r1, r0
 48c:	0001e453 	andeq	lr, r1, r3, asr r4
 490:	0001ec00 	andeq	lr, r1, r0, lsl #24
 494:	73000300 	movwvc	r0, #768	; 0x300
 498:	01ec9f70 	mvneq	r9, r0, ror pc
 49c:	01fc0000 	mvnseq	r0, r0
 4a0:	00060000 	andeq	r0, r6, r0
 4a4:	355001f3 	ldrbcc	r0, [r0, #-499]	; 0x1f3
 4a8:	00009f25 	andeq	r9, r0, r5, lsr #30
 4ac:	00000000 	andeq	r0, r0, r0
 4b0:	01e00000 	mvneq	r0, r0
 4b4:	01f80000 	mvnseq	r0, r0
 4b8:	00010000 	andeq	r0, r1, r0
 4bc:	0001f850 	andeq	pc, r1, r0, asr r8	; <UNPREDICTABLE>
 4c0:	0001fc00 	andeq	pc, r1, r0, lsl #24
 4c4:	f3000600 	vmax.u8	d0, d0, d0
 4c8:	1a4f5001 	bne	13d44d4 <__bss_end__+0x13ca48c>
 4cc:	0000009f 	muleq	r0, pc, r0	; <UNPREDICTABLE>
 4d0:	00000000 	andeq	r0, r0, r0
 4d4:	00037800 	andeq	r7, r3, r0, lsl #16
 4d8:	00038b00 	andeq	r8, r3, r0, lsl #22
 4dc:	50000100 	andpl	r0, r0, r0, lsl #2
 4e0:	0000038b 	andeq	r0, r0, fp, lsl #7
 4e4:	00000398 	muleq	r0, r8, r3
 4e8:	01f30004 	mvnseq	r0, r4
 4ec:	00009f50 	andeq	r9, r0, r0, asr pc
 4f0:	00000000 	andeq	r0, r0, r0
 4f4:	03780000 	cmneq	r8, #0
 4f8:	038b0000 	orreq	r0, fp, #0
 4fc:	00010000 	andeq	r0, r1, r0
 500:	00038b51 	andeq	r8, r3, r1, asr fp
 504:	00039800 	andeq	r9, r3, r0, lsl #16
 508:	f3000400 	vshl.u8	d0, d0, d0
 50c:	009f5101 	addseq	r5, pc, r1, lsl #2
 510:	00000000 	andeq	r0, r0, r0
 514:	38000000 	stmdacc	r0, {}	; <UNPREDICTABLE>
 518:	4b000003 	blmi	52c <_start-0x7ad4>
 51c:	01000003 	tsteq	r0, r3
 520:	034b5000 	movteq	r5, #45056	; 0xb000
 524:	03580000 	cmpeq	r8, #0
 528:	00040000 	andeq	r0, r4, r0
 52c:	9f5001f3 	svcls	0x005001f3
	...
 538:	00000338 	andeq	r0, r0, r8, lsr r3
 53c:	0000034b 	andeq	r0, r0, fp, asr #6
 540:	4b510001 	blmi	144054c <__bss_end__+0x1436504>
 544:	58000003 	stmdapl	r0, {r0, r1}
 548:	04000003 	streq	r0, [r0], #-3
 54c:	5101f300 	mrspl	pc, SP_irq	; <UNPREDICTABLE>
 550:	0000009f 	muleq	r0, pc, r0	; <UNPREDICTABLE>
 554:	00000000 	andeq	r0, r0, r0
 558:	00014800 	andeq	r4, r1, r0, lsl #16
 55c:	00015c00 	andeq	r5, r1, r0, lsl #24
 560:	50000100 	andpl	r0, r0, r0, lsl #2
 564:	0000015c 	andeq	r0, r0, ip, asr r1
 568:	00000184 	andeq	r0, r0, r4, lsl #3
 56c:	84540001 	ldrbhi	r0, [r4], #-1
 570:	a4000001 	strge	r0, [r0], #-1
 574:	04000001 	streq	r0, [r0], #-1
 578:	5001f300 	andpl	pc, r1, r0, lsl #6
 57c:	0001a49f 	muleq	r1, pc, r4	; <UNPREDICTABLE>
 580:	0001ac00 	andeq	sl, r1, r0, lsl #24
 584:	54000100 	strpl	r0, [r0], #-256	; 0x100
	...
 590:	00000148 	andeq	r0, r0, r8, asr #2
 594:	0000015f 	andeq	r0, r0, pc, asr r1
 598:	5f510001 	svcpl	0x00510001
 59c:	ac000001 	stcge	0, cr0, [r0], {1}
 5a0:	04000001 	streq	r0, [r0], #-1
 5a4:	5101f300 	mrspl	pc, SP_irq	; <UNPREDICTABLE>
 5a8:	0000009f 	muleq	r0, pc, r0	; <UNPREDICTABLE>
 5ac:	00000000 	andeq	r0, r0, r0
 5b0:	00016000 	andeq	r6, r1, r0
 5b4:	00016800 	andeq	r6, r1, r0, lsl #16
 5b8:	50000100 	andpl	r0, r0, r0, lsl #2
 5bc:	00000168 	andeq	r0, r0, r8, ror #2
 5c0:	00000188 	andeq	r0, r0, r8, lsl #3
 5c4:	a4530001 	ldrbge	r0, [r3], #-1
 5c8:	ac000001 	stcge	0, cr0, [r0], {1}
 5cc:	01000001 	tsteq	r0, r1
 5d0:	00005300 	andeq	r5, r0, r0, lsl #6
 5d4:	00000000 	andeq	r0, r0, r0
 5d8:	01800000 	orreq	r0, r0, r0
 5dc:	018c0000 	orreq	r0, ip, r0
 5e0:	00010000 	andeq	r0, r1, r0
 5e4:	00018c52 	andeq	r8, r1, r2, asr ip
 5e8:	00019800 	andeq	r9, r1, r0, lsl #16
 5ec:	f3000600 	vmax.u8	d0, d0, d0
 5f0:	25355001 	ldrcs	r5, [r5, #-1]!
 5f4:	0000009f 	muleq	r0, pc, r0	; <UNPREDICTABLE>
 5f8:	00000000 	andeq	r0, r0, r0
 5fc:	00018400 	andeq	r8, r1, r0, lsl #8
 600:	00019800 	andeq	r9, r1, r0, lsl #16
 604:	54000100 	strpl	r0, [r0], #-256	; 0x100
	...
 610:	00000294 	muleq	r0, r4, r2
 614:	000002ac 	andeq	r0, r0, ip, lsr #5
 618:	ac500001 	mrrcge	0, 0, r0, r0, cr1	; <UNPREDICTABLE>
 61c:	fc000002 	stc2	0, cr0, [r0], {2}
 620:	01000002 	tsteq	r0, r2
 624:	02fc5400 	rscseq	r5, ip, #0, 8
 628:	03000000 	movweq	r0, #0
 62c:	00040000 	andeq	r0, r4, r0
 630:	9f5001f3 	svcls	0x005001f3
 634:	00000300 	andeq	r0, r0, r0, lsl #6
 638:	00000314 	andeq	r0, r0, r4, lsl r3
 63c:	00540001 	subseq	r0, r4, r1
 640:	00000000 	andeq	r0, r0, r0
 644:	94000000 	strls	r0, [r0], #-0
 648:	af000002 	svcge	0x00000002
 64c:	01000002 	tsteq	r0, r2
 650:	02af5100 	adceq	r5, pc, #0, 2
 654:	03140000 	tsteq	r4, #0
 658:	00040000 	andeq	r0, r4, r0
 65c:	9f5101f3 	svcls	0x005101f3
	...
 668:	00000294 	muleq	r0, r4, r2
 66c:	000002af 	andeq	r0, r0, pc, lsr #5
 670:	af520001 	svcge	0x00520001
 674:	fc000002 	stc2	0, cr0, [r0], {2}
 678:	01000002 	tsteq	r0, r2
 67c:	02fc5500 	rscseq	r5, ip, #0, 10
 680:	03000000 	movweq	r0, #0
 684:	00040000 	andeq	r0, r4, r0
 688:	9f5201f3 	svcls	0x005201f3
 68c:	00000300 	andeq	r0, r0, r0, lsl #6
 690:	00000314 	andeq	r0, r0, r4, lsl r3
 694:	00550001 	subseq	r0, r5, r1
 698:	00000000 	andeq	r0, r0, r0
 69c:	b0000000 	andlt	r0, r0, r0
 6a0:	b8000002 	stmdalt	r0, {r1}
 6a4:	01000002 	tsteq	r0, r2
 6a8:	02b85000 	adcseq	r5, r8, #0
 6ac:	02f30000 	rscseq	r0, r3, #0
 6b0:	00010000 	andeq	r0, r1, r0
 6b4:	00030053 	andeq	r0, r3, r3, asr r0
 6b8:	00031400 	andeq	r1, r3, r0, lsl #8
 6bc:	53000100 	movwpl	r0, #256	; 0x100
	...
 6c8:	000002d0 	ldrdeq	r0, [r0], -r0	; <UNPREDICTABLE>
 6cc:	000002f3 	strdeq	r0, [r0], -r3
 6d0:	f3520001 	vhadd.u16	d16, d2, d1
 6d4:	f4000002 	vst4.8	{d0-d3}, [r0], r2
 6d8:	05000002 	streq	r0, [r0, #-2]
 6dc:	35007400 	strcc	r7, [r0, #-1024]	; 0x400
 6e0:	03009f25 	movweq	r9, #3877	; 0xf25
 6e4:	03140000 	tsteq	r4, #0
 6e8:	00010000 	andeq	r0, r1, r0
 6ec:	00000052 	andeq	r0, r0, r2, asr r0
 6f0:	00000000 	andeq	r0, r0, r0
 6f4:	0002d400 	andeq	sp, r2, r0, lsl #8
 6f8:	0002f000 	andeq	pc, r2, r0
 6fc:	50000100 	andpl	r0, r0, r0, lsl #2
 700:	000002f0 	strdeq	r0, [r0], -r0	; <UNPREDICTABLE>
 704:	000002f4 	strdeq	r0, [r0], -r4
 708:	00740005 	rsbseq	r0, r4, r5
 70c:	009f1a4f 	addseq	r1, pc, pc, asr #20
 710:	14000003 	strne	r0, [r0], #-3
 714:	01000003 	tsteq	r0, r3
 718:	00005000 	andeq	r5, r0, r0
 71c:	00000000 	andeq	r0, r0, r0
 720:	00180000 	andseq	r0, r8, r0
 724:	00380000 	eorseq	r0, r8, r0
 728:	00010000 	andeq	r0, r1, r0
 72c:	00003850 	andeq	r3, r0, r0, asr r8
 730:	00005400 	andeq	r5, r0, r0, lsl #8
 734:	54000100 	strpl	r0, [r0], #-256	; 0x100
 738:	00000054 	andeq	r0, r0, r4, asr r0
 73c:	00000064 	andeq	r0, r0, r4, rrx
 740:	01f30004 	mvnseq	r0, r4
 744:	00649f50 	rsbeq	r9, r4, r0, asr pc
 748:	00700000 	rsbseq	r0, r0, r0
 74c:	00010000 	andeq	r0, r1, r0
 750:	00000054 	andeq	r0, r0, r4, asr r0
 754:	00000000 	andeq	r0, r0, r0
	...

Disassembly of section .debug_aranges:

00000000 <.debug_aranges>:
   0:	0000001c 	andeq	r0, r0, ip, lsl r0
   4:	00000002 	andeq	r0, r0, r2
   8:	00040000 	andeq	r0, r4, r0
   c:	00000000 	andeq	r0, r0, r0
  10:	00008d14 	andeq	r8, r0, r4, lsl sp
  14:	00000260 	andeq	r0, r0, r0, ror #4
	...
  20:	0000001c 	andeq	r0, r0, ip, lsl r0
  24:	05340002 	ldreq	r0, [r4, #-2]!
  28:	00040000 	andeq	r0, r4, r0
  2c:	00000000 	andeq	r0, r0, r0
  30:	00008f74 	andeq	r8, r0, r4, ror pc
  34:	00000518 	andeq	r0, r0, r8, lsl r5
	...

Disassembly of section .debug_line:

00000000 <.debug_line>:
   0:	000000b7 	strheq	r0, [r0], -r7
   4:	00730002 	rsbseq	r0, r3, r2
   8:	01020000 	mrseq	r0, (UNDEF: 2)
   c:	000d0efb 	strdeq	r0, [sp], -fp
  10:	01010101 	tsteq	r1, r1, lsl #2
  14:	01000000 	mrseq	r0, (UNDEF: 0)
  18:	2f010000 	svccs	0x00010000
  1c:	2f727375 	svccs	0x00727375
  20:	2f62696c 	svccs	0x0062696c
  24:	2f636367 	svccs	0x00636367
  28:	2d6d7261 	sfmcs	f7, 2, [sp, #-388]!	; 0xfffffe7c
  2c:	656e6f6e 	strbvs	r6, [lr, #-3950]!	; 0xf6e
  30:	6261652d 	rsbvs	r6, r1, #188743680	; 0xb400000
  34:	2e372f69 	cdpcs	15, 3, cr2, cr7, cr9, {3}
  38:	2f312e32 	svccs	0x00312e32
  3c:	6c636e69 	stclvs	14, cr6, [r3], #-420	; 0xfffffe5c
  40:	00656475 	rsbeq	r6, r5, r5, ror r4
  44:	69706700 	ldmdbvs	r0!, {r8, r9, sl, sp, lr}^
  48:	00632e6f 	rsbeq	r2, r3, pc, ror #28
  4c:	67000000 	strvs	r0, [r0, -r0]
  50:	2e6f6970 	mcrcs	9, 3, r6, cr15, cr0, {3}
  54:	00000068 	andeq	r0, r0, r8, rrx
  58:	70675f00 	rsbvc	r5, r7, r0, lsl #30
  5c:	705f6f69 	subsvc	r6, pc, r9, ror #30
  60:	61766972 	cmnvs	r6, r2, ror r9
  64:	682e6574 	stmdavs	lr!, {r2, r4, r5, r6, r8, sl, sp, lr}
  68:	00000000 	andeq	r0, r0, r0
  6c:	69647473 	stmdbvs	r4!, {r0, r1, r4, r5, r6, sl, ip, sp, lr}^
  70:	672d746e 	strvs	r7, [sp, -lr, ror #8]!
  74:	682e6363 	stmdavs	lr!, {r0, r1, r5, r6, r8, r9, sp, lr}
  78:	00000100 	andeq	r0, r0, r0, lsl #2
  7c:	02050000 	andeq	r0, r5, #0
  80:	00008d24 	andeq	r8, r0, r4, lsr #26
  84:	66011f03 	strvs	r1, [r1], -r3, lsl #30
  88:	4d672308 	stclmi	3, cr2, [r7, #-32]!	; 0xffffffe0
  8c:	d784674e 	strle	r6, [r4, lr, asr #14]
  90:	4e675b08 	vmulmi.f64	d21, d7, d8
  94:	03838467 	orreq	r8, r3, #1728053248	; 0x67000000
  98:	0a036679 	beq	d9a84 <__bss_end__+0xcfa3c>
  9c:	4b672008 	blmi	19c80c4 <__bss_end__+0x19be07c>
  a0:	d94b67f5 	stmdble	fp, {r0, r2, r4, r5, r6, r7, r8, r9, sl, sp, lr}^
  a4:	302f4e67 	eorcc	r4, pc, r7, ror #28
  a8:	0862a04d 	stmdaeq	r2!, {r0, r2, r3, r6, sp, pc}^
  ac:	2f4e6797 	svccs	0x004e6797
  b0:	03210830 	teqeq	r1, #48, 16	; 0x300000
  b4:	04026679 	streq	r6, [r2], #-1657	; 0x679
  b8:	34010100 	strcc	r0, [r1], #-256	; 0x100
  bc:	02000001 	andeq	r0, r0, #1
  c0:	00008700 	andeq	r8, r0, r0, lsl #14
  c4:	fb010200 	blx	408ce <__bss_end__+0x36886>
  c8:	01000d0e 	tsteq	r0, lr, lsl #26
  cc:	00010101 	andeq	r0, r1, r1, lsl #2
  d0:	00010000 	andeq	r0, r1, r0
  d4:	752f0100 	strvc	r0, [pc, #-256]!	; ffffffdc <__bss_end__+0xffff5f94>
  d8:	6c2f7273 	sfmvs	f7, 4, [pc], #-460	; ffffff14 <__bss_end__+0xffff5ecc>
  dc:	672f6269 	strvs	r6, [pc, -r9, ror #4]!
  e0:	612f6363 	teqvs	pc, r3, ror #6
  e4:	6e2d6d72 	mcrvs	13, 1, r6, cr13, cr2, {3}
  e8:	2d656e6f 	stclcs	14, cr6, [r5, #-444]!	; 0xfffffe44
  ec:	69626165 	stmdbvs	r2!, {r0, r2, r5, r6, r8, sp, lr}^
  f0:	322e372f 	eorcc	r3, lr, #12320768	; 0xbc0000
  f4:	692f312e 	stmdbvs	pc!, {r1, r2, r3, r5, r8, ip, sp}	; <UNPREDICTABLE>
  f8:	756c636e 	strbvc	r6, [ip, #-878]!	; 0x36e
  fc:	00006564 	andeq	r6, r0, r4, ror #10
 100:	6f697067 	svcvs	0x00697067
 104:	72747865 	rsbsvc	r7, r4, #6619136	; 0x650000
 108:	00632e61 	rsbeq	r2, r3, r1, ror #28
 10c:	5f000000 	svcpl	0x00000000
 110:	6f697067 	svcvs	0x00697067
 114:	6972705f 	ldmdbvs	r2!, {r0, r1, r2, r3, r4, r6, ip, sp, lr}^
 118:	65746176 	ldrbvs	r6, [r4, #-374]!	; 0x176
 11c:	0000682e 	andeq	r6, r0, lr, lsr #16
 120:	70670000 	rsbvc	r0, r7, r0
 124:	682e6f69 	stmdavs	lr!, {r0, r3, r5, r6, r8, r9, sl, fp, sp, lr}
 128:	00000000 	andeq	r0, r0, r0
 12c:	6f697067 	svcvs	0x00697067
 130:	72747865 	rsbsvc	r7, r4, #6619136	; 0x650000
 134:	00682e61 	rsbeq	r2, r8, r1, ror #28
 138:	73000000 	movwvc	r0, #0
 13c:	6e696474 	mcrvs	4, 3, r6, cr9, cr4, {3}
 140:	63672d74 	cmnvs	r7, #116, 26	; 0x1d00
 144:	00682e63 	rsbeq	r2, r8, r3, ror #28
 148:	00000001 	andeq	r0, r0, r1
 14c:	8c020500 	cfstr32hi	mvfx0, [r2], {-0}
 150:	0300008f 	movweq	r0, #143	; 0x8f
 154:	bc9f0118 	ldflts	f0, [pc], {24}
 158:	0364674b 	cmneq	r4, #19660800	; 0x12c0000
 15c:	83f200ed 	mvnshi	r0, #237	; 0xed
 160:	4b302f4e 	blmi	c0bea0 <__bss_end__+0xc01e58>
 164:	03040200 	movweq	r0, #16896	; 0x4200
 168:	02006606 	andeq	r6, r0, #6291456	; 0x600000
 16c:	06660104 	strbteq	r0, [r6], -r4, lsl #2
 170:	02009f68 	andeq	r9, r0, #104, 30	; 0x1a0
 174:	66060304 	strvs	r0, [r6], -r4, lsl #6
 178:	01040200 	mrseq	r0, R12_usr
 17c:	83680666 	cmnhi	r8, #106954752	; 0x6600000
 180:	087f9a03 	ldmdaeq	pc!, {r0, r1, r9, fp, ip, pc}^	; <UNPREDICTABLE>
 184:	da4c8374 	ble	1320f5c <__bss_end__+0x1316f14>
 188:	039f2f2f 	orrseq	r2, pc, #47, 30	; 0xbc
 18c:	1303667a 	movwne	r6, #13946	; 0x367a
 190:	2f4e67f2 	svccs	0x004e67f2
 194:	7a03d72f 	bvc	f5e58 <__bss_end__+0xebe10>
 198:	08090366 	stmdaeq	r9, {r1, r2, r5, r6, r8, r9}
 19c:	62526720 	subsvs	r6, r2, #32, 14	; 0x800000
 1a0:	03672f2f 	cmneq	r7, #47, 30	; 0xbc
 1a4:	9f900845 	svcls	0x00900845
 1a8:	2f2fda4c 	svccs	0x002fda4c
 1ac:	644b854b 	strbvs	r8, [fp], #-1355	; 0x54b
 1b0:	ac081203 	sfmge	f1, 4, [r8], {3}
 1b4:	5b084b67 	blpl	212f58 <__bss_end__+0x208f10>
 1b8:	1a034b67 	bne	d2f5c <__bss_end__+0xc8f14>
 1bc:	4b835808 	blmi	fe0d61e4 <__bss_end__+0xfe0cc19c>
 1c0:	002f7f34 	eoreq	r7, pc, r4, lsr pc	; <UNPREDICTABLE>
 1c4:	06010402 	streq	r0, [r1], -r2, lsl #8
 1c8:	9508064a 	strls	r0, [r8, #-1610]	; 0x64a
 1cc:	02004d83 	andeq	r4, r0, #8384	; 0x20c0
 1d0:	004b0304 	subeq	r0, fp, r4, lsl #6
 1d4:	81030402 	tsthi	r3, r2, lsl #8
 1d8:	01040200 	mrseq	r0, R12_usr
 1dc:	4c062e06 	stcmi	14, cr2, [r6], {6}
 1e0:	f229034b 	vcgt.s32	q0, <illegal reg q4.5>, <illegal reg q5.5>
 1e4:	23084b67 	movwcs	r4, #35687	; 0x8b67
 1e8:	23084b67 	movwcs	r4, #35687	; 0x8b67
 1ec:	06024b67 	streq	r4, [r2], -r7, ror #22
 1f0:	Address 0x00000000000001f0 is out of bounds.


Disassembly of section .debug_str:

00000000 <.debug_str>:
   0:	4f495047 	svcmi	0x00495047
   4:	4e55465f 	mrcmi	6, 2, r4, cr5, cr15, {2}
   8:	4c415f43 	mcrrmi	15, 4, r5, r1, cr3
   c:	61003154 	tstvs	r0, r4, asr r1
  10:	006e6572 	rsbeq	r6, lr, r2, ror r5
  14:	726f6873 	rsbvc	r6, pc, #7536640	; 0x730000
  18:	6e692074 	mcrvs	0, 3, r2, cr9, cr4, {3}
  1c:	50470074 	subpl	r0, r7, r4, ror r0
  20:	465f4f49 	ldrbmi	r4, [pc], -r9, asr #30
  24:	5f434e55 	svcpl	0x00434e55
  28:	5054554f 	subspl	r5, r4, pc, asr #10
  2c:	67005455 	smlsdvs	r0, r5, r4, r5
  30:	5f6f6970 	svcpl	0x006f6970
  34:	5f746573 	svcpl	0x00746573
  38:	7074756f 	rsbsvc	r7, r4, pc, ror #10
  3c:	47007475 	smlsdxmi	r0, r5, r4, r7
  40:	5f4f4950 	svcpl	0x004f4950
  44:	334e4950 	movtcc	r4, #59728	; 0xe950
  48:	50470030 	subpl	r0, r7, r0, lsr r0
  4c:	505f4f49 	subspl	r4, pc, r9, asr #30
  50:	31334e49 	teqcc	r3, r9, asr #28
  54:	49504700 	ldmdbmi	r0, {r8, r9, sl, lr}^
  58:	49505f4f 	ldmdbmi	r0, {r0, r1, r2, r3, r6, r8, r9, sl, fp, ip, lr}^
  5c:	0032334e 	eorseq	r3, r2, lr, asr #6
  60:	4f495047 	svcmi	0x00495047
  64:	4e49505f 	mcrmi	0, 2, r5, cr9, cr15, {2}
  68:	47003333 	smladxmi	r0, r3, r3, r3
  6c:	5f4f4950 	svcpl	0x004f4950
  70:	334e4950 	movtcc	r4, #59728	; 0xe950
  74:	50470034 	subpl	r0, r7, r4, lsr r0
  78:	505f4f49 	subspl	r4, pc, r9, asr #30
  7c:	35334e49 	ldrcc	r4, [r3, #-3657]!	; 0xe49
  80:	49504700 	ldmdbmi	r0, {r8, r9, sl, lr}^
  84:	49505f4f 	ldmdbmi	r0, {r0, r1, r2, r3, r6, r8, r9, sl, fp, ip, lr}^
  88:	0036334e 	eorseq	r3, r6, lr, asr #6
  8c:	4f495047 	svcmi	0x00495047
  90:	4e49505f 	mcrmi	0, 2, r5, cr9, cr15, {2}
  94:	47003733 	smladxmi	r0, r3, r7, r3
  98:	5f4f4950 	svcpl	0x004f4950
  9c:	334e4950 	movtcc	r4, #59728	; 0xe950
  a0:	50470038 	subpl	r0, r7, r8, lsr r0
  a4:	505f4f49 	subspl	r4, pc, r9, asr #30
  a8:	39334e49 	ldmdbcc	r3!, {r0, r3, r6, r9, sl, fp, lr}
  ac:	49504700 	ldmdbmi	r0, {r8, r9, sl, lr}^
  b0:	55465f4f 	strbpl	r5, [r6, #-3919]	; 0xf4f
  b4:	415f434e 	cmpmi	pc, lr, asr #6
  b8:	0034544c 	eorseq	r5, r4, ip, asr #8
  bc:	4f495047 	svcmi	0x00495047
  c0:	4e55465f 	mrcmi	6, 2, r4, cr5, cr15, {2}
  c4:	4c415f43 	mcrrmi	15, 4, r5, r1, cr3
  c8:	47003554 	smlsdmi	r0, r4, r5, r3
  cc:	5f4f4950 	svcpl	0x004f4950
  d0:	5f4e4950 	svcpl	0x004e4950
  d4:	5453414c 	ldrbpl	r4, [r3], #-332	; 0x14c
  d8:	69706700 	ldmdbvs	r0!, {r8, r9, sl, sp, lr}^
  dc:	72775f6f 	rsbsvc	r5, r7, #444	; 0x1bc
  e0:	00657469 	rsbeq	r7, r5, r9, ror #8
  e4:	63647570 	cmnvs	r4, #112, 10	; 0x1c000000
  e8:	66006b6c 	strvs	r6, [r0], -ip, ror #22
  ec:	00636e75 	rsbeq	r6, r3, r5, ror lr
  f0:	676e6f6c 	strbvs	r6, [lr, -ip, ror #30]!
  f4:	6e6f6c20 	cdpvs	12, 6, cr6, cr15, cr0, {1}
  f8:	6e692067 	cdpvs	0, 6, cr2, cr9, cr7, {3}
  fc:	4e470074 	mcrmi	0, 2, r0, cr7, cr4, {3}
 100:	39432055 	stmdbcc	r3, {r0, r2, r4, r6, sp}^
 104:	2e372039 	mrccs	0, 1, r2, cr7, cr9, {1}
 108:	20312e32 	eorscs	r2, r1, r2, lsr lr
 10c:	37313032 			; <UNDEFINED> instruction: 0x37313032
 110:	34303930 	ldrtcc	r3, [r0], #-2352	; 0x930
 114:	65722820 	ldrbvs	r2, [r2, #-2080]!	; 0x820
 118:	7361656c 	cmnvc	r1, #108, 10	; 0x1b000000
 11c:	5b202965 	blpl	80a6b8 <__bss_end__+0x800670>
 120:	2f4d5241 	svccs	0x004d5241
 124:	65626d65 	strbvs	r6, [r2, #-3429]!	; 0xd65
 128:	64656464 	strbtvs	r6, [r5], #-1124	; 0x464
 12c:	622d372d 	eorvs	r3, sp, #11796480	; 0xb40000
 130:	636e6172 	cmnvs	lr, #-2147483620	; 0x8000001c
 134:	65722068 	ldrbvs	r2, [r2, #-104]!	; 0x68
 138:	69736976 	ldmdbvs	r3!, {r1, r2, r4, r5, r6, r8, fp, sp, lr}^
 13c:	32206e6f 	eorcc	r6, r0, #1776	; 0x6f0
 140:	30323535 	eorscc	r3, r2, r5, lsr r5
 144:	73005d34 	movwvc	r5, #3380	; 0xd34
 148:	74666968 	strbtvc	r6, [r6], #-2408	; 0x968
 14c:	65736600 	ldrbvs	r6, [r3, #-1536]!	; 0x600
 150:	7067006c 	rsbvc	r0, r7, ip, rrx
 154:	735f6f69 	cmpvc	pc, #420	; 0x1a4
 158:	665f7465 	ldrbvs	r7, [pc], -r5, ror #8
 15c:	74636e75 	strbtvc	r6, [r3], #-3701	; 0xe75
 160:	006e6f69 	rsbeq	r6, lr, r9, ror #30
 164:	6e656661 	cdpvs	6, 6, cr6, cr5, cr1, {3}
 168:	73657200 	cmnvc	r5, #0, 4
 16c:	65767265 	ldrbvs	r7, [r6, #-613]!	; 0x265
 170:	47004164 	strmi	r4, [r0, -r4, ror #2]
 174:	5f4f4950 	svcpl	0x004f4950
 178:	344e4950 	strbcc	r4, [lr], #-2384	; 0x950
 17c:	50470030 	subpl	r0, r7, r0, lsr r0
 180:	505f4f49 	subspl	r4, pc, r9, asr #30
 184:	31344e49 	teqcc	r4, r9, asr #28
 188:	49504700 	ldmdbmi	r0, {r8, r9, sl, lr}^
 18c:	49505f4f 	ldmdbmi	r0, {r0, r1, r2, r3, r6, r8, r9, sl, fp, ip, lr}^
 190:	0032344e 	eorseq	r3, r2, lr, asr #8
 194:	4f495047 	svcmi	0x00495047
 198:	4e49505f 	mcrmi	0, 2, r5, cr9, cr15, {2}
 19c:	47003334 	smladxmi	r0, r4, r3, r3
 1a0:	5f4f4950 	svcpl	0x004f4950
 1a4:	344e4950 	strbcc	r4, [lr], #-2384	; 0x950
 1a8:	50470034 	subpl	r0, r7, r4, lsr r0
 1ac:	505f4f49 	subspl	r4, pc, r9, asr #30
 1b0:	35344e49 	ldrcc	r4, [r4, #-3657]!	; 0xe49
 1b4:	49504700 	ldmdbmi	r0, {r8, r9, sl, lr}^
 1b8:	49505f4f 	ldmdbmi	r0, {r0, r1, r2, r3, r6, r8, r9, sl, fp, ip, lr}^
 1bc:	0036344e 	eorseq	r3, r6, lr, asr #8
 1c0:	4f495047 	svcmi	0x00495047
 1c4:	4e49505f 	mcrmi	0, 2, r5, cr9, cr15, {2}
 1c8:	47003734 	smladxmi	r0, r4, r7, r3
 1cc:	5f4f4950 	svcpl	0x004f4950
 1d0:	344e4950 	strbcc	r4, [lr], #-2384	; 0x950
 1d4:	50470038 	subpl	r0, r7, r8, lsr r0
 1d8:	505f4f49 	subspl	r4, pc, r9, asr #30
 1dc:	39344e49 	ldmdbcc	r4!, {r0, r3, r6, r9, sl, fp, lr}
 1e0:	736e7500 	cmnvc	lr, #0, 10
 1e4:	656e6769 	strbvs	r6, [lr, #-1897]!	; 0x769
 1e8:	68632064 	stmdavs	r3!, {r2, r5, r6, sp}^
 1ec:	47007261 	strmi	r7, [r0, -r1, ror #4]
 1f0:	5f4f4950 	svcpl	0x004f4950
 1f4:	434e5546 	movtmi	r5, #58694	; 0xe546
 1f8:	504e495f 	subpl	r4, lr, pc, asr r9
 1fc:	6c005455 	cfstrsvs	mvf5, [r0], {85}	; 0x55
 200:	20676e6f 	rsbcs	r6, r7, pc, ror #28
 204:	676e6f6c 	strbvs	r6, [lr, -ip, ror #30]!
 208:	736e7520 	cmnvc	lr, #32, 10	; 0x8000000
 20c:	656e6769 	strbvs	r6, [lr, #-1897]!	; 0x769
 210:	6e692064 	cdpvs	0, 6, cr2, cr9, cr4, {3}
 214:	69750074 	ldmdbvs	r5!, {r2, r4, r5, r6}^
 218:	3233746e 	eorscc	r7, r3, #1845493760	; 0x6e000000
 21c:	5f00745f 	svcpl	0x0000745f
 220:	6f697067 	svcvs	0x00697067
 224:	6f687300 	svcvs	0x00687300
 228:	75207472 	strvc	r7, [r0, #-1138]!	; 0x472
 22c:	6769736e 	strbvs	r7, [r9, -lr, ror #6]!
 230:	2064656e 	rsbcs	r6, r4, lr, ror #10
 234:	00746e69 	rsbseq	r6, r4, r9, ror #28
 238:	6b6e6162 	blvs	1b987c8 <__bss_end__+0x1b8e780>
 23c:	49504700 	ldmdbmi	r0, {r8, r9, sl, lr}^
 240:	49505f4f 	ldmdbmi	r0, {r0, r1, r2, r3, r6, r8, r9, sl, fp, ip, lr}^
 244:	0030314e 	eorseq	r3, r0, lr, asr #2
 248:	4f495047 	svcmi	0x00495047
 24c:	4e49505f 	mcrmi	0, 2, r5, cr9, cr15, {2}
 250:	47003131 	smladxmi	r0, r1, r1, r3
 254:	5f4f4950 	svcpl	0x004f4950
 258:	314e4950 	cmpcc	lr, r0, asr r9
 25c:	50470032 	subpl	r0, r7, r2, lsr r0
 260:	505f4f49 	subspl	r4, pc, r9, asr #30
 264:	33314e49 	teqcc	r1, #1168	; 0x490
 268:	49504700 	ldmdbmi	r0, {r8, r9, sl, lr}^
 26c:	49505f4f 	ldmdbmi	r0, {r0, r1, r2, r3, r6, r8, r9, sl, fp, ip, lr}^
 270:	0034314e 	eorseq	r3, r4, lr, asr #2
 274:	4f495047 	svcmi	0x00495047
 278:	4e49505f 	mcrmi	0, 2, r5, cr9, cr15, {2}
 27c:	47003531 	smladxmi	r0, r1, r5, r3
 280:	5f4f4950 	svcpl	0x004f4950
 284:	314e4950 	cmpcc	lr, r0, asr r9
 288:	50470036 	subpl	r0, r7, r6, lsr r0
 28c:	505f4f49 	subspl	r4, pc, r9, asr #30
 290:	37314e49 	ldrcc	r4, [r1, -r9, asr #28]!
 294:	49504700 	ldmdbmi	r0, {r8, r9, sl, lr}^
 298:	49505f4f 	ldmdbmi	r0, {r0, r1, r2, r3, r6, r8, r9, sl, fp, ip, lr}^
 29c:	0038314e 	eorseq	r3, r8, lr, asr #2
 2a0:	4f495047 	svcmi	0x00495047
 2a4:	4e49505f 	mcrmi	0, 2, r5, cr9, cr15, {2}
 2a8:	67003931 	smladxvs	r0, r1, r9, r3
 2ac:	5f6f6970 	svcpl	0x006f6970
 2b0:	5f746573 	svcpl	0x00746573
 2b4:	75706e69 	ldrbvc	r6, [r0, #-3689]!	; 0xe69
 2b8:	50470074 	subpl	r0, r7, r4, ror r0
 2bc:	505f4f49 	subspl	r4, pc, r9, asr #30
 2c0:	35324e49 	ldrcc	r4, [r2, #-3657]!	; 0xe49
 2c4:	49504700 	ldmdbmi	r0, {r8, r9, sl, lr}^
 2c8:	49505f4f 	ldmdbmi	r0, {r0, r1, r2, r3, r6, r8, r9, sl, fp, ip, lr}^
 2cc:	0030354e 	eorseq	r3, r0, lr, asr #10
 2d0:	4f495047 	svcmi	0x00495047
 2d4:	4e49505f 	mcrmi	0, 2, r5, cr9, cr15, {2}
 2d8:	47003135 	smladxmi	r0, r5, r1, r3
 2dc:	5f4f4950 	svcpl	0x004f4950
 2e0:	354e4950 	strbcc	r4, [lr, #-2384]	; 0x950
 2e4:	50470032 	subpl	r0, r7, r2, lsr r0
 2e8:	505f4f49 	subspl	r4, pc, r9, asr #30
 2ec:	33354e49 	teqcc	r5, #1168	; 0x490
 2f0:	49504700 	ldmdbmi	r0, {r8, r9, sl, lr}^
 2f4:	55465f4f 	strbpl	r5, [r6, #-3919]	; 0xf4f
 2f8:	415f434e 	cmpmi	pc, lr, asr #6
 2fc:	0030544c 	eorseq	r5, r0, ip, asr #8
 300:	4f495047 	svcmi	0x00495047
 304:	4e49505f 	mcrmi	0, 2, r5, cr9, cr15, {2}
 308:	5249465f 	subpl	r4, r9, #99614720	; 0x5f00000
 30c:	47005453 	smlsdmi	r0, r3, r4, r5
 310:	5f4f4950 	svcpl	0x004f4950
 314:	434e5546 	movtmi	r5, #58694	; 0xe546
 318:	544c415f 	strbpl	r4, [ip], #-351	; 0x15f
 31c:	65720032 	ldrbvs	r0, [r2, #-50]!	; 0x32
 320:	76726573 			; <UNDEFINED> instruction: 0x76726573
 324:	00426465 	subeq	r6, r2, r5, ror #8
 328:	4f495047 	svcmi	0x00495047
 32c:	4e55465f 	mrcmi	6, 2, r4, cr5, cr15, {2}
 330:	4c415f43 	mcrrmi	15, 4, r5, r1, cr3
 334:	72003354 	andvc	r3, r0, #84, 6	; 0x50000001
 338:	72657365 	rsbvc	r7, r5, #-1811939327	; 0x94000001
 33c:	43646576 	cmnmi	r4, #494927872	; 0x1d800000
 340:	73657200 	cmnvc	r5, #0, 4
 344:	65767265 	ldrbvs	r7, [r6, #-613]!	; 0x265
 348:	72004464 	andvc	r4, r0, #100, 8	; 0x64000000
 34c:	72657365 	rsbvc	r7, r5, #-1811939327	; 0x94000001
 350:	45646576 	strbmi	r6, [r4, #-1398]!	; 0x576
 354:	73657200 	cmnvc	r5, #0, 4
 358:	65767265 	ldrbvs	r7, [r6, #-613]!	; 0x265
 35c:	72004664 	andvc	r4, r0, #100, 12	; 0x6400000
 360:	72657365 	rsbvc	r7, r5, #-1811939327	; 0x94000001
 364:	47646576 			; <UNDEFINED> instruction: 0x47646576
 368:	73657200 	cmnvc	r5, #0, 4
 36c:	65767265 	ldrbvs	r7, [r6, #-613]!	; 0x265
 370:	72004864 	andvc	r4, r0, #100, 16	; 0x640000
 374:	72657365 	rsbvc	r7, r5, #-1811939327	; 0x94000001
 378:	49646576 	stmdbmi	r4!, {r1, r2, r4, r5, r6, r8, sl, sp, lr}^
 37c:	73657200 	cmnvc	r5, #0, 4
 380:	65767265 	ldrbvs	r7, [r6, #-613]!	; 0x265
 384:	72004a64 	andvc	r4, r0, #100, 20	; 0x64000
 388:	72657365 	rsbvc	r7, r5, #-1811939327	; 0x94000001
 38c:	4b646576 	blmi	191996c <__bss_end__+0x190f924>
 390:	49504700 	ldmdbmi	r0, {r8, r9, sl, lr}^
 394:	49505f4f 	ldmdbmi	r0, {r0, r1, r2, r3, r6, r8, r9, sl, fp, ip, lr}^
 398:	4700304e 	strmi	r3, [r0, -lr, asr #32]
 39c:	5f4f4950 	svcpl	0x004f4950
 3a0:	314e4950 	cmpcc	lr, r0, asr r9
 3a4:	49504700 	ldmdbmi	r0, {r8, r9, sl, lr}^
 3a8:	49505f4f 	ldmdbmi	r0, {r0, r1, r2, r3, r6, r8, r9, sl, fp, ip, lr}^
 3ac:	4700324e 	strmi	r3, [r0, -lr, asr #4]
 3b0:	5f4f4950 	svcpl	0x004f4950
 3b4:	334e4950 	movtcc	r4, #59728	; 0xe950
 3b8:	49504700 	ldmdbmi	r0, {r8, r9, sl, lr}^
 3bc:	49505f4f 	ldmdbmi	r0, {r0, r1, r2, r3, r6, r8, r9, sl, fp, ip, lr}^
 3c0:	4700344e 	strmi	r3, [r0, -lr, asr #8]
 3c4:	5f4f4950 	svcpl	0x004f4950
 3c8:	354e4950 	strbcc	r4, [lr, #-2384]	; 0x950
 3cc:	49504700 	ldmdbmi	r0, {r8, r9, sl, lr}^
 3d0:	49505f4f 	ldmdbmi	r0, {r0, r1, r2, r3, r6, r8, r9, sl, fp, ip, lr}^
 3d4:	4700364e 	strmi	r3, [r0, -lr, asr #12]
 3d8:	5f4f4950 	svcpl	0x004f4950
 3dc:	374e4950 	smlsldcc	r4, lr, r0, r9
 3e0:	49504700 	ldmdbmi	r0, {r8, r9, sl, lr}^
 3e4:	49505f4f 	ldmdbmi	r0, {r0, r1, r2, r3, r6, r8, r9, sl, fp, ip, lr}^
 3e8:	4700384e 	strmi	r3, [r0, -lr, asr #16]
 3ec:	5f4f4950 	svcpl	0x004f4950
 3f0:	394e4950 	stmdbcc	lr, {r4, r6, r8, fp, lr}^
 3f4:	69706700 	ldmdbvs	r0!, {r8, r9, sl, sp, lr}^
 3f8:	6e695f6f 	cdpvs	15, 6, cr5, cr9, cr15, {3}
 3fc:	47007469 	strmi	r7, [r0, -r9, ror #8]
 400:	5f4f4950 	svcpl	0x004f4950
 404:	324e4950 	subcc	r4, lr, #80, 18	; 0x140000
 408:	50470030 	subpl	r0, r7, r0, lsr r0
 40c:	505f4f49 	subspl	r4, pc, r9, asr #30
 410:	31324e49 	teqcc	r2, r9, asr #28
 414:	49504700 	ldmdbmi	r0, {r8, r9, sl, lr}^
 418:	49505f4f 	ldmdbmi	r0, {r0, r1, r2, r3, r6, r8, r9, sl, fp, ip, lr}^
 41c:	0032324e 	eorseq	r3, r2, lr, asr #4
 420:	4f495047 	svcmi	0x00495047
 424:	4e49505f 	mcrmi	0, 2, r5, cr9, cr15, {2}
 428:	47003332 	smladxmi	r0, r2, r3, r3
 42c:	5f4f4950 	svcpl	0x004f4950
 430:	324e4950 	subcc	r4, lr, #80, 18	; 0x140000
 434:	70670034 	rsbvc	r0, r7, r4, lsr r0
 438:	632e6f69 	teqvs	lr, #420	; 0x1a4
 43c:	49504700 	ldmdbmi	r0, {r8, r9, sl, lr}^
 440:	49505f4f 	ldmdbmi	r0, {r0, r1, r2, r3, r6, r8, r9, sl, fp, ip, lr}^
 444:	0036324e 	eorseq	r3, r6, lr, asr #4
 448:	4f495047 	svcmi	0x00495047
 44c:	4e49505f 	mcrmi	0, 2, r5, cr9, cr15, {2}
 450:	47003732 	smladxmi	r0, r2, r7, r3
 454:	5f4f4950 	svcpl	0x004f4950
 458:	324e4950 	subcc	r4, lr, #80, 18	; 0x140000
 45c:	50470038 	subpl	r0, r7, r8, lsr r0
 460:	505f4f49 	subspl	r4, pc, r9, asr #30
 464:	39324e49 	ldmdbcc	r2!, {r0, r3, r6, r9, sl, fp, lr}
 468:	69706700 	ldmdbvs	r0!, {r8, r9, sl, sp, lr}^
 46c:	65675f6f 	strbvs	r5, [r7, #-3951]!	; 0xf6f
 470:	75665f74 	strbvc	r5, [r6, #-3956]!	; 0xf74
 474:	6974636e 	ldmdbvs	r4!, {r1, r2, r3, r5, r6, r8, r9, sp, lr}^
 478:	67006e6f 	strvs	r6, [r0, -pc, ror #28]
 47c:	5f6f6970 	svcpl	0x006f6970
 480:	64616572 	strbtvs	r6, [r1], #-1394	; 0x572
 484:	69706700 	ldmdbvs	r0!, {r8, r9, sl, sp, lr}^
 488:	6c635f6f 	stclvs	15, cr5, [r3], #-444	; 0xfffffe44
 48c:	5f726165 	svcpl	0x00726165
 490:	6e657665 	cdpvs	6, 6, cr7, cr5, cr5, {3}
 494:	70670074 	rsbvc	r0, r7, r4, ror r0
 498:	735f6f69 	cmpvc	pc, #420	; 0x1a4
 49c:	705f7465 	subsvc	r7, pc, r5, ror #8
 4a0:	756c6c75 	strbvc	r6, [ip, #-3189]!	; 0xc75
 4a4:	70670070 	rsbvc	r0, r7, r0, ror r0
 4a8:	655f6f69 	ldrbvs	r6, [pc, #-3945]	; fffff547 <__bss_end__+0xffff54ff>
 4ac:	6c62616e 	stfvse	f6, [r2], #-440	; 0xfffffe48
 4b0:	76655f65 	strbtvc	r5, [r5], -r5, ror #30
 4b4:	5f746e65 	svcpl	0x00746e65
 4b8:	65746564 	ldrbvs	r6, [r4, #-1380]!	; 0x564
 4bc:	6f697463 	svcvs	0x00697463
 4c0:	7067006e 	rsbvc	r0, r7, lr, rrx
 4c4:	725f6f69 	subsvc	r6, pc, #420	; 0x1a4
 4c8:	665f6765 	ldrbvs	r6, [pc], -r5, ror #14
 4cc:	655f726f 	ldrbvs	r7, [pc, #-623]	; 265 <_start-0x7d9b>
 4d0:	746e6576 	strbtvc	r6, [lr], #-1398	; 0x576
 4d4:	69706700 	ldmdbvs	r0!, {r8, r9, sl, sp, lr}^
 4d8:	76655f6f 	strbtvc	r5, [r5], -pc, ror #30
 4dc:	00746e65 	rsbseq	r6, r4, r5, ror #28
 4e0:	4f495047 	svcmi	0x00495047
 4e4:	5445445f 	strbpl	r4, [r5], #-1119	; 0x45f
 4e8:	5f544345 	svcpl	0x00544345
 4ec:	4e595341 	cdpmi	3, 5, cr5, cr9, cr1, {2}
 4f0:	41465f43 	cmpmi	r6, r3, asr #30
 4f4:	4e494c4c 	cdpmi	12, 4, cr4, cr9, cr12, {2}
 4f8:	44455f47 	strbmi	r5, [r5], #-3911	; 0xf47
 4fc:	67004547 	strvs	r4, [r0, -r7, asr #10]
 500:	5f6f6970 	svcpl	0x006f6970
 504:	63656863 	cmnvs	r5, #6488064	; 0x630000
 508:	6e615f6b 	cdpvs	15, 6, cr5, cr1, cr11, {3}
 50c:	6c635f64 	stclvs	15, cr5, [r3], #-400	; 0xfffffe70
 510:	5f726165 	svcpl	0x00726165
 514:	6e657665 	cdpvs	6, 6, cr7, cr5, cr5, {3}
 518:	6e650074 	mcrvs	0, 3, r0, cr5, cr4, {3}
 51c:	656c6261 	strbvs	r6, [ip, #-609]!	; 0x261
 520:	70670064 	rsbvc	r0, r7, r4, rrx
 524:	645f6f69 	ldrbvs	r6, [pc], #-3945	; 52c <_start-0x7ad4>
 528:	62617369 	rsbvs	r7, r1, #-1543503871	; 0xa4000001
 52c:	615f656c 	cmpvs	pc, ip, ror #10
 530:	655f6c6c 	ldrbvs	r6, [pc, #-3180]	; fffff8cc <__bss_end__+0xffff5884>
 534:	746e6576 	strbtvc	r6, [lr], #-1398	; 0x576
 538:	7465645f 	strbtvc	r6, [r5], #-1119	; 0x45f
 53c:	69746365 	ldmdbvs	r4!, {r0, r2, r5, r6, r8, r9, sp, lr}^
 540:	47006e6f 	strmi	r6, [r0, -pc, ror #28]
 544:	5f4f4950 	svcpl	0x004f4950
 548:	45544544 	ldrbmi	r4, [r4, #-1348]	; 0x544
 54c:	525f5443 	subspl	r5, pc, #1124073472	; 0x43000000
 550:	4e495349 	cdpmi	3, 4, cr5, cr9, cr9, {2}
 554:	44455f47 	strbmi	r5, [r5], #-3911	; 0xf47
 558:	67004547 	strvs	r4, [r0, -r7, asr #10]
 55c:	5f6f6970 	svcpl	0x006f6970
 560:	63656863 	cmnvs	r5, #6488064	; 0x630000
 564:	76655f6b 	strbtvc	r5, [r5], -fp, ror #30
 568:	00746e65 	rsbseq	r6, r4, r5, ror #28
 56c:	6f697067 	svcvs	0x00697067
 570:	7465735f 	strbtvc	r7, [r5], #-863	; 0x35f
 574:	6c75705f 	ldclvs	0, cr7, [r5], #-380	; 0xfffffe84
 578:	776f646c 	strbvc	r6, [pc, -ip, ror #8]!
 57c:	7067006e 	rsbvc	r0, r7, lr, rrx
 580:	675f6f69 	ldrbvs	r6, [pc, -r9, ror #30]
 584:	655f7465 	ldrbvs	r7, [pc, #-1125]	; 127 <_start-0x7ed9>
 588:	746e6576 	strbtvc	r6, [lr], #-1398	; 0x576
 58c:	7465645f 	strbtvc	r6, [r5], #-1119	; 0x45f
 590:	69746365 	ldmdbvs	r4!, {r0, r2, r5, r6, r8, r9, sp, lr}^
 594:	47006e6f 	strmi	r6, [r0, -pc, ror #28]
 598:	5f4f4950 	svcpl	0x004f4950
 59c:	45544544 	ldrbmi	r4, [r4, #-1348]	; 0x544
 5a0:	4c5f5443 	cfldrdmi	mvd5, [pc], {67}	; 0x43
 5a4:	4c5f574f 	mrrcmi	7, 4, r5, pc, cr15	; <UNPREDICTABLE>
 5a8:	4c455645 	mcrrmi	6, 4, r5, r5, cr5
 5ac:	67657200 	strbvs	r7, [r5, -r0, lsl #4]!
 5b0:	65747369 	ldrbvs	r7, [r4, #-873]!	; 0x369
 5b4:	47007372 	smlsdxmi	r0, r2, r3, r7
 5b8:	5f4f4950 	svcpl	0x004f4950
 5bc:	45544544 	ldrbmi	r4, [r4, #-1348]	; 0x544
 5c0:	415f5443 	cmpmi	pc, r3, asr #8
 5c4:	434e5953 	movtmi	r5, #59731	; 0xe953
 5c8:	5349525f 	movtpl	r5, #37471	; 0x925f
 5cc:	5f474e49 	svcpl	0x00474e49
 5d0:	45474445 	strbmi	r4, [r7, #-1093]	; 0x445
 5d4:	69706700 	ldmdbvs	r0!, {r8, r9, sl, sp, lr}^
 5d8:	65735f6f 	ldrbvs	r5, [r3, #-3951]!	; 0xf6f
 5dc:	65645f74 	strbvs	r5, [r4, #-3956]!	; 0xf74
 5e0:	74636574 	strbtvc	r6, [r3], #-1396	; 0x574
 5e4:	006e6f69 	rsbeq	r6, lr, r9, ror #30
 5e8:	6f697067 	svcvs	0x00697067
 5ec:	7465735f 	strbtvc	r7, [r5], #-863	; 0x35f
 5f0:	6c75705f 	ldclvs	0, cr7, [r5], #-380	; 0xfffffe84
 5f4:	6e6f6e6c 	cdpvs	14, 6, cr6, cr15, cr12, {3}
 5f8:	50470065 	subpl	r0, r7, r5, rrx
 5fc:	505f4f49 	subspl	r4, pc, r9, asr #30
 600:	505f4455 	subspl	r4, pc, r5, asr r4	; <UNPREDICTABLE>
 604:	444c4c55 	strbmi	r4, [ip], #-3157	; 0xc55
 608:	004e574f 	subeq	r5, lr, pc, asr #14
 60c:	4f495047 	svcmi	0x00495047
 610:	4455505f 	ldrbmi	r5, [r5], #-95	; 0x5f
 614:	4c55505f 	mrrcmi	0, 5, r5, r5, cr15	; <UNPREDICTABLE>
 618:	0050554c 	subseq	r5, r0, ip, asr #10
 61c:	4f495047 	svcmi	0x00495047
 620:	5445445f 	strbpl	r4, [r5], #-1119	; 0x45f
 624:	5f544345 	svcpl	0x00544345
 628:	48474948 	stmdami	r7, {r3, r6, r8, fp, lr}^
 62c:	56454c5f 			; <UNDEFINED> instruction: 0x56454c5f
 630:	47004c45 	strmi	r4, [r0, -r5, asr #24]
 634:	5f4f4950 	svcpl	0x004f4950
 638:	45544544 	ldrbmi	r4, [r4, #-1348]	; 0x544
 63c:	465f5443 	ldrbmi	r5, [pc], -r3, asr #8
 640:	494c4c41 	stmdbmi	ip, {r0, r6, sl, fp, lr}^
 644:	455f474e 	ldrbmi	r4, [pc, #-1870]	; fffffefe <__bss_end__+0xffff5eb6>
 648:	00454744 	subeq	r4, r5, r4, asr #14
 64c:	6f6f425f 	svcvs	0x006f425f
 650:	7067006c 	rsbvc	r0, r7, ip, rrx
 654:	645f6f69 	ldrbvs	r6, [pc], #-3945	; 65c <_start-0x79a4>
 658:	62617369 	rsbvs	r7, r1, #-1543503871	; 0xa4000001
 65c:	655f656c 	ldrbvs	r6, [pc, #-1388]	; f8 <_start-0x7f08>
 660:	746e6576 	strbtvc	r6, [lr], #-1398	; 0x576
 664:	7465645f 	strbtvc	r6, [r5], #-1119	; 0x45f
 668:	69746365 	ldmdbvs	r4!, {r0, r2, r5, r6, r8, r9, sp, lr}^
 66c:	67006e6f 	strvs	r6, [r0, -pc, ror #28]
 670:	656f6970 	strbvs	r6, [pc, #-2416]!	; fffffd08 <__bss_end__+0xffff5cc0>
 674:	61727478 	cmnvs	r2, r8, ror r4
 678:	4700632e 	strmi	r6, [r0, -lr, lsr #6]
 67c:	5f4f4950 	svcpl	0x004f4950
 680:	5f445550 	svcpl	0x00445550
 684:	41534944 	cmpmi	r3, r4, asr #18
 688:	00454c42 	subeq	r4, r5, r2, asr #24
 68c:	6f697067 	svcvs	0x00697067
 690:	7465735f 	strbtvc	r7, [r5], #-863	; 0x35f
 694:	6475705f 	ldrbtvs	r7, [r5], #-95	; 0x5f
	...

Disassembly of section .debug_frame:

00000000 <.debug_frame>:
   0:	0000000c 	andeq	r0, r0, ip
   4:	ffffffff 			; <UNDEFINED> instruction: 0xffffffff
   8:	7c020001 	stcvc	0, cr0, [r2], {1}
   c:	000d0c0e 	andeq	r0, sp, lr, lsl #24
  10:	00000024 	andeq	r0, r0, r4, lsr #32
  14:	00000000 	andeq	r0, r0, r0
  18:	00008d24 	andeq	r8, r0, r4, lsr #26
  1c:	00000018 	andeq	r0, r0, r8, lsl r0
  20:	420c0d42 	andmi	r0, ip, #4224	; 0x1080
  24:	038d048b 	orreq	r0, sp, #-1962934272	; 0x8b000000
  28:	0c42028e 	sfmeq	f0, 2, [r2], {142}	; 0x8e
  2c:	0c42040b 	cfstrdeq	mvd0, [r2], {11}
  30:	ce42100d 	cdpgt	0, 4, cr1, cr2, cr13, {0}
  34:	040ecbcd 	streq	ip, [lr], #-3021	; 0xbcd
  38:	00000024 	andeq	r0, r0, r4, lsr #32
  3c:	00000000 	andeq	r0, r0, r0
  40:	00008d54 	andeq	r8, r0, r4, asr sp
  44:	00000068 	andeq	r0, r0, r8, rrx
  48:	420c0d42 	andmi	r0, ip, #4224	; 0x1080
  4c:	038d048b 	orreq	r0, sp, #-1962934272	; 0x8b000000
  50:	0c42028e 	sfmeq	f0, 2, [r2], {142}	; 0x8e
  54:	0c66040b 	cfstrdeq	mvd0, [r6], #-44	; 0xffffffd4
  58:	ce42100d 	cdpgt	0, 4, cr1, cr2, cr13, {0}
  5c:	040ecbcd 	streq	ip, [lr], #-3021	; 0xbcd
  60:	00000028 	andeq	r0, r0, r8, lsr #32
  64:	00000000 	andeq	r0, r0, r0
  68:	00008dd4 	ldrdeq	r8, [r0], -r4
  6c:	0000005c 	andeq	r0, r0, ip, asr r0
  70:	420c0d42 	andmi	r0, ip, #4224	; 0x1080
  74:	038d048b 	orreq	r0, sp, #-1962934272	; 0x8b000000
  78:	0c42028e 	sfmeq	f0, 2, [r2], {142}	; 0x8e
  7c:	0a5c040b 	beq	17010b0 <__bss_end__+0x16f7068>
  80:	42100d0c 	andsmi	r0, r0, #12, 26	; 0x300
  84:	0ecbcdce 	cdpeq	13, 12, cr12, cr11, cr14, {6}
  88:	000b4204 	andeq	r4, fp, r4, lsl #4
  8c:	00000024 	andeq	r0, r0, r4, lsr #32
  90:	00000000 	andeq	r0, r0, r0
  94:	00008e44 	andeq	r8, r0, r4, asr #28
  98:	00000020 	andeq	r0, r0, r0, lsr #32
  9c:	420c0d42 	andmi	r0, ip, #4224	; 0x1080
  a0:	038d048b 	orreq	r0, sp, #-1962934272	; 0x8b000000
  a4:	0c42028e 	sfmeq	f0, 2, [r2], {142}	; 0x8e
  a8:	0c46040b 	cfstrdeq	mvd0, [r6], {11}
  ac:	ce42100d 	cdpgt	0, 4, cr1, cr2, cr13, {0}
  b0:	040ecbcd 	streq	ip, [lr], #-3021	; 0xbcd
  b4:	00000024 	andeq	r0, r0, r4, lsr #32
  b8:	00000000 	andeq	r0, r0, r0
  bc:	00008e78 	andeq	r8, r0, r8, ror lr
  c0:	00000020 	andeq	r0, r0, r0, lsr #32
  c4:	420c0d42 	andmi	r0, ip, #4224	; 0x1080
  c8:	038d048b 	orreq	r0, sp, #-1962934272	; 0x8b000000
  cc:	0c42028e 	sfmeq	f0, 2, [r2], {142}	; 0x8e
  d0:	0c46040b 	cfstrdeq	mvd0, [r6], {11}
  d4:	ce42100d 	cdpgt	0, 4, cr1, cr2, cr13, {0}
  d8:	040ecbcd 	streq	ip, [lr], #-3021	; 0xbcd
  dc:	00000028 	andeq	r0, r0, r8, lsr #32
  e0:	00000000 	andeq	r0, r0, r0
  e4:	00008ea8 	andeq	r8, r0, r8, lsr #29
  e8:	00000068 	andeq	r0, r0, r8, rrx
  ec:	420c0d42 	andmi	r0, ip, #4224	; 0x1080
  f0:	038d048b 	orreq	r0, sp, #-1962934272	; 0x8b000000
  f4:	0c42028e 	sfmeq	f0, 2, [r2], {142}	; 0x8e
  f8:	0a58040b 	beq	160112c <__bss_end__+0x15f70e4>
  fc:	42100d0c 	andsmi	r0, r0, #12, 26	; 0x300
 100:	0ecbcdce 	cdpeq	13, 12, cr12, cr11, cr14, {6}
 104:	000b4204 	andeq	r4, fp, r4, lsl #4
 108:	00000028 	andeq	r0, r0, r8, lsr #32
 10c:	00000000 	andeq	r0, r0, r0
 110:	00008f20 	andeq	r8, r0, r0, lsr #30
 114:	00000054 	andeq	r0, r0, r4, asr r0
 118:	420c0d42 	andmi	r0, ip, #4224	; 0x1080
 11c:	038d048b 	orreq	r0, sp, #-1962934272	; 0x8b000000
 120:	0c42028e 	sfmeq	f0, 2, [r2], {142}	; 0x8e
 124:	0a5c040b 	beq	1701158 <__bss_end__+0x16f7110>
 128:	42100d0c 	andsmi	r0, r0, #12, 26	; 0x300
 12c:	0ecbcdce 	cdpeq	13, 12, cr12, cr11, cr14, {6}
 130:	000b4204 	andeq	r4, fp, r4, lsl #4
 134:	0000000c 	andeq	r0, r0, ip
 138:	ffffffff 			; <UNDEFINED> instruction: 0xffffffff
 13c:	7c020001 	stcvc	0, cr0, [r2], {1}
 140:	000d0c0e 	andeq	r0, sp, lr, lsl #24
 144:	0000002c 	andeq	r0, r0, ip, lsr #32
 148:	00000134 	andeq	r0, r0, r4, lsr r1
 14c:	00008f8c 	andeq	r8, r0, ip, lsl #31
 150:	00000058 	andeq	r0, r0, r8, asr r0
 154:	420c0d42 	andmi	r0, ip, #4224	; 0x1080
 158:	048b0584 	streq	r0, [fp], #1412	; 0x584
 15c:	028e038d 	addeq	r0, lr, #872415234	; 0x34000002
 160:	040b0c42 	streq	r0, [fp], #-3138	; 0xc42
 164:	0d0c0a5c 	vstreq	s0, [ip, #-368]	; 0xfffffe90
 168:	cdce4214 	sfmgt	f4, 2, [lr, #80]	; 0x50
 16c:	040ec4cb 	streq	ip, [lr], #-1227	; 0x4cb
 170:	00000b42 	andeq	r0, r0, r2, asr #22
 174:	00000028 	andeq	r0, r0, r8, lsr #32
 178:	00000134 	andeq	r0, r0, r4, lsr r1
 17c:	00008ff8 	strdeq	r8, [r0], -r8	; <UNPREDICTABLE>
 180:	000000a4 	andeq	r0, r0, r4, lsr #1
 184:	420c0d42 	andmi	r0, ip, #4224	; 0x1080
 188:	038d048b 	orreq	r0, sp, #-1962934272	; 0x8b000000
 18c:	0c42028e 	sfmeq	f0, 2, [r2], {142}	; 0x8e
 190:	4602040b 	strmi	r0, [r2], -fp, lsl #8
 194:	42100d0c 	andsmi	r0, r0, #12, 26	; 0x300
 198:	0ecbcdce 	cdpeq	13, 12, cr12, cr11, cr14, {6}
 19c:	00000004 	andeq	r0, r0, r4
 1a0:	00000030 	andeq	r0, r0, r0, lsr r0
 1a4:	00000134 	andeq	r0, r0, r4, lsr r1
 1a8:	000090bc 	strheq	r9, [r0], -ip
 1ac:	00000064 	andeq	r0, r0, r4, rrx
 1b0:	420c0d42 	andmi	r0, ip, #4224	; 0x1080
 1b4:	05850684 	streq	r0, [r5, #1668]	; 0x684
 1b8:	038d048b 	orreq	r0, sp, #-1962934272	; 0x8b000000
 1bc:	0c42028e 	sfmeq	f0, 2, [r2], {142}	; 0x8e
 1c0:	0a64040b 	beq	19011f4 <__bss_end__+0x18f71ac>
 1c4:	42180d0c 	andsmi	r0, r8, #12, 26	; 0x300
 1c8:	c5cbcdce 	strbgt	ip, [fp, #3534]	; 0xdce
 1cc:	42040ec4 	andmi	r0, r4, #196, 28	; 0xc40
 1d0:	0000000b 	andeq	r0, r0, fp
 1d4:	00000028 	andeq	r0, r0, r8, lsr #32
 1d8:	00000134 	andeq	r0, r0, r4, lsr r1
 1dc:	00009138 	andeq	r9, r0, r8, lsr r1
 1e0:	00000050 	andeq	r0, r0, r0, asr r0
 1e4:	420c0d42 	andmi	r0, ip, #4224	; 0x1080
 1e8:	038d048b 	orreq	r0, sp, #-1962934272	; 0x8b000000
 1ec:	0c42028e 	sfmeq	f0, 2, [r2], {142}	; 0x8e
 1f0:	0a58040b 	beq	1601224 <__bss_end__+0x15f71dc>
 1f4:	42100d0c 	andsmi	r0, r0, #12, 26	; 0x300
 1f8:	0ecbcdce 	cdpeq	13, 12, cr12, cr11, cr14, {6}
 1fc:	000b4204 	andeq	r4, fp, r4, lsl #4
 200:	00000030 	andeq	r0, r0, r0, lsr r0
 204:	00000134 	andeq	r0, r0, r4, lsr r1
 208:	000091a0 	andeq	r9, r0, r0, lsr #3
 20c:	00000050 	andeq	r0, r0, r0, asr r0
 210:	420c0d42 	andmi	r0, ip, #4224	; 0x1080
 214:	05850684 	streq	r0, [r5, #1668]	; 0x684
 218:	038d048b 	orreq	r0, sp, #-1962934272	; 0x8b000000
 21c:	0c42028e 	sfmeq	f0, 2, [r2], {142}	; 0x8e
 220:	0a46040b 	beq	1181254 <__bss_end__+0x117720c>
 224:	42180d0c 	andsmi	r0, r8, #12, 26	; 0x300
 228:	c5cbcdce 	strbgt	ip, [fp, #3534]	; 0xdce
 22c:	42040ec4 	andmi	r0, r4, #196, 28	; 0xc40
 230:	0000000b 	andeq	r0, r0, fp
 234:	00000030 	andeq	r0, r0, r0, lsr r0
 238:	00000134 	andeq	r0, r0, r4, lsr r1
 23c:	00009208 	andeq	r9, r0, r8, lsl #4
 240:	00000080 	andeq	r0, r0, r0, lsl #1
 244:	420c0d42 	andmi	r0, ip, #4224	; 0x1080
 248:	05850684 	streq	r0, [r5, #1668]	; 0x684
 24c:	038d048b 	orreq	r0, sp, #-1962934272	; 0x8b000000
 250:	0c42028e 	sfmeq	f0, 2, [r2], {142}	; 0x8e
 254:	0a6c040b 	beq	1b01288 <__bss_end__+0x1af7240>
 258:	42180d0c 	andsmi	r0, r8, #12, 26	; 0x300
 25c:	c5cbcdce 	strbgt	ip, [fp, #3534]	; 0xdce
 260:	42040ec4 	andmi	r0, r4, #196, 28	; 0xc40
 264:	0000000b 	andeq	r0, r0, fp
 268:	00000024 	andeq	r0, r0, r4, lsr #32
 26c:	00000134 	andeq	r0, r0, r4, lsr r1
 270:	000092ac 	andeq	r9, r0, ip, lsr #5
 274:	00000020 	andeq	r0, r0, r0, lsr #32
 278:	420c0d42 	andmi	r0, ip, #4224	; 0x1080
 27c:	038d048b 	orreq	r0, sp, #-1962934272	; 0x8b000000
 280:	0c42028e 	sfmeq	f0, 2, [r2], {142}	; 0x8e
 284:	0c46040b 	cfstrdeq	mvd0, [r6], {11}
 288:	ce42100d 	cdpgt	0, 4, cr1, cr2, cr13, {0}
 28c:	040ecbcd 	streq	ip, [lr], #-3021	; 0xbcd
 290:	00000024 	andeq	r0, r0, r4, lsr #32
 294:	00000134 	andeq	r0, r0, r4, lsr r1
 298:	000092ec 	andeq	r9, r0, ip, ror #5
 29c:	00000020 	andeq	r0, r0, r0, lsr #32
 2a0:	420c0d42 	andmi	r0, ip, #4224	; 0x1080
 2a4:	038d048b 	orreq	r0, sp, #-1962934272	; 0x8b000000
 2a8:	0c42028e 	sfmeq	f0, 2, [r2], {142}	; 0x8e
 2ac:	0c46040b 	cfstrdeq	mvd0, [r6], {11}
 2b0:	ce42100d 	cdpgt	0, 4, cr1, cr2, cr13, {0}
 2b4:	040ecbcd 	streq	ip, [lr], #-3021	; 0xbcd
 2b8:	00000030 	andeq	r0, r0, r0, lsr r0
 2bc:	00000134 	andeq	r0, r0, r4, lsr r1
 2c0:	0000932c 	andeq	r9, r0, ip, lsr #6
 2c4:	00000044 	andeq	r0, r0, r4, asr #32
 2c8:	420c0d42 	andmi	r0, ip, #4224	; 0x1080
 2cc:	05850684 	streq	r0, [r5, #1668]	; 0x684
 2d0:	038d048b 	orreq	r0, sp, #-1962934272	; 0x8b000000
 2d4:	0c42028e 	sfmeq	f0, 2, [r2], {142}	; 0x8e
 2d8:	0a4c040b 	beq	130130c <__bss_end__+0x12f72c4>
 2dc:	42180d0c 	andsmi	r0, r8, #12, 26	; 0x300
 2e0:	c5cbcdce 	strbgt	ip, [fp, #3534]	; 0xdce
 2e4:	42040ec4 	andmi	r0, r4, #196, 28	; 0xc40
 2e8:	0000000b 	andeq	r0, r0, fp
 2ec:	0000002c 	andeq	r0, r0, ip, lsr #32
 2f0:	00000134 	andeq	r0, r0, r4, lsr r1
 2f4:	00009398 	muleq	r0, r8, r3
 2f8:	00000050 	andeq	r0, r0, r0, asr r0
 2fc:	420c0d42 	andmi	r0, ip, #4224	; 0x1080
 300:	05850684 	streq	r0, [r5, #1668]	; 0x684
 304:	038d048b 	orreq	r0, sp, #-1962934272	; 0x8b000000
 308:	0c42028e 	sfmeq	f0, 2, [r2], {142}	; 0x8e
 30c:	0c5e040b 	cfldrdeq	mvd0, [lr], {11}
 310:	ce42180d 	cdpgt	8, 4, cr1, cr2, cr13, {0}
 314:	c4c5cbcd 	strbgt	ip, [r5], #3021	; 0xbcd
 318:	0000040e 	andeq	r0, r0, lr, lsl #8
 31c:	00000024 	andeq	r0, r0, r4, lsr #32
 320:	00000134 	andeq	r0, r0, r4, lsr r1
 324:	000093fc 	strdeq	r9, [r0], -ip
 328:	00000020 	andeq	r0, r0, r0, lsr #32
 32c:	420c0d42 	andmi	r0, ip, #4224	; 0x1080
 330:	038d048b 	orreq	r0, sp, #-1962934272	; 0x8b000000
 334:	0c42028e 	sfmeq	f0, 2, [r2], {142}	; 0x8e
 338:	0c46040b 	cfstrdeq	mvd0, [r6], {11}
 33c:	ce42100d 	cdpgt	0, 4, cr1, cr2, cr13, {0}
 340:	040ecbcd 	streq	ip, [lr], #-3021	; 0xbcd
 344:	00000024 	andeq	r0, r0, r4, lsr #32
 348:	00000134 	andeq	r0, r0, r4, lsr r1
 34c:	00009434 	andeq	r9, r0, r4, lsr r4
 350:	00000020 	andeq	r0, r0, r0, lsr #32
 354:	420c0d42 	andmi	r0, ip, #4224	; 0x1080
 358:	038d048b 	orreq	r0, sp, #-1962934272	; 0x8b000000
 35c:	0c42028e 	sfmeq	f0, 2, [r2], {142}	; 0x8e
 360:	0c46040b 	cfstrdeq	mvd0, [r6], {11}
 364:	ce42100d 	cdpgt	0, 4, cr1, cr2, cr13, {0}
 368:	040ecbcd 	streq	ip, [lr], #-3021	; 0xbcd
 36c:	00000024 	andeq	r0, r0, r4, lsr #32
 370:	00000134 	andeq	r0, r0, r4, lsr r1
 374:	0000946c 	andeq	r9, r0, ip, ror #8
 378:	00000020 	andeq	r0, r0, r0, lsr #32
 37c:	420c0d42 	andmi	r0, ip, #4224	; 0x1080
 380:	038d048b 	orreq	r0, sp, #-1962934272	; 0x8b000000
 384:	0c42028e 	sfmeq	f0, 2, [r2], {142}	; 0x8e
 388:	0c46040b 	cfstrdeq	mvd0, [r6], {11}
 38c:	ce42100d 	cdpgt	0, 4, cr1, cr2, cr13, {0}
 390:	040ecbcd 	streq	ip, [lr], #-3021	; 0xbcd
