
thread-test.elf:     file format elf32-littlearm


Disassembly of section .text:

00008000 <_start>:
    8000:	e3a0d302 	mov	sp, #134217728	; 0x8000000
    8004:	e3a0b000 	mov	fp, #0
    8008:	eb0003d7 	bl	8f6c <_cstart>
    800c:	eb000589 	bl	9638 <rpi_reboot>

00008010 <thread_code>:
    8010:	e92d4010 	push	{r4, lr}
    8014:	e1a04000 	mov	r4, r0
    8018:	eb000243 	bl	892c <rpi_cur_thread>
    801c:	e5901008 	ldr	r1, [r0, #8]
    8020:	e59f0048 	ldr	r0, [pc, #72]	; 8070 <thread_code+0x60>
    8024:	e1a02004 	mov	r2, r4
    8028:	eb00040d 	bl	9064 <printk>
    802c:	e59f3040 	ldr	r3, [pc, #64]	; 8074 <thread_code+0x64>
    8030:	e5932000 	ldr	r2, [r3]
    8034:	e2822001 	add	r2, r2, #1
    8038:	e5832000 	str	r2, [r3]
    803c:	e59f3034 	ldr	r3, [pc, #52]	; 8078 <thread_code+0x68>
    8040:	e5932000 	ldr	r2, [r3]
    8044:	e0844002 	add	r4, r4, r2
    8048:	e5834000 	str	r4, [r3]
    804c:	eb000182 	bl	865c <rpi_yield>
    8050:	eb000181 	bl	865c <rpi_yield>
    8054:	eb000180 	bl	865c <rpi_yield>
    8058:	eb00017f 	bl	865c <rpi_yield>
    805c:	eb00017e 	bl	865c <rpi_yield>
    8060:	eb00017d 	bl	865c <rpi_yield>
    8064:	eb00017c 	bl	865c <rpi_yield>
    8068:	eb00017b 	bl	865c <rpi_yield>
    806c:	e8bd8010 	pop	{r4, pc}
    8070:	00009d18 	andeq	r9, r0, r8, lsl sp
    8074:	0000a980 	andeq	sl, r0, r0, lsl #19
    8078:	0000a97c 	andeq	sl, r0, ip, ror r9

0000807c <increase_mem_by_one>:
    807c:	e92d40f8 	push	{r3, r4, r5, r6, r7, lr}
    8080:	e1a04000 	mov	r4, r0
    8084:	eb000228 	bl	892c <rpi_cur_thread>
    8088:	e5901008 	ldr	r1, [r0, #8]
    808c:	e59f0050 	ldr	r0, [pc, #80]	; 80e4 <increase_mem_by_one+0x68>
    8090:	eb0003f3 	bl	9064 <printk>
    8094:	e5942000 	ldr	r2, [r4]
    8098:	e59f3048 	ldr	r3, [pc, #72]	; 80e8 <increase_mem_by_one+0x6c>
    809c:	e1520003 	cmp	r2, r3
    80a0:	c8bd80f8 	popgt	{r3, r4, r5, r6, r7, pc}
    80a4:	e59f7038 	ldr	r7, [pc, #56]	; 80e4 <increase_mem_by_one+0x68>
    80a8:	e59f603c 	ldr	r6, [pc, #60]	; 80ec <increase_mem_by_one+0x70>
    80ac:	e1a05003 	mov	r5, r3
    80b0:	e5943000 	ldr	r3, [r4]
    80b4:	e2833001 	add	r3, r3, #1
    80b8:	e5843000 	str	r3, [r4]
    80bc:	eb00021a 	bl	892c <rpi_cur_thread>
    80c0:	e5901008 	ldr	r1, [r0, #8]
    80c4:	e1a00007 	mov	r0, r7
    80c8:	eb0003e5 	bl	9064 <printk>
    80cc:	e1a00006 	mov	r0, r6
    80d0:	eb000593 	bl	9724 <delay_ms>
    80d4:	e5943000 	ldr	r3, [r4]
    80d8:	e1530005 	cmp	r3, r5
    80dc:	dafffff3 	ble	80b0 <increase_mem_by_one+0x34>
    80e0:	e8bd80f8 	pop	{r3, r4, r5, r6, r7, pc}
    80e4:	00009d30 	andeq	r9, r0, r0, lsr sp
    80e8:	05f5e0ff 	ldrbeq	lr, [r5, #255]!	; 0xff
    80ec:	00000bb8 			; <UNDEFINED> instruction: 0x00000bb8

000080f0 <part0>:
    80f0:	e92d41f0 	push	{r4, r5, r6, r7, r8, lr}
    80f4:	e24ddf82 	sub	sp, sp, #520	; 0x208
    80f8:	e59f01b0 	ldr	r0, [pc, #432]	; 82b0 <part0+0x1c0>
    80fc:	eb0003d8 	bl	9064 <printk>
    8100:	eb00024b 	bl	8a34 <rpi_get_cpsr>
    8104:	e1a04000 	mov	r4, r0
    8108:	e59f01a4 	ldr	r0, [pc, #420]	; 82b4 <part0+0x1c4>
    810c:	e1a01004 	mov	r1, r4
    8110:	eb0003d3 	bl	9064 <printk>
    8114:	e1a013a4 	lsr	r1, r4, #7
    8118:	e59f0198 	ldr	r0, [pc, #408]	; 82b8 <part0+0x1c8>
    811c:	e2011001 	and	r1, r1, #1
    8120:	eb0003cf 	bl	9064 <printk>
    8124:	e3140080 	tst	r4, #128	; 0x80
    8128:	1a000005 	bne	8144 <part0+0x54>
    812c:	e59f0188 	ldr	r0, [pc, #392]	; 82bc <part0+0x1cc>
    8130:	e59f1188 	ldr	r1, [pc, #392]	; 82c0 <part0+0x1d0>
    8134:	e59f2188 	ldr	r2, [pc, #392]	; 82c4 <part0+0x1d4>
    8138:	e3a03019 	mov	r3, #25
    813c:	eb0003c8 	bl	9064 <printk>
    8140:	eb00053c 	bl	9638 <rpi_reboot>
    8144:	e6ef4074 	uxtb	r4, r4
    8148:	e59f0178 	ldr	r0, [pc, #376]	; 82c8 <part0+0x1d8>
    814c:	e1a01004 	mov	r1, r4
    8150:	eb0003c3 	bl	9064 <printk>
    8154:	e35400d3 	cmp	r4, #211	; 0xd3
    8158:	0a000005 	beq	8174 <part0+0x84>
    815c:	e59f0168 	ldr	r0, [pc, #360]	; 82cc <part0+0x1dc>
    8160:	e59f1158 	ldr	r1, [pc, #344]	; 82c0 <part0+0x1d0>
    8164:	e59f2158 	ldr	r2, [pc, #344]	; 82c4 <part0+0x1d4>
    8168:	e3a0301b 	mov	r3, #27
    816c:	eb0003bc 	bl	9064 <printk>
    8170:	eb000530 	bl	9638 <rpi_reboot>
    8174:	e3a03000 	mov	r3, #0
    8178:	e58d3200 	str	r3, [sp, #512]	; 0x200
    817c:	e58d3204 	str	r3, [sp, #516]	; 0x204
    8180:	e59f0148 	ldr	r0, [pc, #328]	; 82d0 <part0+0x1e0>
    8184:	e28d1c02 	add	r1, sp, #512	; 0x200
    8188:	eb0003b5 	bl	9064 <printk>
    818c:	e28d0c02 	add	r0, sp, #512	; 0x200
    8190:	e3a01001 	mov	r1, #1
    8194:	e3a02002 	mov	r2, #2
    8198:	e3a03003 	mov	r3, #3
    819c:	eb000210 	bl	89e4 <test_csave>
    81a0:	e1a06000 	mov	r6, r0
    81a4:	e28d8c02 	add	r8, sp, #512	; 0x200
    81a8:	e0605008 	rsb	r5, r0, r8
    81ac:	e1a05145 	asr	r5, r5, #2
    81b0:	e59f011c 	ldr	r0, [pc, #284]	; 82d4 <part0+0x1e4>
    81b4:	e1a01008 	mov	r1, r8
    81b8:	e1a02005 	mov	r2, r5
    81bc:	e1a03105 	lsl	r3, r5, #2
    81c0:	eb0003a7 	bl	9064 <printk>
    81c4:	e3550000 	cmp	r5, #0
    81c8:	0a00000a 	beq	81f8 <part0+0x108>
    81cc:	e3a03000 	mov	r3, #0
    81d0:	e1a04003 	mov	r4, r3
    81d4:	e59f70fc 	ldr	r7, [pc, #252]	; 82d8 <part0+0x1e8>
    81d8:	e1a00007 	mov	r0, r7
    81dc:	e1a01004 	mov	r1, r4
    81e0:	e7962103 	ldr	r2, [r6, r3, lsl #2]
    81e4:	eb00039e 	bl	9064 <printk>
    81e8:	e2844001 	add	r4, r4, #1
    81ec:	e1a03004 	mov	r3, r4
    81f0:	e1540005 	cmp	r4, r5
    81f4:	1afffff7 	bne	81d8 <part0+0xe8>
    81f8:	e59d3204 	ldr	r3, [sp, #516]	; 0x204
    81fc:	e3530000 	cmp	r3, #0
    8200:	0a000005 	beq	821c <part0+0x12c>
    8204:	e59f00d0 	ldr	r0, [pc, #208]	; 82dc <part0+0x1ec>
    8208:	e59f10b0 	ldr	r1, [pc, #176]	; 82c0 <part0+0x1d0>
    820c:	e59f20b0 	ldr	r2, [pc, #176]	; 82c4 <part0+0x1d4>
    8210:	e3a03029 	mov	r3, #41	; 0x29
    8214:	eb000392 	bl	9064 <printk>
    8218:	eb000506 	bl	9638 <rpi_reboot>
    821c:	e28d0c02 	add	r0, sp, #512	; 0x200
    8220:	e3a01001 	mov	r1, #1
    8224:	e3a02002 	mov	r2, #2
    8228:	e3a03003 	mov	r3, #3
    822c:	eb0001ff 	bl	8a30 <test_csave_stmfd>
    8230:	e1a06000 	mov	r6, r0
    8234:	e0605008 	rsb	r5, r0, r8
    8238:	e1a05145 	asr	r5, r5, #2
    823c:	e59f0090 	ldr	r0, [pc, #144]	; 82d4 <part0+0x1e4>
    8240:	e28d1c02 	add	r1, sp, #512	; 0x200
    8244:	e1a02005 	mov	r2, r5
    8248:	e1a03105 	lsl	r3, r5, #2
    824c:	eb000384 	bl	9064 <printk>
    8250:	e3550000 	cmp	r5, #0
    8254:	0a00000a 	beq	8284 <part0+0x194>
    8258:	e3a03000 	mov	r3, #0
    825c:	e1a04003 	mov	r4, r3
    8260:	e59f7070 	ldr	r7, [pc, #112]	; 82d8 <part0+0x1e8>
    8264:	e1a00007 	mov	r0, r7
    8268:	e1a01004 	mov	r1, r4
    826c:	e7962103 	ldr	r2, [r6, r3, lsl #2]
    8270:	eb00037b 	bl	9064 <printk>
    8274:	e2844001 	add	r4, r4, #1
    8278:	e1a03004 	mov	r3, r4
    827c:	e1540005 	cmp	r4, r5
    8280:	1afffff7 	bne	8264 <part0+0x174>
    8284:	e59d3204 	ldr	r3, [sp, #516]	; 0x204
    8288:	e3530000 	cmp	r3, #0
    828c:	0a000005 	beq	82a8 <part0+0x1b8>
    8290:	e59f0044 	ldr	r0, [pc, #68]	; 82dc <part0+0x1ec>
    8294:	e59f1024 	ldr	r1, [pc, #36]	; 82c0 <part0+0x1d0>
    8298:	e59f2024 	ldr	r2, [pc, #36]	; 82c4 <part0+0x1d4>
    829c:	e3a03030 	mov	r3, #48	; 0x30
    82a0:	eb00036f 	bl	9064 <printk>
    82a4:	eb0004e3 	bl	9638 <rpi_reboot>
    82a8:	e28ddf82 	add	sp, sp, #520	; 0x208
    82ac:	e8bd81f0 	pop	{r4, r5, r6, r7, r8, pc}
    82b0:	00009d48 	andeq	r9, r0, r8, asr #26
    82b4:	00009d58 	andeq	r9, r0, r8, asr sp
    82b8:	00009d68 	andeq	r9, r0, r8, ror #26
    82bc:	00009d88 	andeq	r9, r0, r8, lsl #27
    82c0:	00009da8 	andeq	r9, r0, r8, lsr #27
    82c4:	00009cfc 	strdeq	r9, [r0], -ip
    82c8:	00009db8 			; <UNDEFINED> instruction: 0x00009db8
    82cc:	00009dc8 	andeq	r9, r0, r8, asr #27
    82d0:	00009df0 	strdeq	r9, [r0], -r0
    82d4:	00009e00 	andeq	r9, r0, r0, lsl #28
    82d8:	00009e30 	andeq	r9, r0, r0, lsr lr
    82dc:	00009e40 	andeq	r9, r0, r0, asr #28

000082e0 <notreached>:
    82e0:	e92d4008 	push	{r3, lr}
    82e4:	e59f0010 	ldr	r0, [pc, #16]	; 82fc <notreached+0x1c>
    82e8:	e59f1010 	ldr	r1, [pc, #16]	; 8300 <notreached+0x20>
    82ec:	e59f2010 	ldr	r2, [pc, #16]	; 8304 <notreached+0x24>
    82f0:	e3a03035 	mov	r3, #53	; 0x35
    82f4:	eb00035a 	bl	9064 <printk>
    82f8:	eb0004ce 	bl	9638 <rpi_reboot>
    82fc:	00009e58 	andeq	r9, r0, r8, asr lr
    8300:	00009da8 	andeq	r9, r0, r8, lsr #27
    8304:	00009d04 	andeq	r9, r0, r4, lsl #26

00008308 <part1>:
    8308:	e92d41f0 	push	{r4, r5, r6, r7, r8, lr}
    830c:	e24dd902 	sub	sp, sp, #32768	; 0x8000
    8310:	e24dd050 	sub	sp, sp, #80	; 0x50
    8314:	e28d0004 	add	r0, sp, #4
    8318:	e3a01000 	mov	r1, #0
    831c:	e59f2074 	ldr	r2, [pc, #116]	; 8398 <part1+0x90>
    8320:	eb00050e 	bl	9760 <memset>
    8324:	e59f0070 	ldr	r0, [pc, #112]	; 839c <part1+0x94>
    8328:	eb00034d 	bl	9064 <printk>
    832c:	e3a04000 	mov	r4, #0
    8330:	e59f8068 	ldr	r8, [pc, #104]	; 83a0 <part1+0x98>
    8334:	e28d5008 	add	r5, sp, #8
    8338:	e59f7064 	ldr	r7, [pc, #100]	; 83a4 <part1+0x9c>
    833c:	e59f6064 	ldr	r6, [pc, #100]	; 83a8 <part1+0xa0>
    8340:	e1a00008 	mov	r0, r8
    8344:	e1a01004 	mov	r1, r4
    8348:	e1a02005 	mov	r2, r5
    834c:	eb000344 	bl	9064 <printk>
    8350:	e1a00005 	mov	r0, r5
    8354:	e1a01005 	mov	r1, r5
    8358:	eb0001b8 	bl	8a40 <rpi_cswitch>
    835c:	e1a02000 	mov	r2, r0
    8360:	e1a00007 	mov	r0, r7
    8364:	e1a01004 	mov	r1, r4
    8368:	e59d3008 	ldr	r3, [sp, #8]
    836c:	eb00033c 	bl	9064 <printk>
    8370:	eb0001af 	bl	8a34 <rpi_get_cpsr>
    8374:	e1a01000 	mov	r1, r0
    8378:	e1a00006 	mov	r0, r6
    837c:	eb000338 	bl	9064 <printk>
    8380:	e2844001 	add	r4, r4, #1
    8384:	e3540064 	cmp	r4, #100	; 0x64
    8388:	1affffec 	bne	8340 <part1+0x38>
    838c:	e28dd902 	add	sp, sp, #32768	; 0x8000
    8390:	e28dd050 	add	sp, sp, #80	; 0x50
    8394:	e8bd81f0 	pop	{r4, r5, r6, r7, r8, pc}
    8398:	0000804c 	andeq	r8, r0, ip, asr #32
    839c:	00009e84 	andeq	r9, r0, r4, lsl #29
    83a0:	00009e94 	muleq	r0, r4, lr
    83a4:	00009ebc 			; <UNDEFINED> instruction: 0x00009ebc
    83a8:	00009ed4 	ldrdeq	r9, [r0], -r4

000083ac <part2>:
    83ac:	e92d4038 	push	{r3, r4, r5, lr}
    83b0:	e59f0074 	ldr	r0, [pc, #116]	; 842c <part2+0x80>
    83b4:	eb00032a 	bl	9064 <printk>
    83b8:	e3a04000 	mov	r4, #0
    83bc:	e59f306c 	ldr	r3, [pc, #108]	; 8430 <part2+0x84>
    83c0:	e5834000 	str	r4, [r3]
    83c4:	e59f3068 	ldr	r3, [pc, #104]	; 8434 <part2+0x88>
    83c8:	e5834000 	str	r4, [r3]
    83cc:	e59f5064 	ldr	r5, [pc, #100]	; 8438 <part2+0x8c>
    83d0:	e1a00005 	mov	r0, r5
    83d4:	e1a01004 	mov	r1, r4
    83d8:	eb00006e 	bl	8598 <rpi_fork>
    83dc:	e2844001 	add	r4, r4, #1
    83e0:	e354001e 	cmp	r4, #30
    83e4:	1afffff9 	bne	83d0 <part2+0x24>
    83e8:	e3a00000 	mov	r0, #0
    83ec:	eb00012f 	bl	88b0 <rpi_thread_start>
    83f0:	e59f4038 	ldr	r4, [pc, #56]	; 8430 <part2+0x84>
    83f4:	e5941000 	ldr	r1, [r4]
    83f8:	e59f3034 	ldr	r3, [pc, #52]	; 8434 <part2+0x88>
    83fc:	e5932000 	ldr	r2, [r3]
    8400:	e59f0034 	ldr	r0, [pc, #52]	; 843c <part2+0x90>
    8404:	eb000316 	bl	9064 <printk>
    8408:	e5943000 	ldr	r3, [r4]
    840c:	e353001e 	cmp	r3, #30
    8410:	08bd8038 	popeq	{r3, r4, r5, pc}
    8414:	e59f0024 	ldr	r0, [pc, #36]	; 8440 <part2+0x94>
    8418:	e59f1024 	ldr	r1, [pc, #36]	; 8444 <part2+0x98>
    841c:	e59f2024 	ldr	r2, [pc, #36]	; 8448 <part2+0x9c>
    8420:	e3a03062 	mov	r3, #98	; 0x62
    8424:	eb00030e 	bl	9064 <printk>
    8428:	eb000482 	bl	9638 <rpi_reboot>
    842c:	00009ee4 	andeq	r9, r0, r4, ror #29
    8430:	0000a980 	andeq	sl, r0, r0, lsl #19
    8434:	0000a97c 	andeq	sl, r0, ip, ror r9
    8438:	00008010 	andeq	r8, r0, r0, lsl r0
    843c:	00009ef4 	strdeq	r9, [r0], -r4
    8440:	00009f08 	andeq	r9, r0, r8, lsl #30
    8444:	00009da8 	andeq	r9, r0, r8, lsr #27
    8448:	00009d10 	andeq	r9, r0, r0, lsl sp

0000844c <preemptive_thread_increase>:
    844c:	e92d4070 	push	{r4, r5, r6, lr}
    8450:	e59f004c 	ldr	r0, [pc, #76]	; 84a4 <preemptive_thread_increase+0x58>
    8454:	e59f104c 	ldr	r1, [pc, #76]	; 84a8 <preemptive_thread_increase+0x5c>
    8458:	eb000301 	bl	9064 <printk>
    845c:	e3a02000 	mov	r2, #0
    8460:	e3a03601 	mov	r3, #1048576	; 0x100000
    8464:	e5832000 	str	r2, [r3]
    8468:	e3a04004 	mov	r4, #4
    846c:	e59f6034 	ldr	r6, [pc, #52]	; 84a8 <preemptive_thread_increase+0x5c>
    8470:	e1a05003 	mov	r5, r3
    8474:	e1a00006 	mov	r0, r6
    8478:	e1a01005 	mov	r1, r5
    847c:	eb000045 	bl	8598 <rpi_fork>
    8480:	e2544001 	subs	r4, r4, #1
    8484:	1afffffa 	bne	8474 <preemptive_thread_increase+0x28>
    8488:	e3a00001 	mov	r0, #1
    848c:	eb000107 	bl	88b0 <rpi_thread_start>
    8490:	e59f0014 	ldr	r0, [pc, #20]	; 84ac <preemptive_thread_increase+0x60>
    8494:	e3a03601 	mov	r3, #1048576	; 0x100000
    8498:	e5931000 	ldr	r1, [r3]
    849c:	eb0002f0 	bl	9064 <printk>
    84a0:	e8bd8070 	pop	{r4, r5, r6, pc}
    84a4:	00009f2c 	andeq	r9, r0, ip, lsr #30
    84a8:	0000807c 	andeq	r8, r0, ip, ror r0
    84ac:	00009f5c 	andeq	r9, r0, ip, asr pc

000084b0 <notmain>:
    84b0:	e92d4008 	push	{r3, lr}
    84b4:	eb000531 	bl	9980 <uart_init>
    84b8:	ebffffe3 	bl	844c <preemptive_thread_increase>
    84bc:	eb00047b 	bl	96b0 <clean_reboot>

000084c0 <Q_append>:
    84c0:	e3a03000 	mov	r3, #0
    84c4:	e5813000 	str	r3, [r1]
    84c8:	e5903004 	ldr	r3, [r0, #4]
    84cc:	e3530000 	cmp	r3, #0
    84d0:	05801004 	streq	r1, [r0, #4]
    84d4:	05801000 	streq	r1, [r0]
    84d8:	15831000 	strne	r1, [r3]
    84dc:	15801004 	strne	r1, [r0, #4]
    84e0:	e12fff1e 	bx	lr

000084e4 <Q_pop>:
    84e4:	e92d4008 	push	{r3, lr}
    84e8:	e2503000 	subs	r3, r0, #0
    84ec:	1a000005 	bne	8508 <Q_pop+0x24>
    84f0:	e59f0054 	ldr	r0, [pc, #84]	; 854c <Q_pop+0x68>
    84f4:	e59f1054 	ldr	r1, [pc, #84]	; 8550 <Q_pop+0x6c>
    84f8:	e59f2054 	ldr	r2, [pc, #84]	; 8554 <Q_pop+0x70>
    84fc:	e3a0301b 	mov	r3, #27
    8500:	eb0002d7 	bl	9064 <printk>
    8504:	eb00044b 	bl	9638 <rpi_reboot>
    8508:	e5930000 	ldr	r0, [r3]
    850c:	e3500000 	cmp	r0, #0
    8510:	1a000008 	bne	8538 <Q_pop+0x54>
    8514:	e5930004 	ldr	r0, [r3, #4]
    8518:	e3500000 	cmp	r0, #0
    851c:	08bd8008 	popeq	{r3, pc}
    8520:	e59f0030 	ldr	r0, [pc, #48]	; 8558 <Q_pop+0x74>
    8524:	e59f1024 	ldr	r1, [pc, #36]	; 8550 <Q_pop+0x6c>
    8528:	e59f2024 	ldr	r2, [pc, #36]	; 8554 <Q_pop+0x70>
    852c:	e3a0301f 	mov	r3, #31
    8530:	eb0002cb 	bl	9064 <printk>
    8534:	eb00043f 	bl	9638 <rpi_reboot>
    8538:	e5902000 	ldr	r2, [r0]
    853c:	e5832000 	str	r2, [r3]
    8540:	e3520000 	cmp	r2, #0
    8544:	05832004 	streq	r2, [r3, #4]
    8548:	e8bd8008 	pop	{r3, pc}
    854c:	00009f78 	andeq	r9, r0, r8, ror pc
    8550:	00009fa4 	andeq	r9, r0, r4, lsr #31
    8554:	00009f70 	andeq	r9, r0, r0, ror pc
    8558:	00009fa8 	andeq	r9, r0, r8, lsr #31

0000855c <mk_thread>:
    855c:	e92d4008 	push	{r3, lr}
    8560:	e59f0028 	ldr	r0, [pc, #40]	; 8590 <mk_thread+0x34>
    8564:	ebffffde 	bl	84e4 <Q_pop>
    8568:	e3500000 	cmp	r0, #0
    856c:	1a000001 	bne	8578 <mk_thread+0x1c>
    8570:	e59f001c 	ldr	r0, [pc, #28]	; 8594 <mk_thread+0x38>
    8574:	eb000545 	bl	9a90 <kmalloc>
    8578:	e59f3010 	ldr	r3, [pc, #16]	; 8590 <mk_thread+0x34>
    857c:	e593200c 	ldr	r2, [r3, #12]
    8580:	e5802008 	str	r2, [r0, #8]
    8584:	e2822001 	add	r2, r2, #1
    8588:	e583200c 	str	r2, [r3, #12]
    858c:	e8bd8008 	pop	{r3, pc}
    8590:	0000a558 	andeq	sl, r0, r8, asr r5
    8594:	0000804c 	andeq	r8, r0, ip, asr #32

00008598 <rpi_fork>:
    8598:	e92d4070 	push	{r4, r5, r6, lr}
    859c:	e1a06000 	mov	r6, r0
    85a0:	e1a05001 	mov	r5, r1
    85a4:	ebffffec 	bl	855c <mk_thread>
    85a8:	e1a04000 	mov	r4, r0
    85ac:	e2803902 	add	r3, r0, #32768	; 0x8000
    85b0:	e2833048 	add	r3, r3, #72	; 0x48
    85b4:	e5803004 	str	r3, [r0, #4]
    85b8:	e59f2040 	ldr	r2, [pc, #64]	; 8600 <rpi_fork+0x68>
    85bc:	e580204c 	str	r2, [r0, #76]	; 0x4c
    85c0:	e2822004 	add	r2, r2, #4
    85c4:	e5802048 	str	r2, [r0, #72]	; 0x48
    85c8:	e5803044 	str	r3, [r0, #68]	; 0x44
    85cc:	e5806014 	str	r6, [r0, #20]
    85d0:	e5805010 	str	r5, [r0, #16]
    85d4:	eb000116 	bl	8a34 <rpi_get_cpsr>
    85d8:	e584000c 	str	r0, [r4, #12]
    85dc:	e59f0020 	ldr	r0, [pc, #32]	; 8604 <rpi_fork+0x6c>
    85e0:	e2841010 	add	r1, r4, #16
    85e4:	e5942004 	ldr	r2, [r4, #4]
    85e8:	eb00029d 	bl	9064 <printk>
    85ec:	e59f0014 	ldr	r0, [pc, #20]	; 8608 <rpi_fork+0x70>
    85f0:	e1a01004 	mov	r1, r4
    85f4:	ebffffb1 	bl	84c0 <Q_append>
    85f8:	e1a00004 	mov	r0, r4
    85fc:	e8bd8070 	pop	{r4, r5, r6, pc}
    8600:	00008ad8 	ldrdeq	r8, [r0], -r8	; <UNPREDICTABLE>
    8604:	00009fd8 	ldrdeq	r9, [r0], -r8
    8608:	0000a568 	andeq	sl, r0, r8, ror #10

0000860c <rpi_exit>:
    860c:	e92d4038 	push	{r3, r4, r5, lr}
    8610:	e59f4040 	ldr	r4, [pc, #64]	; 8658 <rpi_exit+0x4c>
    8614:	e594501c 	ldr	r5, [r4, #28]
    8618:	e1a00004 	mov	r0, r4
    861c:	e1a01005 	mov	r1, r5
    8620:	ebffffa6 	bl	84c0 <Q_append>
    8624:	e2840010 	add	r0, r4, #16
    8628:	ebffffad 	bl	84e4 <Q_pop>
    862c:	e584001c 	str	r0, [r4, #28]
    8630:	e3500000 	cmp	r0, #0
    8634:	01a03004 	moveq	r3, r4
    8638:	05932020 	ldreq	r2, [r3, #32]
    863c:	0583201c 	streq	r2, [r3, #28]
    8640:	e59f3010 	ldr	r3, [pc, #16]	; 8658 <rpi_exit+0x4c>
    8644:	e593101c 	ldr	r1, [r3, #28]
    8648:	e2850004 	add	r0, r5, #4
    864c:	e2811004 	add	r1, r1, #4
    8650:	eb0000fa 	bl	8a40 <rpi_cswitch>
    8654:	e8bd8038 	pop	{r3, r4, r5, pc}
    8658:	0000a558 	andeq	sl, r0, r8, asr r5

0000865c <rpi_yield>:
    865c:	e92d4070 	push	{r4, r5, r6, lr}
    8660:	e59f403c 	ldr	r4, [pc, #60]	; 86a4 <rpi_yield+0x48>
    8664:	e594601c 	ldr	r6, [r4, #28]
    8668:	e2840010 	add	r0, r4, #16
    866c:	ebffff9c 	bl	84e4 <Q_pop>
    8670:	e1a05000 	mov	r5, r0
    8674:	e584001c 	str	r0, [r4, #28]
    8678:	e3500000 	cmp	r0, #0
    867c:	01a03004 	moveq	r3, r4
    8680:	0583601c 	streq	r6, [r3, #28]
    8684:	08bd8070 	popeq	{r4, r5, r6, pc}
    8688:	e59f0018 	ldr	r0, [pc, #24]	; 86a8 <rpi_yield+0x4c>
    868c:	e1a01006 	mov	r1, r6
    8690:	ebffff8a 	bl	84c0 <Q_append>
    8694:	e2860004 	add	r0, r6, #4
    8698:	e2851004 	add	r1, r5, #4
    869c:	eb0000e7 	bl	8a40 <rpi_cswitch>
    86a0:	e8bd8070 	pop	{r4, r5, r6, pc}
    86a4:	0000a558 	andeq	sl, r0, r8, asr r5
    86a8:	0000a568 	andeq	sl, r0, r8, ror #10

000086ac <simpler_int_handler>:
    86ac:	e92d4070 	push	{r4, r5, r6, lr}
    86b0:	e1a06000 	mov	r6, r0
    86b4:	eb000240 	bl	8fbc <RPI_GetIRQController>
    86b8:	e5903000 	ldr	r3, [r0]
    86bc:	e3130001 	tst	r3, #1
    86c0:	0a00002a 	beq	8770 <simpler_int_handler+0xc4>
    86c4:	e59f50ac 	ldr	r5, [pc, #172]	; 8778 <simpler_int_handler+0xcc>
    86c8:	e595401c 	ldr	r4, [r5, #28]
    86cc:	e584600c 	str	r6, [r4, #12]
    86d0:	e2850010 	add	r0, r5, #16
    86d4:	ebffff82 	bl	84e4 <Q_pop>
    86d8:	e585001c 	str	r0, [r5, #28]
    86dc:	e3500000 	cmp	r0, #0
    86e0:	1a000005 	bne	86fc <simpler_int_handler+0x50>
    86e4:	e585401c 	str	r4, [r5, #28]
    86e8:	eb00023c 	bl	8fe0 <RPI_GetArmTimer>
    86ec:	e3a03001 	mov	r3, #1
    86f0:	e580300c 	str	r3, [r0, #12]
    86f4:	e3a00000 	mov	r0, #0
    86f8:	e8bd8070 	pop	{r4, r5, r6, pc}
    86fc:	e59f0078 	ldr	r0, [pc, #120]	; 877c <simpler_int_handler+0xd0>
    8700:	e5941008 	ldr	r1, [r4, #8]
    8704:	e594204c 	ldr	r2, [r4, #76]	; 0x4c
    8708:	e5943048 	ldr	r3, [r4, #72]	; 0x48
    870c:	eb000254 	bl	9064 <printk>
    8710:	e59f5060 	ldr	r5, [pc, #96]	; 8778 <simpler_int_handler+0xcc>
    8714:	e2850010 	add	r0, r5, #16
    8718:	e1a01004 	mov	r1, r4
    871c:	ebffff67 	bl	84c0 <Q_append>
    8720:	eb00022e 	bl	8fe0 <RPI_GetArmTimer>
    8724:	e3a03001 	mov	r3, #1
    8728:	e580300c 	str	r3, [r0, #12]
    872c:	e59f404c 	ldr	r4, [pc, #76]	; 8780 <simpler_int_handler+0xd4>
    8730:	e5942000 	ldr	r2, [r4]
    8734:	e595301c 	ldr	r3, [r5, #28]
    8738:	e2831010 	add	r1, r3, #16
    873c:	e5821000 	str	r1, [r2]
    8740:	e59f003c 	ldr	r0, [pc, #60]	; 8784 <simpler_int_handler+0xd8>
    8744:	e5931008 	ldr	r1, [r3, #8]
    8748:	e593204c 	ldr	r2, [r3, #76]	; 0x4c
    874c:	e5933048 	ldr	r3, [r3, #72]	; 0x48
    8750:	eb000243 	bl	9064 <printk>
    8754:	e5943000 	ldr	r3, [r4]
    8758:	e59f0028 	ldr	r0, [pc, #40]	; 8788 <simpler_int_handler+0xdc>
    875c:	e5931000 	ldr	r1, [r3]
    8760:	eb00023f 	bl	9064 <printk>
    8764:	e595301c 	ldr	r3, [r5, #28]
    8768:	e593000c 	ldr	r0, [r3, #12]
    876c:	e8bd8070 	pop	{r4, r5, r6, pc}
    8770:	e3a00000 	mov	r0, #0
    8774:	e8bd8070 	pop	{r4, r5, r6, pc}
    8778:	0000a558 	andeq	sl, r0, r8, asr r5
    877c:	0000a000 	andeq	sl, r0, r0
    8780:	00009ce8 	andeq	r9, r0, r8, ror #25
    8784:	0000a030 	andeq	sl, r0, r0, lsr r0
    8788:	0000a058 	andeq	sl, r0, r8, asr r0

0000878c <int_handler>:
    878c:	e92d41f0 	push	{r4, r5, r6, r7, r8, lr}
    8790:	e1a08000 	mov	r8, r0
    8794:	e1a07001 	mov	r7, r1
    8798:	e1a05002 	mov	r5, r2
    879c:	e59f00f0 	ldr	r0, [pc, #240]	; 8894 <int_handler+0x108>
    87a0:	eb00022f 	bl	9064 <printk>
    87a4:	eb000204 	bl	8fbc <RPI_GetIRQController>
    87a8:	e5903000 	ldr	r3, [r0]
    87ac:	e3130001 	tst	r3, #1
    87b0:	08bd81f0 	popeq	{r4, r5, r6, r7, r8, pc}
    87b4:	e59f00dc 	ldr	r0, [pc, #220]	; 8898 <int_handler+0x10c>
    87b8:	eb000229 	bl	9064 <printk>
    87bc:	e59f60d8 	ldr	r6, [pc, #216]	; 889c <int_handler+0x110>
    87c0:	e596401c 	ldr	r4, [r6, #28]
    87c4:	e2860010 	add	r0, r6, #16
    87c8:	ebffff45 	bl	84e4 <Q_pop>
    87cc:	e586001c 	str	r0, [r6, #28]
    87d0:	e3500000 	cmp	r0, #0
    87d4:	1a000004 	bne	87ec <int_handler+0x60>
    87d8:	e586401c 	str	r4, [r6, #28]
    87dc:	eb0001ff 	bl	8fe0 <RPI_GetArmTimer>
    87e0:	e3a03001 	mov	r3, #1
    87e4:	e580300c 	str	r3, [r0, #12]
    87e8:	e8bd81f0 	pop	{r4, r5, r6, r7, r8, pc}
    87ec:	e5943008 	ldr	r3, [r4, #8]
    87f0:	e3530000 	cmp	r3, #0
    87f4:	0a000002 	beq	8804 <int_handler+0x78>
    87f8:	e59f00a0 	ldr	r0, [pc, #160]	; 88a0 <int_handler+0x114>
    87fc:	e1a01004 	mov	r1, r4
    8800:	ebffff2e 	bl	84c0 <Q_append>
    8804:	eb0001f5 	bl	8fe0 <RPI_GetArmTimer>
    8808:	e3a03001 	mov	r3, #1
    880c:	e580300c 	str	r3, [r0, #12]
    8810:	e59f008c 	ldr	r0, [pc, #140]	; 88a4 <int_handler+0x118>
    8814:	e3a03601 	mov	r3, #1048576	; 0x100000
    8818:	e5931000 	ldr	r1, [r3]
    881c:	eb000210 	bl	9064 <printk>
    8820:	e59f6074 	ldr	r6, [pc, #116]	; 889c <int_handler+0x110>
    8824:	e596201c 	ldr	r2, [r6, #28]
    8828:	e5923004 	ldr	r3, [r2, #4]
    882c:	e2833040 	add	r3, r3, #64	; 0x40
    8830:	e5823004 	str	r3, [r2, #4]
    8834:	e5941004 	ldr	r1, [r4, #4]
    8838:	e59f0068 	ldr	r0, [pc, #104]	; 88a8 <int_handler+0x11c>
    883c:	e2411040 	sub	r1, r1, #64	; 0x40
    8840:	e1a02005 	mov	r2, r5
    8844:	eb000206 	bl	9064 <printk>
    8848:	e596301c 	ldr	r3, [r6, #28]
    884c:	e5932008 	ldr	r2, [r3, #8]
    8850:	e3520000 	cmp	r2, #0
    8854:	05942004 	ldreq	r2, [r4, #4]
    8858:	02822040 	addeq	r2, r2, #64	; 0x40
    885c:	05842004 	streq	r2, [r4, #4]
    8860:	15845004 	strne	r5, [r4, #4]
    8864:	e5942004 	ldr	r2, [r4, #4]
    8868:	e2422040 	sub	r2, r2, #64	; 0x40
    886c:	e5a42004 	str	r2, [r4, #4]!
    8870:	e59f0034 	ldr	r0, [pc, #52]	; 88ac <int_handler+0x120>
    8874:	e5931008 	ldr	r1, [r3, #8]
    8878:	eb0001f9 	bl	9064 <printk>
    887c:	e5884000 	str	r4, [r8]
    8880:	e59f3014 	ldr	r3, [pc, #20]	; 889c <int_handler+0x110>
    8884:	e593301c 	ldr	r3, [r3, #28]
    8888:	e2833004 	add	r3, r3, #4
    888c:	e5873000 	str	r3, [r7]
    8890:	e8bd81f0 	pop	{r4, r5, r6, r7, r8, pc}
    8894:	0000a070 	andeq	sl, r0, r0, ror r0
    8898:	0000a080 	andeq	sl, r0, r0, lsl #1
    889c:	0000a558 	andeq	sl, r0, r8, asr r5
    88a0:	0000a568 	andeq	sl, r0, r8, ror #10
    88a4:	0000a0a0 	andeq	sl, r0, r0, lsr #1
    88a8:	0000a0ac 	andeq	sl, r0, ip, lsr #1
    88ac:	0000a0f0 	strdeq	sl, [r0], -r0

000088b0 <rpi_thread_start>:
    88b0:	e92d4038 	push	{r3, r4, r5, lr}
    88b4:	e1a04000 	mov	r4, r0
    88b8:	ebffff27 	bl	855c <mk_thread>
    88bc:	e59f3058 	ldr	r3, [pc, #88]	; 891c <rpi_thread_start+0x6c>
    88c0:	e5830020 	str	r0, [r3, #32]
    88c4:	e3540000 	cmp	r4, #0
    88c8:	0a00000c 	beq	8900 <rpi_thread_start+0x50>
    88cc:	e59f404c 	ldr	r4, [pc, #76]	; 8920 <rpi_thread_start+0x70>
    88d0:	e5943004 	ldr	r3, [r4, #4]
    88d4:	e3a02000 	mov	r2, #0
    88d8:	e5832000 	str	r2, [r3]
    88dc:	eb00012f 	bl	8da0 <install_int_handlers>
    88e0:	e59f003c 	ldr	r0, [pc, #60]	; 8924 <rpi_thread_start+0x74>
    88e4:	eb0001c4 	bl	8ffc <timer_interrupt_init>
    88e8:	eb00007c 	bl	8ae0 <system_enable_interrupts>
    88ec:	e5943000 	ldr	r3, [r4]
    88f0:	e59f2024 	ldr	r2, [pc, #36]	; 891c <rpi_thread_start+0x6c>
    88f4:	e5922020 	ldr	r2, [r2, #32]
    88f8:	e2822010 	add	r2, r2, #16
    88fc:	e5832000 	str	r2, [r3]
    8900:	e59f5020 	ldr	r5, [pc, #32]	; 8928 <rpi_thread_start+0x78>
    8904:	e3a04ffa 	mov	r4, #1000	; 0x3e8
    8908:	e1a00005 	mov	r0, r5
    890c:	eb0001d4 	bl	9064 <printk>
    8910:	e1a00004 	mov	r0, r4
    8914:	eb000382 	bl	9724 <delay_ms>
    8918:	eafffffa 	b	8908 <rpi_thread_start+0x58>
    891c:	0000a558 	andeq	sl, r0, r8, asr r5
    8920:	00009ce8 	andeq	r9, r0, r8, ror #25
    8924:	00001b58 	andeq	r1, r0, r8, asr fp
    8928:	0000a108 	andeq	sl, r0, r8, lsl #2

0000892c <rpi_cur_thread>:
    892c:	e59f3004 	ldr	r3, [pc, #4]	; 8938 <rpi_cur_thread+0xc>
    8930:	e593001c 	ldr	r0, [r3, #28]
    8934:	e12fff1e 	bx	lr
    8938:	0000a558 	andeq	sl, r0, r8, asr r5

0000893c <enable_dni>:
    893c:	e59f300c 	ldr	r3, [pc, #12]	; 8950 <enable_dni+0x14>
    8940:	e5933004 	ldr	r3, [r3, #4]
    8944:	e3a02001 	mov	r2, #1
    8948:	e5832000 	str	r2, [r3]
    894c:	e12fff1e 	bx	lr
    8950:	00009ce8 	andeq	r9, r0, r8, ror #25

00008954 <disable_dni>:
    8954:	e59f300c 	ldr	r3, [pc, #12]	; 8968 <disable_dni+0x14>
    8958:	e5933004 	ldr	r3, [r3, #4]
    895c:	e3a02000 	mov	r2, #0
    8960:	e5832000 	str	r2, [r3]
    8964:	e12fff1e 	bx	lr
    8968:	00009ce8 	andeq	r9, r0, r8, ror #25

0000896c <clear_arm_timer_interrupt>:
    896c:	e92d4008 	push	{r3, lr}
    8970:	eb00019a 	bl	8fe0 <RPI_GetArmTimer>
    8974:	e3a03001 	mov	r3, #1
    8978:	e580300c 	str	r3, [r0, #12]
    897c:	e8bd8008 	pop	{r3, pc}

00008980 <check_dni>:
    8980:	e59f301c 	ldr	r3, [pc, #28]	; 89a4 <check_dni+0x24>
    8984:	e593301c 	ldr	r3, [r3, #28]
    8988:	e5933008 	ldr	r3, [r3, #8]
    898c:	e3530000 	cmp	r3, #0
    8990:	159f3010 	ldrne	r3, [pc, #16]	; 89a8 <check_dni+0x28>
    8994:	15933004 	ldrne	r3, [r3, #4]
    8998:	15930000 	ldrne	r0, [r3]
    899c:	03a00000 	moveq	r0, #0
    89a0:	e12fff1e 	bx	lr
    89a4:	0000a558 	andeq	sl, r0, r8, asr r5
    89a8:	00009ce8 	andeq	r9, r0, r8, ror #25

000089ac <check_regs>:
    89ac:	e92d4010 	push	{r4, lr}
    89b0:	e24dd008 	sub	sp, sp, #8
    89b4:	e1a04000 	mov	r4, r0
    89b8:	e1a0e001 	mov	lr, r1
    89bc:	e1a0c002 	mov	ip, r2
    89c0:	e58d3000 	str	r3, [sp]
    89c4:	e59f0014 	ldr	r0, [pc, #20]	; 89e0 <check_regs+0x34>
    89c8:	e1a01004 	mov	r1, r4
    89cc:	e1a0200e 	mov	r2, lr
    89d0:	e1a0300c 	mov	r3, ip
    89d4:	eb0001a2 	bl	9064 <printk>
    89d8:	e28dd008 	add	sp, sp, #8
    89dc:	e8bd8010 	pop	{r4, pc}
    89e0:	0000a13c 	andeq	sl, r0, ip, lsr r1

000089e4 <test_csave>:
    89e4:	e2400044 	sub	r0, r0, #68	; 0x44
    89e8:	e5801004 	str	r1, [r0, #4]
    89ec:	e5802008 	str	r2, [r0, #8]
    89f0:	e580300c 	str	r3, [r0, #12]
    89f4:	e5804010 	str	r4, [r0, #16]
    89f8:	e5805014 	str	r5, [r0, #20]
    89fc:	e5806018 	str	r6, [r0, #24]
    8a00:	e580701c 	str	r7, [r0, #28]
    8a04:	e5808020 	str	r8, [r0, #32]
    8a08:	e5809024 	str	r9, [r0, #36]	; 0x24
    8a0c:	e580a028 	str	sl, [r0, #40]	; 0x28
    8a10:	e580b02c 	str	fp, [r0, #44]	; 0x2c
    8a14:	e580c030 	str	ip, [r0, #48]	; 0x30
    8a18:	e580d034 	str	sp, [r0, #52]	; 0x34
    8a1c:	e580e038 	str	lr, [r0, #56]	; 0x38
    8a20:	e580f03c 	str	pc, [r0, #60]	; 0x3c
    8a24:	e10f1000 	mrs	r1, CPSR
    8a28:	e5801040 	str	r1, [r0, #64]	; 0x40
    8a2c:	e12fff1e 	bx	lr

00008a30 <test_csave_stmfd>:
    8a30:	e12fff1e 	bx	lr

00008a34 <rpi_get_cpsr>:
    8a34:	e10f0000 	mrs	r0, CPSR
    8a38:	e3c00080 	bic	r0, r0, #128	; 0x80
    8a3c:	e12fff1e 	bx	lr

00008a40 <rpi_cswitch>:
    8a40:	e24dd040 	sub	sp, sp, #64	; 0x40
    8a44:	e58d0000 	str	r0, [sp]
    8a48:	e58d1004 	str	r1, [sp, #4]
    8a4c:	e58d2008 	str	r2, [sp, #8]
    8a50:	e58d300c 	str	r3, [sp, #12]
    8a54:	e58d4010 	str	r4, [sp, #16]
    8a58:	e58d5014 	str	r5, [sp, #20]
    8a5c:	e58d6018 	str	r6, [sp, #24]
    8a60:	e58d701c 	str	r7, [sp, #28]
    8a64:	e58d8020 	str	r8, [sp, #32]
    8a68:	e58d9024 	str	r9, [sp, #36]	; 0x24
    8a6c:	e58da028 	str	sl, [sp, #40]	; 0x28
    8a70:	e58db02c 	str	fp, [sp, #44]	; 0x2c
    8a74:	e58dc030 	str	ip, [sp, #48]	; 0x30
    8a78:	e58de03c 	str	lr, [sp, #60]	; 0x3c
    8a7c:	e58df038 	str	pc, [sp, #56]	; 0x38
    8a80:	e10f2000 	mrs	r2, CPSR
    8a84:	e58d2034 	str	r2, [sp, #52]	; 0x34
    8a88:	e580d000 	str	sp, [r0]
    8a8c:	e591d000 	ldr	sp, [r1]
    8a90:	e59d0000 	ldr	r0, [sp]
    8a94:	e59d1034 	ldr	r1, [sp, #52]	; 0x34
    8a98:	e129f001 	msr	CPSR_fc, r1
    8a9c:	e59d1004 	ldr	r1, [sp, #4]
    8aa0:	e59d2008 	ldr	r2, [sp, #8]
    8aa4:	e59d300c 	ldr	r3, [sp, #12]
    8aa8:	e59d4010 	ldr	r4, [sp, #16]
    8aac:	e59d5014 	ldr	r5, [sp, #20]
    8ab0:	e59d6018 	ldr	r6, [sp, #24]
    8ab4:	e59d701c 	ldr	r7, [sp, #28]
    8ab8:	e59d8020 	ldr	r8, [sp, #32]
    8abc:	e59d9024 	ldr	r9, [sp, #36]	; 0x24
    8ac0:	e59da028 	ldr	sl, [sp, #40]	; 0x28
    8ac4:	e59db02c 	ldr	fp, [sp, #44]	; 0x2c
    8ac8:	e59dc030 	ldr	ip, [sp, #48]	; 0x30
    8acc:	e59de03c 	ldr	lr, [sp, #60]	; 0x3c
    8ad0:	e28dd040 	add	sp, sp, #64	; 0x40
    8ad4:	e1a0f00e 	mov	pc, lr

00008ad8 <rpi_init_trampoline>:
    8ad8:	e12fff31 	blx	r1
    8adc:	eafffeca 	b	860c <rpi_exit>

00008ae0 <system_enable_interrupts>:
    8ae0:	e10f0000 	mrs	r0, CPSR
    8ae4:	e3c00080 	bic	r0, r0, #128	; 0x80
    8ae8:	e121f000 	msr	CPSR_c, r0
    8aec:	e12fff1e 	bx	lr

00008af0 <system_disable_interrupts>:
    8af0:	e10f0000 	mrs	r0, CPSR
    8af4:	e3800080 	orr	r0, r0, #128	; 0x80
    8af8:	e121f000 	msr	CPSR_c, r0
    8afc:	e12fff1e 	bx	lr

00008b00 <_interrupt_table>:
    8b00:	e59ff030 	ldr	pc, [pc, #48]	; 8b38 <_reset_asm>
    8b04:	e59ff030 	ldr	pc, [pc, #48]	; 8b3c <_undefined_instruction_asm>
    8b08:	e59ff030 	ldr	pc, [pc, #48]	; 8b40 <_software_interrupt_asm>
    8b0c:	e59ff030 	ldr	pc, [pc, #48]	; 8b44 <_prefetch_abort_asm>
    8b10:	e59ff030 	ldr	pc, [pc, #48]	; 8b48 <_data_abort_asm>
    8b14:	e59ff01c 	ldr	pc, [pc, #28]	; 8b38 <_reset_asm>
    8b18:	e59ff02c 	ldr	pc, [pc, #44]	; 8b4c <_interrupt_asm>

00008b1c <fast_interrupt_asm>:
    8b1c:	e24ee004 	sub	lr, lr, #4
    8b20:	e52de004 	push	{lr}		; (str lr, [sp, #-4]!)
    8b24:	e92d1fff 	push	{r0, r1, r2, r3, r4, r5, r6, r7, r8, r9, sl, fp, ip}
    8b28:	e1a0000e 	mov	r0, lr
    8b2c:	eb0000b4 	bl	8e04 <fast_interrupt_vector>
    8b30:	e8bd1fff 	pop	{r0, r1, r2, r3, r4, r5, r6, r7, r8, r9, sl, fp, ip}
    8b34:	e8fd8000 	ldm	sp!, {pc}^

00008b38 <_reset_asm>:
    8b38:	00008d64 	andeq	r8, r0, r4, ror #26

00008b3c <_undefined_instruction_asm>:
    8b3c:	00008d70 	andeq	r8, r0, r0, ror sp

00008b40 <_software_interrupt_asm>:
    8b40:	00008d7c 	andeq	r8, r0, ip, ror sp

00008b44 <_prefetch_abort_asm>:
    8b44:	00008d88 	andeq	r8, r0, r8, lsl #27

00008b48 <_data_abort_asm>:
    8b48:	00008d94 	muleq	r0, r4, sp

00008b4c <_interrupt_asm>:
    8b4c:	00008bd4 	ldrdeq	r8, [r0], -r4

00008b50 <_interrupt_table_end>:
    8b50:	e3a00001 	mov	r0, #1
    8b54:	e3a01002 	mov	r1, #2
    8b58:	e3a02003 	mov	r2, #3
    8b5c:	e3a03004 	mov	r3, #4
    8b60:	eafffffa 	b	8b50 <_interrupt_table_end>

00008b64 <exp_interrupt_asm>:
    8b64:	e52dd004 	push	{sp}		; (str sp, [sp, #-4]!)
    8b68:	e8dd2000 	ldm	sp, {sp}^
    8b6c:	e3a0d409 	mov	sp, #150994944	; 0x9000000
    8b70:	e24ee004 	sub	lr, lr, #4
    8b74:	e52de004 	push	{lr}		; (str lr, [sp, #-4]!)
    8b78:	ebffff80 	bl	8980 <check_dni>
    8b7c:	e3500001 	cmp	r0, #1
    8b80:	0a00006f 	beq	8d44 <do_not_preempt>
    8b84:	e24dd004 	sub	sp, sp, #4
    8b88:	e1a0000d 	mov	r0, sp
    8b8c:	e24dd004 	sub	sp, sp, #4
    8b90:	e8cd2000 	stmia	sp, {sp}^
    8b94:	e49d2004 	pop	{r2}		; (ldr r2, [sp], #4)
    8b98:	eb000096 	bl	8df8 <interrupt_vector>
    8b9c:	e321f013 	msr	CPSR_c, #19
    8ba0:	e9ad5fff 	stmib	sp!, {r0, r1, r2, r3, r4, r5, r6, r7, r8, r9, sl, fp, ip, lr}
    8ba4:	e92d5fff 	push	{r0, r1, r2, r3, r4, r5, r6, r7, r8, r9, sl, fp, ip, lr}
    8ba8:	e1a0000d 	mov	r0, sp
    8bac:	ebffff7e 	bl	89ac <check_regs>
    8bb0:	e8bd5fff 	pop	{r0, r1, r2, r3, r4, r5, r6, r7, r8, r9, sl, fp, ip, lr}
    8bb4:	e321f012 	msr	CPSR_c, #18
    8bb8:	e321f013 	msr	CPSR_c, #19
    8bbc:	e3a00409 	mov	r0, #150994944	; 0x9000000
    8bc0:	e510d008 	ldr	sp, [r0, #-8]
    8bc4:	e83d5fff 	ldmda	sp!, {r0, r1, r2, r3, r4, r5, r6, r7, r8, r9, sl, fp, ip, lr}
    8bc8:	e321f012 	msr	CPSR_c, #18
    8bcc:	e49d0004 	pop	{r0}		; (ldr r0, [sp], #4)
    8bd0:	e87d8000 	ldmda	sp!, {pc}^

00008bd4 <simpler_interrupt_asm>:
    8bd4:	e24ee004 	sub	lr, lr, #4
    8bd8:	e3a0d409 	mov	sp, #150994944	; 0x9000000
    8bdc:	e28dd004 	add	sp, sp, #4
    8be0:	e59dd000 	ldr	sp, [sp]
    8be4:	e8cd7fff 	stmia	sp, {r0, r1, r2, r3, r4, r5, r6, r7, r8, r9, sl, fp, ip, sp, lr}^
    8be8:	e28dd03c 	add	sp, sp, #60	; 0x3c
    8bec:	e88d4000 	stm	sp, {lr}
    8bf0:	e14f0000 	mrs	r0, SPSR
    8bf4:	eb00007f 	bl	8df8 <interrupt_vector>
    8bf8:	e169f000 	msr	SPSR_fc, r0
    8bfc:	e3a00409 	mov	r0, #150994944	; 0x9000000
    8c00:	e2800004 	add	r0, r0, #4
    8c04:	e5900000 	ldr	r0, [r0]
    8c08:	e8d0ffff 	ldm	r0, {r0, r1, r2, r3, r4, r5, r6, r7, r8, r9, sl, fp, ip, sp, lr, pc}^

00008c0c <interrupt_asm>:
    8c0c:	e52dd004 	push	{sp}		; (str sp, [sp, #-4]!)
    8c10:	e8dd2000 	ldm	sp, {sp}^
    8c14:	e3a0d409 	mov	sp, #150994944	; 0x9000000
    8c18:	e24ee004 	sub	lr, lr, #4
    8c1c:	e92d5fff 	push	{r0, r1, r2, r3, r4, r5, r6, r7, r8, r9, sl, fp, ip, lr}
    8c20:	ebffff56 	bl	8980 <check_dni>
    8c24:	e3500001 	cmp	r0, #1
    8c28:	0a000045 	beq	8d44 <do_not_preempt>
    8c2c:	e24dd004 	sub	sp, sp, #4
    8c30:	e1a0000d 	mov	r0, sp
    8c34:	e24dd004 	sub	sp, sp, #4
    8c38:	e1a0100d 	mov	r1, sp
    8c3c:	e24dd004 	sub	sp, sp, #4
    8c40:	e8cd2000 	stmia	sp, {sp}^
    8c44:	e49d2004 	pop	{r2}		; (ldr r2, [sp], #4)
    8c48:	eb00006a 	bl	8df8 <interrupt_vector>
    8c4c:	e49d0004 	pop	{r0}		; (ldr r0, [sp], #4)
    8c50:	e49d1004 	pop	{r1}		; (ldr r1, [sp], #4)
    8c54:	e5900000 	ldr	r0, [r0]
    8c58:	e2400040 	sub	r0, r0, #64	; 0x40
    8c5c:	e5911000 	ldr	r1, [r1]
    8c60:	e49d3004 	pop	{r3}		; (ldr r3, [sp], #4)
    8c64:	e5813000 	str	r3, [r1]
    8c68:	e49d3004 	pop	{r3}		; (ldr r3, [sp], #4)
    8c6c:	e5813004 	str	r3, [r1, #4]
    8c70:	e49d3004 	pop	{r3}		; (ldr r3, [sp], #4)
    8c74:	e5813008 	str	r3, [r1, #8]
    8c78:	e49d3004 	pop	{r3}		; (ldr r3, [sp], #4)
    8c7c:	e581300c 	str	r3, [r1, #12]
    8c80:	e49d3004 	pop	{r3}		; (ldr r3, [sp], #4)
    8c84:	e5813010 	str	r3, [r1, #16]
    8c88:	e49d3004 	pop	{r3}		; (ldr r3, [sp], #4)
    8c8c:	e5813014 	str	r3, [r1, #20]
    8c90:	e49d3004 	pop	{r3}		; (ldr r3, [sp], #4)
    8c94:	e5813018 	str	r3, [r1, #24]
    8c98:	e49d3004 	pop	{r3}		; (ldr r3, [sp], #4)
    8c9c:	e581301c 	str	r3, [r1, #28]
    8ca0:	e49d3004 	pop	{r3}		; (ldr r3, [sp], #4)
    8ca4:	e5813020 	str	r3, [r1, #32]
    8ca8:	e49d3004 	pop	{r3}		; (ldr r3, [sp], #4)
    8cac:	e5813024 	str	r3, [r1, #36]	; 0x24
    8cb0:	e49d3004 	pop	{r3}		; (ldr r3, [sp], #4)
    8cb4:	e5813028 	str	r3, [r1, #40]	; 0x28
    8cb8:	e49d3004 	pop	{r3}		; (ldr r3, [sp], #4)
    8cbc:	e581302c 	str	r3, [r1, #44]	; 0x2c
    8cc0:	e49d3004 	pop	{r3}		; (ldr r3, [sp], #4)
    8cc4:	e5813030 	str	r3, [r1, #48]	; 0x30
    8cc8:	e49d3004 	pop	{r3}		; (ldr r3, [sp], #4)
    8ccc:	e581303c 	str	r3, [r1, #60]	; 0x3c
    8cd0:	f1020013 	cps	#19
    8cd4:	e1a0300e 	mov	r3, lr
    8cd8:	f1020012 	cps	#18
    8cdc:	e5813038 	str	r3, [r1, #56]	; 0x38
    8ce0:	e14f3000 	mrs	r3, SPSR
    8ce4:	e5813034 	str	r3, [r1, #52]	; 0x34
    8ce8:	e92d5fff 	push	{r0, r1, r2, r3, r4, r5, r6, r7, r8, r9, sl, fp, ip, lr}
    8cec:	e1a03001 	mov	r3, r1
    8cf0:	e5930034 	ldr	r0, [r3, #52]	; 0x34
    8cf4:	e593203c 	ldr	r2, [r3, #60]	; 0x3c
    8cf8:	e5931038 	ldr	r1, [r3, #56]	; 0x38
    8cfc:	ebffff2a 	bl	89ac <check_regs>
    8d00:	e8bd5fff 	pop	{r0, r1, r2, r3, r4, r5, r6, r7, r8, r9, sl, fp, ip, lr}
    8d04:	e1a0d000 	mov	sp, r0
    8d08:	e59d0034 	ldr	r0, [sp, #52]	; 0x34
    8d0c:	e169f000 	msr	SPSR_fc, r0
    8d10:	e1a0400d 	mov	r4, sp
    8d14:	e92d5fff 	push	{r0, r1, r2, r3, r4, r5, r6, r7, r8, r9, sl, fp, ip, lr}
    8d18:	e5940034 	ldr	r0, [r4, #52]	; 0x34
    8d1c:	e5941038 	ldr	r1, [r4, #56]	; 0x38
    8d20:	e594203c 	ldr	r2, [r4, #60]	; 0x3c
    8d24:	e1a03004 	mov	r3, r4
    8d28:	ebffff1f 	bl	89ac <check_regs>
    8d2c:	e8bd5fff 	pop	{r0, r1, r2, r3, r4, r5, r6, r7, r8, r9, sl, fp, ip, lr}
    8d30:	e8bd1fff 	pop	{r0, r1, r2, r3, r4, r5, r6, r7, r8, r9, sl, fp, ip}
    8d34:	e28dd004 	add	sp, sp, #4
    8d38:	e8dd4000 	ldm	sp, {lr}^
    8d3c:	e28dd004 	add	sp, sp, #4
    8d40:	e8fd8000 	ldm	sp!, {pc}^

00008d44 <do_not_preempt>:
    8d44:	e92d5fff 	push	{r0, r1, r2, r3, r4, r5, r6, r7, r8, r9, sl, fp, ip, lr}
    8d48:	ebffff07 	bl	896c <clear_arm_timer_interrupt>
    8d4c:	e8bd5fff 	pop	{r0, r1, r2, r3, r4, r5, r6, r7, r8, r9, sl, fp, ip, lr}
    8d50:	e8bd5fff 	pop	{r0, r1, r2, r3, r4, r5, r6, r7, r8, r9, sl, fp, ip, lr}
    8d54:	e24dd004 	sub	sp, sp, #4
    8d58:	e8cd2000 	stmia	sp, {sp}^
    8d5c:	e59dd000 	ldr	sp, [sp]
    8d60:	e1b0f00e 	movs	pc, lr

00008d64 <reset_asm>:
    8d64:	e24ee004 	sub	lr, lr, #4
    8d68:	e1a0000e 	mov	r0, lr
    8d6c:	eb000042 	bl	8e7c <reset_vector>

00008d70 <undefined_instruction_asm>:
    8d70:	e24ee004 	sub	lr, lr, #4
    8d74:	e1a0000e 	mov	r0, lr
    8d78:	eb00004e 	bl	8eb8 <undefined_instruction_vector>

00008d7c <software_interrupt_asm>:
    8d7c:	e24ee004 	sub	lr, lr, #4
    8d80:	e1a0000e 	mov	r0, lr
    8d84:	eb00002d 	bl	8e40 <software_interrupt_vector>

00008d88 <prefetch_abort_asm>:
    8d88:	e24ee004 	sub	lr, lr, #4
    8d8c:	e1a0000e 	mov	r0, lr
    8d90:	eb000057 	bl	8ef4 <prefetch_abort_vector>

00008d94 <data_abort_asm>:
    8d94:	e24ee004 	sub	lr, lr, #4
    8d98:	e1a0000e 	mov	r0, lr
    8d9c:	eb000063 	bl	8f30 <data_abort_vector>

00008da0 <install_int_handlers>:
    8da0:	e92d4008 	push	{r3, lr}
    8da4:	e59f0040 	ldr	r0, [pc, #64]	; 8dec <install_int_handlers+0x4c>
    8da8:	eb0000ad 	bl	9064 <printk>
    8dac:	e59f303c 	ldr	r3, [pc, #60]	; 8df0 <install_int_handlers+0x50>
    8db0:	e59f003c 	ldr	r0, [pc, #60]	; 8df4 <install_int_handlers+0x54>
    8db4:	e0630000 	rsb	r0, r3, r0
    8db8:	e1b00140 	asrs	r0, r0, #2
    8dbc:	08bd8008 	popeq	{r3, pc}
    8dc0:	e3a02000 	mov	r2, #0
    8dc4:	e1a03002 	mov	r3, r2
    8dc8:	e59fc020 	ldr	ip, [pc, #32]	; 8df0 <install_int_handlers+0x50>
    8dcc:	e1a01102 	lsl	r1, r2, #2
    8dd0:	e79c2102 	ldr	r2, [ip, r2, lsl #2]
    8dd4:	e5812000 	str	r2, [r1]
    8dd8:	e2833001 	add	r3, r3, #1
    8ddc:	e1a02003 	mov	r2, r3
    8de0:	e1530000 	cmp	r3, r0
    8de4:	1afffff8 	bne	8dcc <install_int_handlers+0x2c>
    8de8:	e8bd8008 	pop	{r3, pc}
    8dec:	0000a1e8 	andeq	sl, r0, r8, ror #3
    8df0:	00008b00 	andeq	r8, r0, r0, lsl #22
    8df4:	00008b50 	andeq	r8, r0, r0, asr fp

00008df8 <interrupt_vector>:
    8df8:	e92d4008 	push	{r3, lr}
    8dfc:	ebfffe2a 	bl	86ac <simpler_int_handler>
    8e00:	e8bd8008 	pop	{r3, pc}

00008e04 <fast_interrupt_vector>:
    8e04:	e52de004 	push	{lr}		; (str lr, [sp, #-4]!)
    8e08:	e24dd00c 	sub	sp, sp, #12
    8e0c:	e59f301c 	ldr	r3, [pc, #28]	; 8e30 <fast_interrupt_vector+0x2c>
    8e10:	e58d3000 	str	r3, [sp]
    8e14:	e58d0004 	str	r0, [sp, #4]
    8e18:	e59f0014 	ldr	r0, [pc, #20]	; 8e34 <fast_interrupt_vector+0x30>
    8e1c:	e59f1014 	ldr	r1, [pc, #20]	; 8e38 <fast_interrupt_vector+0x34>
    8e20:	e59f2014 	ldr	r2, [pc, #20]	; 8e3c <fast_interrupt_vector+0x38>
    8e24:	e3a03023 	mov	r3, #35	; 0x23
    8e28:	eb00008d 	bl	9064 <printk>
    8e2c:	eb000201 	bl	9638 <rpi_reboot>
    8e30:	0000a26c 	andeq	sl, r0, ip, ror #4
    8e34:	0000a200 	andeq	sl, r0, r0, lsl #4
    8e38:	0000a23c 	andeq	sl, r0, ip, lsr r2
    8e3c:	0000a158 	andeq	sl, r0, r8, asr r1

00008e40 <software_interrupt_vector>:
    8e40:	e52de004 	push	{lr}		; (str lr, [sp, #-4]!)
    8e44:	e24dd00c 	sub	sp, sp, #12
    8e48:	e59f301c 	ldr	r3, [pc, #28]	; 8e6c <software_interrupt_vector+0x2c>
    8e4c:	e58d3000 	str	r3, [sp]
    8e50:	e58d0004 	str	r0, [sp, #4]
    8e54:	e59f0014 	ldr	r0, [pc, #20]	; 8e70 <software_interrupt_vector+0x30>
    8e58:	e59f1014 	ldr	r1, [pc, #20]	; 8e74 <software_interrupt_vector+0x34>
    8e5c:	e59f2014 	ldr	r2, [pc, #20]	; 8e78 <software_interrupt_vector+0x38>
    8e60:	e3a03026 	mov	r3, #38	; 0x26
    8e64:	eb00007e 	bl	9064 <printk>
    8e68:	eb0001f2 	bl	9638 <rpi_reboot>
    8e6c:	0000a274 	andeq	sl, r0, r4, ror r2
    8e70:	0000a200 	andeq	sl, r0, r0, lsl #4
    8e74:	0000a23c 	andeq	sl, r0, ip, lsr r2
    8e78:	0000a170 	andeq	sl, r0, r0, ror r1

00008e7c <reset_vector>:
    8e7c:	e52de004 	push	{lr}		; (str lr, [sp, #-4]!)
    8e80:	e24dd00c 	sub	sp, sp, #12
    8e84:	e59f301c 	ldr	r3, [pc, #28]	; 8ea8 <reset_vector+0x2c>
    8e88:	e58d3000 	str	r3, [sp]
    8e8c:	e58d0004 	str	r0, [sp, #4]
    8e90:	e59f0014 	ldr	r0, [pc, #20]	; 8eac <reset_vector+0x30>
    8e94:	e59f1014 	ldr	r1, [pc, #20]	; 8eb0 <reset_vector+0x34>
    8e98:	e59f2014 	ldr	r2, [pc, #20]	; 8eb4 <reset_vector+0x38>
    8e9c:	e3a03029 	mov	r3, #41	; 0x29
    8ea0:	eb00006f 	bl	9064 <printk>
    8ea4:	eb0001e3 	bl	9638 <rpi_reboot>
    8ea8:	0000a284 	andeq	sl, r0, r4, lsl #5
    8eac:	0000a200 	andeq	sl, r0, r0, lsl #4
    8eb0:	0000a23c 	andeq	sl, r0, ip, lsr r2
    8eb4:	0000a18c 	andeq	sl, r0, ip, lsl #3

00008eb8 <undefined_instruction_vector>:
    8eb8:	e52de004 	push	{lr}		; (str lr, [sp, #-4]!)
    8ebc:	e24dd00c 	sub	sp, sp, #12
    8ec0:	e59f301c 	ldr	r3, [pc, #28]	; 8ee4 <undefined_instruction_vector+0x2c>
    8ec4:	e58d3000 	str	r3, [sp]
    8ec8:	e58d0004 	str	r0, [sp, #4]
    8ecc:	e59f0014 	ldr	r0, [pc, #20]	; 8ee8 <undefined_instruction_vector+0x30>
    8ed0:	e59f1014 	ldr	r1, [pc, #20]	; 8eec <undefined_instruction_vector+0x34>
    8ed4:	e59f2014 	ldr	r2, [pc, #20]	; 8ef0 <undefined_instruction_vector+0x38>
    8ed8:	e3a0302c 	mov	r3, #44	; 0x2c
    8edc:	eb000060 	bl	9064 <printk>
    8ee0:	eb0001d4 	bl	9638 <rpi_reboot>
    8ee4:	0000a294 	muleq	r0, r4, r2
    8ee8:	0000a200 	andeq	sl, r0, r0, lsl #4
    8eec:	0000a23c 	andeq	sl, r0, ip, lsr r2
    8ef0:	0000a19c 	muleq	r0, ip, r1

00008ef4 <prefetch_abort_vector>:
    8ef4:	e52de004 	push	{lr}		; (str lr, [sp, #-4]!)
    8ef8:	e24dd00c 	sub	sp, sp, #12
    8efc:	e59f301c 	ldr	r3, [pc, #28]	; 8f20 <prefetch_abort_vector+0x2c>
    8f00:	e58d3000 	str	r3, [sp]
    8f04:	e58d0004 	str	r0, [sp, #4]
    8f08:	e59f0014 	ldr	r0, [pc, #20]	; 8f24 <prefetch_abort_vector+0x30>
    8f0c:	e59f1014 	ldr	r1, [pc, #20]	; 8f28 <prefetch_abort_vector+0x34>
    8f10:	e59f2014 	ldr	r2, [pc, #20]	; 8f2c <prefetch_abort_vector+0x38>
    8f14:	e3a0302f 	mov	r3, #47	; 0x2f
    8f18:	eb000051 	bl	9064 <printk>
    8f1c:	eb0001c5 	bl	9638 <rpi_reboot>
    8f20:	0000a2ac 	andeq	sl, r0, ip, lsr #5
    8f24:	0000a200 	andeq	sl, r0, r0, lsl #4
    8f28:	0000a23c 	andeq	sl, r0, ip, lsr r2
    8f2c:	0000a1bc 			; <UNDEFINED> instruction: 0x0000a1bc

00008f30 <data_abort_vector>:
    8f30:	e52de004 	push	{lr}		; (str lr, [sp, #-4]!)
    8f34:	e24dd00c 	sub	sp, sp, #12
    8f38:	e59f301c 	ldr	r3, [pc, #28]	; 8f5c <data_abort_vector+0x2c>
    8f3c:	e58d3000 	str	r3, [sp]
    8f40:	e58d0004 	str	r0, [sp, #4]
    8f44:	e59f0014 	ldr	r0, [pc, #20]	; 8f60 <data_abort_vector+0x30>
    8f48:	e59f1014 	ldr	r1, [pc, #20]	; 8f64 <data_abort_vector+0x34>
    8f4c:	e59f2014 	ldr	r2, [pc, #20]	; 8f68 <data_abort_vector+0x38>
    8f50:	e3a03032 	mov	r3, #50	; 0x32
    8f54:	eb000042 	bl	9064 <printk>
    8f58:	eb0001b6 	bl	9638 <rpi_reboot>
    8f5c:	0000a2bc 			; <UNDEFINED> instruction: 0x0000a2bc
    8f60:	0000a200 	andeq	sl, r0, r0, lsl #4
    8f64:	0000a23c 	andeq	sl, r0, ip, lsr r2
    8f68:	0000a1d4 	ldrdeq	sl, [r0], -r4

00008f6c <_cstart>:
    8f6c:	e92d4008 	push	{r3, lr}
    8f70:	e59f3038 	ldr	r3, [pc, #56]	; 8fb0 <_cstart+0x44>
    8f74:	e59f2038 	ldr	r2, [pc, #56]	; 8fb4 <_cstart+0x48>
    8f78:	e1520003 	cmp	r2, r3
    8f7c:	2a000009 	bcs	8fa8 <_cstart+0x3c>
    8f80:	e2423004 	sub	r3, r2, #4
    8f84:	e59f102c 	ldr	r1, [pc, #44]	; 8fb8 <_cstart+0x4c>
    8f88:	e0631001 	rsb	r1, r3, r1
    8f8c:	e3c11003 	bic	r1, r1, #3
    8f90:	e2832004 	add	r2, r3, #4
    8f94:	e0811002 	add	r1, r1, r2
    8f98:	e3a02000 	mov	r2, #0
    8f9c:	e5a32004 	str	r2, [r3, #4]!
    8fa0:	e1530001 	cmp	r3, r1
    8fa4:	1afffffc 	bne	8f9c <_cstart+0x30>
    8fa8:	ebfffd40 	bl	84b0 <notmain>
    8fac:	e8bd8008 	pop	{r3, pc}
    8fb0:	0000a988 	andeq	sl, r0, r8, lsl #19
    8fb4:	0000a554 	andeq	sl, r0, r4, asr r5
    8fb8:	0000a983 	andeq	sl, r0, r3, lsl #19

00008fbc <RPI_GetIRQController>:
    8fbc:	e92d4008 	push	{r3, lr}
    8fc0:	eb0001e2 	bl	9750 <dmb>
    8fc4:	eb0001e3 	bl	9758 <dsb>
    8fc8:	e59f3004 	ldr	r3, [pc, #4]	; 8fd4 <RPI_GetIRQController+0x18>
    8fcc:	e5930000 	ldr	r0, [r3]
    8fd0:	e8bd8008 	pop	{r3, pc}
    8fd4:	00009cf0 	strdeq	r9, [r0], -r0

00008fd8 <rpi_extract_basic_int>:
    8fd8:	e6ef0070 	uxtb	r0, r0
    8fdc:	e12fff1e 	bx	lr

00008fe0 <RPI_GetArmTimer>:
    8fe0:	e92d4008 	push	{r3, lr}
    8fe4:	eb0001d9 	bl	9750 <dmb>
    8fe8:	eb0001da 	bl	9758 <dsb>
    8fec:	e59f3004 	ldr	r3, [pc, #4]	; 8ff8 <RPI_GetArmTimer+0x18>
    8ff0:	e5930004 	ldr	r0, [r3, #4]
    8ff4:	e8bd8008 	pop	{r3, pc}
    8ff8:	00009cf0 	strdeq	r9, [r0], -r0

00008ffc <timer_interrupt_init>:
    8ffc:	e92d4010 	push	{r4, lr}
    9000:	e1a04000 	mov	r4, r0
    9004:	e59f003c 	ldr	r0, [pc, #60]	; 9048 <timer_interrupt_init+0x4c>
    9008:	e3e01000 	mvn	r1, #0
    900c:	eb00024e 	bl	994c <PUT32>
    9010:	e59f0034 	ldr	r0, [pc, #52]	; 904c <timer_interrupt_init+0x50>
    9014:	e3e01000 	mvn	r1, #0
    9018:	eb00024b 	bl	994c <PUT32>
    901c:	eb0001cb 	bl	9750 <dmb>
    9020:	eb0001cc 	bl	9758 <dsb>
    9024:	ebffffe4 	bl	8fbc <RPI_GetIRQController>
    9028:	e3a03001 	mov	r3, #1
    902c:	e5803018 	str	r3, [r0, #24]
    9030:	ebffffea 	bl	8fe0 <RPI_GetArmTimer>
    9034:	e5804000 	str	r4, [r0]
    9038:	ebffffe8 	bl	8fe0 <RPI_GetArmTimer>
    903c:	e3a030aa 	mov	r3, #170	; 0xaa
    9040:	e5803008 	str	r3, [r0, #8]
    9044:	e8bd8010 	pop	{r4, pc}
    9048:	2000b21c 	andcs	fp, r0, ip, lsl r2
    904c:	2000b220 	andcs	fp, r0, r0, lsr #4

00009050 <rpi_putchar>:
    9050:	e92d4010 	push	{r4, lr}
    9054:	e1a04000 	mov	r4, r0
    9058:	eb00026c 	bl	9a10 <uart_putc>
    905c:	e1a00004 	mov	r0, r4
    9060:	e8bd8010 	pop	{r4, pc}

00009064 <printk>:
    9064:	e92d000f 	push	{r0, r1, r2, r3}
    9068:	e92d4030 	push	{r4, r5, lr}
    906c:	e24dd00c 	sub	sp, sp, #12
    9070:	e28d301c 	add	r3, sp, #28
    9074:	e58d3004 	str	r3, [sp, #4]
    9078:	e59f4040 	ldr	r4, [pc, #64]	; 90c0 <printk+0x5c>
    907c:	e1a00004 	mov	r0, r4
    9080:	e3a01b01 	mov	r1, #1024	; 0x400
    9084:	e59d2018 	ldr	r2, [sp, #24]
    9088:	eb00008c 	bl	92c0 <va_printk>
    908c:	e1a05000 	mov	r5, r0
    9090:	e5d40000 	ldrb	r0, [r4]
    9094:	e3500000 	cmp	r0, #0
    9098:	0a000003 	beq	90ac <printk+0x48>
    909c:	eb00025b 	bl	9a10 <uart_putc>
    90a0:	e5f40001 	ldrb	r0, [r4, #1]!
    90a4:	e3500000 	cmp	r0, #0
    90a8:	1afffffb 	bne	909c <printk+0x38>
    90ac:	e1a00005 	mov	r0, r5
    90b0:	e28dd00c 	add	sp, sp, #12
    90b4:	e8bd4030 	pop	{r4, r5, lr}
    90b8:	e28dd010 	add	sp, sp, #16
    90bc:	e12fff1e 	bx	lr
    90c0:	0000a57c 	andeq	sl, r0, ip, ror r5

000090c4 <emit>:
    90c4:	e92d43f0 	push	{r4, r5, r6, r7, r8, r9, lr}
    90c8:	e24dd044 	sub	sp, sp, #68	; 0x44
    90cc:	e59d5060 	ldr	r5, [sp, #96]	; 0x60
    90d0:	e1550002 	cmp	r5, r2
    90d4:	c2425001 	subgt	r5, r2, #1
    90d8:	e1a0c003 	mov	ip, r3
    90dc:	e2400002 	sub	r0, r0, #2
    90e0:	e350000e 	cmp	r0, #14
    90e4:	979ff100 	ldrls	pc, [pc, r0, lsl #2]
    90e8:	ea00003f 	b	91ec <emit+0x128>
    90ec:	000091c4 	andeq	r9, r0, r4, asr #3
    90f0:	000091ec 	andeq	r9, r0, ip, ror #3
    90f4:	000091ec 	andeq	r9, r0, ip, ror #3
    90f8:	000091ec 	andeq	r9, r0, ip, ror #3
    90fc:	000091ec 	andeq	r9, r0, ip, ror #3
    9100:	000091ec 	andeq	r9, r0, ip, ror #3
    9104:	000091b8 			; <UNDEFINED> instruction: 0x000091b8
    9108:	000091ec 	andeq	r9, r0, ip, ror #3
    910c:	00009128 	andeq	r9, r0, r8, lsr #2
    9110:	000091ec 	andeq	r9, r0, ip, ror #3
    9114:	000091ec 	andeq	r9, r0, ip, ror #3
    9118:	000091ec 	andeq	r9, r0, ip, ror #3
    911c:	000091ec 	andeq	r9, r0, ip, ror #3
    9120:	000091ec 	andeq	r9, r0, ip, ror #3
    9124:	00009190 	muleq	r0, r0, r1
    9128:	e59d0064 	ldr	r0, [sp, #100]	; 0x64
    912c:	e2900000 	adds	r0, r0, #0
    9130:	13a00001 	movne	r0, #1
    9134:	e0100fa3 	ands	r0, r0, r3, lsr #31
    9138:	1263c000 	rsbne	ip, r3, #0
    913c:	13a09001 	movne	r9, #1
    9140:	03a09000 	moveq	r9, #0
    9144:	e1a0000d 	mov	r0, sp
    9148:	e59f8154 	ldr	r8, [pc, #340]	; 92a4 <emit+0x1e0>
    914c:	e59f7154 	ldr	r7, [pc, #340]	; 92a8 <emit+0x1e4>
    9150:	e1a03000 	mov	r3, r0
    9154:	e0846c97 	umull	r6, r4, r7, ip
    9158:	e1a041a4 	lsr	r4, r4, #3
    915c:	e0846104 	add	r6, r4, r4, lsl #2
    9160:	e04cc086 	sub	ip, ip, r6, lsl #1
    9164:	e7d8c00c 	ldrb	ip, [r8, ip]
    9168:	e4c3c001 	strb	ip, [r3], #1
    916c:	e1a0c004 	mov	ip, r4
    9170:	e3540000 	cmp	r4, #0
    9174:	11a00003 	movne	r0, r3
    9178:	1afffff4 	bne	9150 <emit+0x8c>
    917c:	e3590000 	cmp	r9, #0
    9180:	12803002 	addne	r3, r0, #2
    9184:	13a0c02d 	movne	ip, #45	; 0x2d
    9188:	15c0c001 	strbne	ip, [r0, #1]
    918c:	ea00001c 	b	9204 <emit+0x140>
    9190:	e28d4001 	add	r4, sp, #1
    9194:	e59f6110 	ldr	r6, [pc, #272]	; 92ac <emit+0x1e8>
    9198:	e1a03004 	mov	r3, r4
    919c:	e20c000f 	and	r0, ip, #15
    91a0:	e7d60000 	ldrb	r0, [r6, r0]
    91a4:	e5440001 	strb	r0, [r4, #-1]
    91a8:	e2844001 	add	r4, r4, #1
    91ac:	e1b0c22c 	lsrs	ip, ip, #4
    91b0:	1afffff8 	bne	9198 <emit+0xd4>
    91b4:	ea000012 	b	9204 <emit+0x140>
    91b8:	e5cd3000 	strb	r3, [sp]
    91bc:	e28d3001 	add	r3, sp, #1
    91c0:	ea00000f 	b	9204 <emit+0x140>
    91c4:	e28d4001 	add	r4, sp, #1
    91c8:	e59f60e0 	ldr	r6, [pc, #224]	; 92b0 <emit+0x1ec>
    91cc:	e1a03004 	mov	r3, r4
    91d0:	e20c0001 	and	r0, ip, #1
    91d4:	e7d60000 	ldrb	r0, [r6, r0]
    91d8:	e5440001 	strb	r0, [r4, #-1]
    91dc:	e2844001 	add	r4, r4, #1
    91e0:	e1b0c0ac 	lsrs	ip, ip, #1
    91e4:	1afffff8 	bne	91cc <emit+0x108>
    91e8:	ea000005 	b	9204 <emit+0x140>
    91ec:	e59f00c0 	ldr	r0, [pc, #192]	; 92b4 <emit+0x1f0>
    91f0:	e59f10c0 	ldr	r1, [pc, #192]	; 92b8 <emit+0x1f4>
    91f4:	e59f20c0 	ldr	r2, [pc, #192]	; 92bc <emit+0x1f8>
    91f8:	e3a0308d 	mov	r3, #141	; 0x8d
    91fc:	ebffff98 	bl	9064 <printk>
    9200:	eb00010c 	bl	9638 <rpi_reboot>
    9204:	e1a0400d 	mov	r4, sp
    9208:	e064c003 	rsb	ip, r4, r3
    920c:	e155000c 	cmp	r5, ip
    9210:	da000006 	ble	9230 <emit+0x16c>
    9214:	e06cc005 	rsb	ip, ip, r5
    9218:	e083c00c 	add	ip, r3, ip
    921c:	e3a00020 	mov	r0, #32
    9220:	e4c30001 	strb	r0, [r3], #1
    9224:	e153000c 	cmp	r3, ip
    9228:	1afffffc 	bne	9220 <emit+0x15c>
    922c:	ea000000 	b	9234 <emit+0x170>
    9230:	e1a0c003 	mov	ip, r3
    9234:	e3a03000 	mov	r3, #0
    9238:	e5cc3000 	strb	r3, [ip]
    923c:	e064400c 	rsb	r4, r4, ip
    9240:	e2844001 	add	r4, r4, #1
    9244:	e1520004 	cmp	r2, r4
    9248:	b0624004 	rsblt	r4, r2, r4
    924c:	b08d3003 	addlt	r3, sp, r3
    9250:	b0834004 	addlt	r4, r3, r4
    9254:	a1a0400d 	movge	r4, sp
    9258:	e24c3001 	sub	r3, ip, #1
    925c:	e1540003 	cmp	r4, r3
    9260:	8a000009 	bhi	928c <emit+0x1c8>
    9264:	e1a0000c 	mov	r0, ip
    9268:	e1a0300c 	mov	r3, ip
    926c:	e1a02001 	mov	r2, r1
    9270:	e573c001 	ldrb	ip, [r3, #-1]!
    9274:	e4c2c001 	strb	ip, [r2], #1
    9278:	e1530004 	cmp	r3, r4
    927c:	1afffffb 	bne	9270 <emit+0x1ac>
    9280:	e0644000 	rsb	r4, r4, r0
    9284:	e0814004 	add	r4, r1, r4
    9288:	ea000000 	b	9290 <emit+0x1cc>
    928c:	e1a04001 	mov	r4, r1
    9290:	e3a03000 	mov	r3, #0
    9294:	e5c43000 	strb	r3, [r4]
    9298:	e1a00001 	mov	r0, r1
    929c:	e28dd044 	add	sp, sp, #68	; 0x44
    92a0:	e8bd83f0 	pop	{r4, r5, r6, r7, r8, r9, pc}
    92a4:	0000a300 	andeq	sl, r0, r0, lsl #6
    92a8:	cccccccd 	stclgt	12, cr12, [ip], {205}	; 0xcd
    92ac:	0000a30c 	andeq	sl, r0, ip, lsl #6
    92b0:	0000a320 	andeq	sl, r0, r0, lsr #6
    92b4:	0000a2dc 	ldrdeq	sl, [r0], -ip
    92b8:	0000a2f0 	strdeq	sl, [r0], -r0
    92bc:	0000a2c8 	andeq	sl, r0, r8, asr #5

000092c0 <va_printk>:
    92c0:	e92d4ff0 	push	{r4, r5, r6, r7, r8, r9, sl, fp, lr}
    92c4:	e24dd08c 	sub	sp, sp, #140	; 0x8c
    92c8:	e1a07000 	mov	r7, r0
    92cc:	e2411001 	sub	r1, r1, #1
    92d0:	e0805001 	add	r5, r0, r1
    92d4:	e3a01000 	mov	r1, #0
    92d8:	e5c01000 	strb	r1, [r0]
    92dc:	e1a04000 	mov	r4, r0
    92e0:	e1a08001 	mov	r8, r1
    92e4:	e3a0a008 	mov	sl, #8
    92e8:	e3a09080 	mov	r9, #128	; 0x80
    92ec:	ea000088 	b	9514 <va_printk+0x254>
    92f0:	e3510025 	cmp	r1, #37	; 0x25
    92f4:	12822001 	addne	r2, r2, #1
    92f8:	15c41000 	strbne	r1, [r4]
    92fc:	12844001 	addne	r4, r4, #1
    9300:	1a000083 	bne	9514 <va_printk+0x254>
    9304:	e5d21001 	ldrb	r1, [r2, #1]
    9308:	e3510025 	cmp	r1, #37	; 0x25
    930c:	05c41000 	strbeq	r1, [r4]
    9310:	02822002 	addeq	r2, r2, #2
    9314:	02844001 	addeq	r4, r4, #1
    9318:	0a00007d 	beq	9514 <va_printk+0x254>
    931c:	e2826001 	add	r6, r2, #1
    9320:	e1a00001 	mov	r0, r1
    9324:	e241c030 	sub	ip, r1, #48	; 0x30
    9328:	e35c0009 	cmp	ip, #9
    932c:	8a000012 	bhi	937c <va_printk+0xbc>
    9330:	e2822002 	add	r2, r2, #2
    9334:	e1a0c008 	mov	ip, r8
    9338:	e08cc10c 	add	ip, ip, ip, lsl #2
    933c:	e080c08c 	add	ip, r0, ip, lsl #1
    9340:	e24cc030 	sub	ip, ip, #48	; 0x30
    9344:	e1a06002 	mov	r6, r2
    9348:	e4d21001 	ldrb	r1, [r2], #1
    934c:	e1a00001 	mov	r0, r1
    9350:	e241b030 	sub	fp, r1, #48	; 0x30
    9354:	e35b0009 	cmp	fp, #9
    9358:	9afffff6 	bls	9338 <va_printk+0x78>
    935c:	e35c001f 	cmp	ip, #31
    9360:	9a000007 	bls	9384 <va_printk+0xc4>
    9364:	e59f01e8 	ldr	r0, [pc, #488]	; 9554 <va_printk+0x294>
    9368:	e59f11e8 	ldr	r1, [pc, #488]	; 9558 <va_printk+0x298>
    936c:	e59f21e8 	ldr	r2, [pc, #488]	; 955c <va_printk+0x29c>
    9370:	e3a030a9 	mov	r3, #169	; 0xa9
    9374:	ebffff3a 	bl	9064 <printk>
    9378:	eb0000ae 	bl	9638 <rpi_reboot>
    937c:	e1a00001 	mov	r0, r1
    9380:	e1a0c008 	mov	ip, r8
    9384:	e2411062 	sub	r1, r1, #98	; 0x62
    9388:	e3510016 	cmp	r1, #22
    938c:	979ff101 	ldrls	pc, [pc, r1, lsl #2]
    9390:	ea000052 	b	94e0 <va_printk+0x220>
    9394:	00009484 	andeq	r9, r0, r4, lsl #9
    9398:	000094b8 			; <UNDEFINED> instruction: 0x000094b8
    939c:	00009408 	andeq	r9, r0, r8, lsl #8
    93a0:	000094e0 	andeq	r9, r0, r0, ror #9
    93a4:	000093f0 	strdeq	r9, [r0], -r0
    93a8:	000094e0 	andeq	r9, r0, r0, ror #9
    93ac:	000094e0 	andeq	r9, r0, r0, ror #9
    93b0:	000094e0 	andeq	r9, r0, r0, ror #9
    93b4:	000094e0 	andeq	r9, r0, r0, ror #9
    93b8:	000094e0 	andeq	r9, r0, r0, ror #9
    93bc:	000094e0 	andeq	r9, r0, r0, ror #9
    93c0:	000094e0 	andeq	r9, r0, r0, ror #9
    93c4:	000094e0 	andeq	r9, r0, r0, ror #9
    93c8:	000094e0 	andeq	r9, r0, r0, ror #9
    93cc:	0000945c 	andeq	r9, r0, ip, asr r4
    93d0:	000094e0 	andeq	r9, r0, r0, ror #9
    93d4:	000094e0 	andeq	r9, r0, r0, ror #9
    93d8:	000094ac 	andeq	r9, r0, ip, lsr #9
    93dc:	000094e0 	andeq	r9, r0, r0, ror #9
    93e0:	00009434 	andeq	r9, r0, r4, lsr r4
    93e4:	000094e0 	andeq	r9, r0, r0, ror #9
    93e8:	000094e0 	andeq	r9, r0, r0, ror #9
    93ec:	0000945c 	andeq	r9, r0, ip, asr r4
    93f0:	e59f0168 	ldr	r0, [pc, #360]	; 9560 <va_printk+0x2a0>
    93f4:	e59f115c 	ldr	r1, [pc, #348]	; 9558 <va_printk+0x298>
    93f8:	e59f215c 	ldr	r2, [pc, #348]	; 955c <va_printk+0x29c>
    93fc:	e3a030af 	mov	r3, #175	; 0xaf
    9400:	ebffff17 	bl	9064 <printk>
    9404:	eb00008b 	bl	9638 <rpi_reboot>
    9408:	e283b004 	add	fp, r3, #4
    940c:	e5933000 	ldr	r3, [r3]
    9410:	e58dc000 	str	ip, [sp]
    9414:	e3a02001 	mov	r2, #1
    9418:	e58d2004 	str	r2, [sp, #4]
    941c:	e3a0000a 	mov	r0, #10
    9420:	e28d1008 	add	r1, sp, #8
    9424:	e1a02009 	mov	r2, r9
    9428:	ebffff25 	bl	90c4 <emit>
    942c:	e1a0300b 	mov	r3, fp
    9430:	ea000040 	b	9538 <va_printk+0x278>
    9434:	e283b004 	add	fp, r3, #4
    9438:	e5933000 	ldr	r3, [r3]
    943c:	e58dc000 	str	ip, [sp]
    9440:	e58d8004 	str	r8, [sp, #4]
    9444:	e3a0000a 	mov	r0, #10
    9448:	e28d1008 	add	r1, sp, #8
    944c:	e1a02009 	mov	r2, r9
    9450:	ebffff1b 	bl	90c4 <emit>
    9454:	e1a0300b 	mov	r3, fp
    9458:	ea000036 	b	9538 <va_printk+0x278>
    945c:	e283b004 	add	fp, r3, #4
    9460:	e5933000 	ldr	r3, [r3]
    9464:	e58dc000 	str	ip, [sp]
    9468:	e58d8004 	str	r8, [sp, #4]
    946c:	e3a00010 	mov	r0, #16
    9470:	e28d1008 	add	r1, sp, #8
    9474:	e1a02009 	mov	r2, r9
    9478:	ebffff11 	bl	90c4 <emit>
    947c:	e1a0300b 	mov	r3, fp
    9480:	ea00002c 	b	9538 <va_printk+0x278>
    9484:	e283b004 	add	fp, r3, #4
    9488:	e5933000 	ldr	r3, [r3]
    948c:	e58dc000 	str	ip, [sp]
    9490:	e58d8004 	str	r8, [sp, #4]
    9494:	e3a00002 	mov	r0, #2
    9498:	e28d1008 	add	r1, sp, #8
    949c:	e1a02009 	mov	r2, r9
    94a0:	ebffff07 	bl	90c4 <emit>
    94a4:	e1a0300b 	mov	r3, fp
    94a8:	ea000022 	b	9538 <va_printk+0x278>
    94ac:	e5930000 	ldr	r0, [r3]
    94b0:	e2833004 	add	r3, r3, #4
    94b4:	ea00001f 	b	9538 <va_printk+0x278>
    94b8:	e283b004 	add	fp, r3, #4
    94bc:	e5933000 	ldr	r3, [r3]
    94c0:	e58dc000 	str	ip, [sp]
    94c4:	e58d8004 	str	r8, [sp, #4]
    94c8:	e1a0000a 	mov	r0, sl
    94cc:	e28d1008 	add	r1, sp, #8
    94d0:	e1a02009 	mov	r2, r9
    94d4:	ebfffefa 	bl	90c4 <emit>
    94d8:	e1a0300b 	mov	r3, fp
    94dc:	ea000015 	b	9538 <va_printk+0x278>
    94e0:	e58d0000 	str	r0, [sp]
    94e4:	e59f0078 	ldr	r0, [pc, #120]	; 9564 <va_printk+0x2a4>
    94e8:	e59f1068 	ldr	r1, [pc, #104]	; 9558 <va_printk+0x298>
    94ec:	e59f2068 	ldr	r2, [pc, #104]	; 955c <va_printk+0x29c>
    94f0:	e3a030d0 	mov	r3, #208	; 0xd0
    94f4:	ebfffeda 	bl	9064 <printk>
    94f8:	eb00004e 	bl	9638 <rpi_reboot>
    94fc:	e4c41001 	strb	r1, [r4], #1
    9500:	e1540005 	cmp	r4, r5
    9504:	0a000002 	beq	9514 <va_printk+0x254>
    9508:	e5f01001 	ldrb	r1, [r0, #1]!
    950c:	e3510000 	cmp	r1, #0
    9510:	1afffff9 	bne	94fc <va_printk+0x23c>
    9514:	e5d21000 	ldrb	r1, [r2]
    9518:	e3510000 	cmp	r1, #0
    951c:	0a000001 	beq	9528 <va_printk+0x268>
    9520:	e1540005 	cmp	r4, r5
    9524:	3affff71 	bcc	92f0 <va_printk+0x30>
    9528:	e3a03000 	mov	r3, #0
    952c:	e4c43001 	strb	r3, [r4], #1
    9530:	e0670004 	rsb	r0, r7, r4
    9534:	ea000004 	b	954c <va_printk+0x28c>
    9538:	e2862001 	add	r2, r6, #1
    953c:	e5d01000 	ldrb	r1, [r0]
    9540:	e3510000 	cmp	r1, #0
    9544:	0afffff2 	beq	9514 <va_printk+0x254>
    9548:	eaffffeb 	b	94fc <va_printk+0x23c>
    954c:	e28dd08c 	add	sp, sp, #140	; 0x8c
    9550:	e8bd8ff0 	pop	{r4, r5, r6, r7, r8, r9, sl, fp, pc}
    9554:	0000a324 	andeq	sl, r0, r4, lsr #6
    9558:	0000a2f0 	strdeq	sl, [r0], -r0
    955c:	0000a2d0 	ldrdeq	sl, [r0], -r0
    9560:	0000a340 	andeq	sl, r0, r0, asr #6
    9564:	0000a368 	andeq	sl, r0, r8, ror #6

00009568 <snprintk>:
    9568:	e92d000c 	push	{r2, r3}
    956c:	e52de004 	push	{lr}		; (str lr, [sp, #-4]!)
    9570:	e24dd00c 	sub	sp, sp, #12
    9574:	e28d3014 	add	r3, sp, #20
    9578:	e58d3004 	str	r3, [sp, #4]
    957c:	e59d2010 	ldr	r2, [sp, #16]
    9580:	ebffff4e 	bl	92c0 <va_printk>
    9584:	e28dd00c 	add	sp, sp, #12
    9588:	e49de004 	pop	{lr}		; (ldr lr, [sp], #4)
    958c:	e28dd008 	add	sp, sp, #8
    9590:	e12fff1e 	bx	lr

00009594 <uart_hex>:
    9594:	e92d4008 	push	{r3, lr}
    9598:	e59f0004 	ldr	r0, [pc, #4]	; 95a4 <uart_hex+0x10>
    959c:	ebfffeb0 	bl	9064 <printk>
    95a0:	e8bd8008 	pop	{r3, pc}
    95a4:	0000a3a0 	andeq	sl, r0, r0, lsr #7

000095a8 <putk>:
    95a8:	e92d4010 	push	{r4, lr}
    95ac:	e1a04000 	mov	r4, r0
    95b0:	e5d00000 	ldrb	r0, [r0]
    95b4:	e3500000 	cmp	r0, #0
    95b8:	0a000003 	beq	95cc <putk+0x24>
    95bc:	eb000113 	bl	9a10 <uart_putc>
    95c0:	e5f40001 	ldrb	r0, [r4, #1]!
    95c4:	e3500000 	cmp	r0, #0
    95c8:	1afffffb 	bne	95bc <putk+0x14>
    95cc:	e3a00001 	mov	r0, #1
    95d0:	e8bd8010 	pop	{r4, pc}

000095d4 <panic>:
    95d4:	e92d4008 	push	{r3, lr}
    95d8:	e1a06000 	mov	r6, r0
    95dc:	e1a05001 	mov	r5, r1
    95e0:	e1a04002 	mov	r4, r2
    95e4:	e59f0018 	ldr	r0, [pc, #24]	; 9604 <panic+0x30>
    95e8:	ebffffee 	bl	95a8 <putk>
    95ec:	e59f0014 	ldr	r0, [pc, #20]	; 9608 <panic+0x34>
    95f0:	e1a01006 	mov	r1, r6
    95f4:	e1a02005 	mov	r2, r5
    95f8:	e1a03004 	mov	r3, r4
    95fc:	ebfffe98 	bl	9064 <printk>
    9600:	eb00000c 	bl	9638 <rpi_reboot>
    9604:	0000a3a4 	andeq	sl, r0, r4, lsr #7
    9608:	0000a3b0 			; <UNDEFINED> instruction: 0x0000a3b0

0000960c <at_user_level>:
    960c:	e10f0000 	mrs	r0, CPSR
    9610:	e200001f 	and	r0, r0, #31
    9614:	e3500010 	cmp	r0, #16
    9618:	13a00000 	movne	r0, #0
    961c:	03a00001 	moveq	r0, #1
    9620:	e12fff1e 	bx	lr

00009624 <set_user_level>:
    9624:	e10f3000 	mrs	r3, CPSR
    9628:	e3c3301f 	bic	r3, r3, #31
    962c:	e3833010 	orr	r3, r3, #16
    9630:	e129f003 	msr	CPSR_fc, r3
    9634:	e12fff1e 	bx	lr

00009638 <rpi_reboot>:
    9638:	e92d4008 	push	{r3, lr}
    963c:	ebfffff2 	bl	960c <at_user_level>
    9640:	e3500000 	cmp	r0, #0
    9644:	0a000009 	beq	9670 <rpi_reboot+0x38>
    9648:	ebfffff5 	bl	9624 <set_user_level>
    964c:	ebffffee 	bl	960c <at_user_level>
    9650:	e3500000 	cmp	r0, #0
    9654:	1a000005 	bne	9670 <rpi_reboot+0x38>
    9658:	e59f0034 	ldr	r0, [pc, #52]	; 9694 <rpi_reboot+0x5c>
    965c:	e59f1034 	ldr	r1, [pc, #52]	; 9698 <rpi_reboot+0x60>
    9660:	e59f2034 	ldr	r2, [pc, #52]	; 969c <rpi_reboot+0x64>
    9664:	e3a0301f 	mov	r3, #31
    9668:	ebfffe7d 	bl	9064 <printk>
    966c:	ebfffff1 	bl	9638 <rpi_reboot>
    9670:	e3a0001e 	mov	r0, #30
    9674:	eb00002a 	bl	9724 <delay_ms>
    9678:	e59f0020 	ldr	r0, [pc, #32]	; 96a0 <rpi_reboot+0x68>
    967c:	e59f1020 	ldr	r1, [pc, #32]	; 96a4 <rpi_reboot+0x6c>
    9680:	eb0000b1 	bl	994c <PUT32>
    9684:	e59f001c 	ldr	r0, [pc, #28]	; 96a8 <rpi_reboot+0x70>
    9688:	e59f101c 	ldr	r1, [pc, #28]	; 96ac <rpi_reboot+0x74>
    968c:	eb0000ae 	bl	994c <PUT32>
    9690:	eafffffe 	b	9690 <rpi_reboot+0x58>
    9694:	0000a3dc 	ldrdeq	sl, [r0], -ip
    9698:	0000a3fc 	strdeq	sl, [r0], -ip
    969c:	0000a3d0 	ldrdeq	sl, [r0], -r0
    96a0:	20100024 	andscs	r0, r0, r4, lsr #32
    96a4:	5a000001 	bpl	96b0 <clean_reboot>
    96a8:	2010001c 	andscs	r0, r0, ip, lsl r0
    96ac:	5a000020 	bpl	9734 <delay_ms+0x10>

000096b0 <clean_reboot>:
    96b0:	e92d4008 	push	{r3, lr}
    96b4:	e59f000c 	ldr	r0, [pc, #12]	; 96c8 <clean_reboot+0x18>
    96b8:	ebffffba 	bl	95a8 <putk>
    96bc:	e3a00032 	mov	r0, #50	; 0x32
    96c0:	eb000017 	bl	9724 <delay_ms>
    96c4:	ebffffdb 	bl	9638 <rpi_reboot>
    96c8:	0000a40c 	andeq	sl, r0, ip, lsl #8

000096cc <delay_cycles>:
    96cc:	e2403001 	sub	r3, r0, #1
    96d0:	e3500000 	cmp	r0, #0
    96d4:	012fff1e 	bxeq	lr
    96d8:	e2811000 	add	r1, r1, #0
    96dc:	e2433001 	sub	r3, r3, #1
    96e0:	e3730001 	cmn	r3, #1
    96e4:	1afffffb 	bne	96d8 <delay_cycles+0xc>
    96e8:	e12fff1e 	bx	lr

000096ec <timer_get_time>:
    96ec:	e92d4008 	push	{r3, lr}
    96f0:	e59f0004 	ldr	r0, [pc, #4]	; 96fc <timer_get_time+0x10>
    96f4:	eb00009c 	bl	996c <GET32>
    96f8:	e8bd8008 	pop	{r3, pc}
    96fc:	20003004 	andcs	r3, r0, r4

00009700 <delay_us>:
    9700:	e92d4038 	push	{r3, r4, r5, lr}
    9704:	e1a05000 	mov	r5, r0
    9708:	ebfffff7 	bl	96ec <timer_get_time>
    970c:	e1a04000 	mov	r4, r0
    9710:	ebfffff5 	bl	96ec <timer_get_time>
    9714:	e0640000 	rsb	r0, r4, r0
    9718:	e1500005 	cmp	r0, r5
    971c:	3afffffb 	bcc	9710 <delay_us+0x10>
    9720:	e8bd8038 	pop	{r3, r4, r5, pc}

00009724 <delay_ms>:
    9724:	e92d4008 	push	{r3, lr}
    9728:	e3a03ffa 	mov	r3, #1000	; 0x3e8
    972c:	e0000093 	mul	r0, r3, r0
    9730:	ebfffff2 	bl	9700 <delay_us>
    9734:	e8bd8008 	pop	{r3, pc}

00009738 <mb>:
    9738:	e3a00000 	mov	r0, #0
    973c:	ee070f15 	mcr	15, 0, r0, cr7, cr5, {0}
    9740:	ee070fd5 	mcr	15, 0, r0, cr7, cr5, {6}
    9744:	ee070f9a 	mcr	15, 0, r0, cr7, cr10, {4}
    9748:	ee070f95 	mcr	15, 0, r0, cr7, cr5, {4}
    974c:	e12fff1e 	bx	lr

00009750 <dmb>:
    9750:	ee070fba 	mcr	15, 0, r0, cr7, cr10, {5}
    9754:	e12fff1e 	bx	lr

00009758 <dsb>:
    9758:	ee070f9a 	mcr	15, 0, r0, cr7, cr10, {4}
    975c:	e12fff1e 	bx	lr

00009760 <memset>:
    9760:	e0802002 	add	r2, r0, r2
    9764:	e1500002 	cmp	r0, r2
    9768:	212fff1e 	bxcs	lr
    976c:	e1a03000 	mov	r3, r0
    9770:	e4c31001 	strb	r1, [r3], #1
    9774:	e1530002 	cmp	r3, r2
    9778:	1afffffc 	bne	9770 <memset+0x10>
    977c:	e12fff1e 	bx	lr

00009780 <memcmp>:
    9780:	e52d4004 	push	{r4}		; (str r4, [sp, #-4]!)
    9784:	e3520000 	cmp	r2, #0
    9788:	0a00000f 	beq	97cc <memcmp+0x4c>
    978c:	e5d04000 	ldrb	r4, [r0]
    9790:	e5d13000 	ldrb	r3, [r1]
    9794:	e0543003 	subs	r3, r4, r3
    9798:	1a00000d 	bne	97d4 <memcmp+0x54>
    979c:	e1a03000 	mov	r3, r0
    97a0:	e242c001 	sub	ip, r2, #1
    97a4:	e080c00c 	add	ip, r0, ip
    97a8:	ea000003 	b	97bc <memcmp+0x3c>
    97ac:	e5f30001 	ldrb	r0, [r3, #1]!
    97b0:	e5f12001 	ldrb	r2, [r1, #1]!
    97b4:	e0500002 	subs	r0, r0, r2
    97b8:	1a000006 	bne	97d8 <memcmp+0x58>
    97bc:	e153000c 	cmp	r3, ip
    97c0:	1afffff9 	bne	97ac <memcmp+0x2c>
    97c4:	e3a00000 	mov	r0, #0
    97c8:	ea000002 	b	97d8 <memcmp+0x58>
    97cc:	e3a00000 	mov	r0, #0
    97d0:	ea000000 	b	97d8 <memcmp+0x58>
    97d4:	e1a00003 	mov	r0, r3
    97d8:	e49d4004 	pop	{r4}		; (ldr r4, [sp], #4)
    97dc:	e12fff1e 	bx	lr

000097e0 <memcpy>:
    97e0:	e1803001 	orr	r3, r0, r1
    97e4:	e3130003 	tst	r3, #3
    97e8:	1a000001 	bne	97f4 <memcpy+0x14>
    97ec:	e3120003 	tst	r2, #3
    97f0:	0a000003 	beq	9804 <memcpy+0x24>
    97f4:	e3520000 	cmp	r2, #0
    97f8:	13a03000 	movne	r3, #0
    97fc:	1a00000a 	bne	982c <memcpy+0x4c>
    9800:	e12fff1e 	bx	lr
    9804:	e1b02122 	lsrs	r2, r2, #2
    9808:	012fff1e 	bxeq	lr
    980c:	e1a0c102 	lsl	ip, r2, #2
    9810:	e3a03000 	mov	r3, #0
    9814:	e7912003 	ldr	r2, [r1, r3]
    9818:	e7802003 	str	r2, [r0, r3]
    981c:	e2833004 	add	r3, r3, #4
    9820:	e153000c 	cmp	r3, ip
    9824:	1afffffa 	bne	9814 <memcpy+0x34>
    9828:	e12fff1e 	bx	lr
    982c:	e7d1c003 	ldrb	ip, [r1, r3]
    9830:	e7c0c003 	strb	ip, [r0, r3]
    9834:	e2833001 	add	r3, r3, #1
    9838:	e1530002 	cmp	r3, r2
    983c:	1afffffa 	bne	982c <memcpy+0x4c>
    9840:	e12fff1e 	bx	lr

00009844 <strcmp>:
    9844:	e5d03000 	ldrb	r3, [r0]
    9848:	e3530000 	cmp	r3, #0
    984c:	0a00000b 	beq	9880 <strcmp+0x3c>
    9850:	e5d12000 	ldrb	r2, [r1]
    9854:	e1520003 	cmp	r2, r3
    9858:	1a000008 	bne	9880 <strcmp+0x3c>
    985c:	e2812001 	add	r2, r1, #1
    9860:	e1a01002 	mov	r1, r2
    9864:	e5f03001 	ldrb	r3, [r0, #1]!
    9868:	e3530000 	cmp	r3, #0
    986c:	0a000003 	beq	9880 <strcmp+0x3c>
    9870:	e2822001 	add	r2, r2, #1
    9874:	e5d1c000 	ldrb	ip, [r1]
    9878:	e15c0003 	cmp	ip, r3
    987c:	0afffff7 	beq	9860 <strcmp+0x1c>
    9880:	e5d10000 	ldrb	r0, [r1]
    9884:	e0600003 	rsb	r0, r0, r3
    9888:	e12fff1e 	bx	lr

0000988c <strncmp>:
    988c:	e0802002 	add	r2, r0, r2
    9890:	ea000005 	b	98ac <strncmp+0x20>
    9894:	e4d0c001 	ldrb	ip, [r0], #1
    9898:	e4d13001 	ldrb	r3, [r1], #1
    989c:	e15c0003 	cmp	ip, r3
    98a0:	0a000001 	beq	98ac <strncmp+0x20>
    98a4:	e063000c 	rsb	r0, r3, ip
    98a8:	e12fff1e 	bx	lr
    98ac:	e1500002 	cmp	r0, r2
    98b0:	1afffff7 	bne	9894 <strncmp+0x8>
    98b4:	e3a00000 	mov	r0, #0
    98b8:	e12fff1e 	bx	lr

000098bc <dev_barrier>:
    98bc:	e92d4008 	push	{r3, lr}
    98c0:	ebffffa2 	bl	9750 <dmb>
    98c4:	ebffffa3 	bl	9758 <dsb>
    98c8:	e8bd8008 	pop	{r3, pc}

000098cc <strcat>:
    98cc:	e1a02000 	mov	r2, r0
    98d0:	e1a03002 	mov	r3, r2
    98d4:	e4d3c001 	ldrb	ip, [r3], #1
    98d8:	e35c0000 	cmp	ip, #0
    98dc:	11a02003 	movne	r2, r3
    98e0:	1afffffa 	bne	98d0 <strcat+0x4>
    98e4:	e2422001 	sub	r2, r2, #1
    98e8:	e4d13001 	ldrb	r3, [r1], #1
    98ec:	e5e23001 	strb	r3, [r2, #1]!
    98f0:	e3530000 	cmp	r3, #0
    98f4:	1afffffb 	bne	98e8 <strcat+0x1c>
    98f8:	e12fff1e 	bx	lr

000098fc <strlen>:
    98fc:	e5d03000 	ldrb	r3, [r0]
    9900:	e3530000 	cmp	r3, #0
    9904:	0a000006 	beq	9924 <strlen+0x28>
    9908:	e1a03000 	mov	r3, r0
    990c:	e3a00000 	mov	r0, #0
    9910:	e2800001 	add	r0, r0, #1
    9914:	e5f32001 	ldrb	r2, [r3, #1]!
    9918:	e3520000 	cmp	r2, #0
    991c:	1afffffb 	bne	9910 <strlen+0x14>
    9920:	e12fff1e 	bx	lr
    9924:	e3a00000 	mov	r0, #0
    9928:	e12fff1e 	bx	lr

0000992c <strcpy>:
    992c:	e1a02000 	mov	r2, r0
    9930:	e4d13001 	ldrb	r3, [r1], #1
    9934:	e4c23001 	strb	r3, [r2], #1
    9938:	e3530000 	cmp	r3, #0
    993c:	1afffffb 	bne	9930 <strcpy+0x4>
    9940:	e12fff1e 	bx	lr

00009944 <put32>:
    9944:	e5801000 	str	r1, [r0]
    9948:	e12fff1e 	bx	lr

0000994c <PUT32>:
    994c:	e5801000 	str	r1, [r0]
    9950:	e12fff1e 	bx	lr

00009954 <PUT16>:
    9954:	e1c010b0 	strh	r1, [r0]
    9958:	e12fff1e 	bx	lr

0000995c <PUT8>:
    995c:	e5c01000 	strb	r1, [r0]
    9960:	e12fff1e 	bx	lr

00009964 <get32>:
    9964:	e5900000 	ldr	r0, [r0]
    9968:	e12fff1e 	bx	lr

0000996c <GET32>:
    996c:	e5900000 	ldr	r0, [r0]
    9970:	e12fff1e 	bx	lr

00009974 <GETPC>:
    9974:	e1a0000e 	mov	r0, lr
    9978:	e12fff1e 	bx	lr

0000997c <dummy>:
    997c:	e12fff1e 	bx	lr

00009980 <uart_init>:
    9980:	e92d4010 	push	{r4, lr}
    9984:	e3a01002 	mov	r1, #2
    9988:	e3a0000e 	mov	r0, #14
    998c:	eb000079 	bl	9b78 <gpio_set_function>
    9990:	e3a01002 	mov	r1, #2
    9994:	e3a0000f 	mov	r0, #15
    9998:	eb000076 	bl	9b78 <gpio_set_function>
    999c:	e59f4044 	ldr	r4, [pc, #68]	; 99e8 <uart_init+0x68>
    99a0:	e5943004 	ldr	r3, [r4, #4]
    99a4:	e3833001 	orr	r3, r3, #1
    99a8:	e5843004 	str	r3, [r4, #4]
    99ac:	ebffff67 	bl	9750 <dmb>
    99b0:	ebffff68 	bl	9758 <dsb>
    99b4:	e3a03000 	mov	r3, #0
    99b8:	e5843044 	str	r3, [r4, #68]	; 0x44
    99bc:	e5843060 	str	r3, [r4, #96]	; 0x60
    99c0:	e3a02003 	mov	r2, #3
    99c4:	e584204c 	str	r2, [r4, #76]	; 0x4c
    99c8:	e5843050 	str	r3, [r4, #80]	; 0x50
    99cc:	e5843044 	str	r3, [r4, #68]	; 0x44
    99d0:	e3a0300e 	mov	r3, #14
    99d4:	e5843048 	str	r3, [r4, #72]	; 0x48
    99d8:	e2833c01 	add	r3, r3, #256	; 0x100
    99dc:	e5843068 	str	r3, [r4, #104]	; 0x68
    99e0:	e5842060 	str	r2, [r4, #96]	; 0x60
    99e4:	e8bd8010 	pop	{r4, pc}
    99e8:	20215000 	eorcs	r5, r1, r0

000099ec <uart_getc>:
    99ec:	e59f3018 	ldr	r3, [pc, #24]	; 9a0c <uart_getc+0x20>
    99f0:	e5933054 	ldr	r3, [r3, #84]	; 0x54
    99f4:	e3130001 	tst	r3, #1
    99f8:	0afffffb 	beq	99ec <uart_getc>
    99fc:	e59f3008 	ldr	r3, [pc, #8]	; 9a0c <uart_getc+0x20>
    9a00:	e5930040 	ldr	r0, [r3, #64]	; 0x40
    9a04:	e6ef0070 	uxtb	r0, r0
    9a08:	e12fff1e 	bx	lr
    9a0c:	20215000 	eorcs	r5, r1, r0

00009a10 <uart_putc>:
    9a10:	e59f3014 	ldr	r3, [pc, #20]	; 9a2c <uart_putc+0x1c>
    9a14:	e5933054 	ldr	r3, [r3, #84]	; 0x54
    9a18:	e3130020 	tst	r3, #32
    9a1c:	0afffffb 	beq	9a10 <uart_putc>
    9a20:	e59f3004 	ldr	r3, [pc, #4]	; 9a2c <uart_putc+0x1c>
    9a24:	e5830040 	str	r0, [r3, #64]	; 0x40
    9a28:	e12fff1e 	bx	lr
    9a2c:	20215000 	eorcs	r5, r1, r0

00009a30 <kmalloc_heap_end>:
    9a30:	e59f3004 	ldr	r3, [pc, #4]	; 9a3c <kmalloc_heap_end+0xc>
    9a34:	e5930000 	ldr	r0, [r3]
    9a38:	e12fff1e 	bx	lr
    9a3c:	00009cf8 	strdeq	r9, [r0], -r8

00009a40 <kmalloc_heap_start>:
    9a40:	e59f0000 	ldr	r0, [pc]	; 9a48 <kmalloc_heap_start+0x8>
    9a44:	e12fff1e 	bx	lr
    9a48:	0000a988 	andeq	sl, r0, r8, lsl #19

00009a4c <kmalloc_set_start>:
    9a4c:	e92d4008 	push	{r3, lr}
    9a50:	e59f3028 	ldr	r3, [pc, #40]	; 9a80 <kmalloc_set_start+0x34>
    9a54:	e5933000 	ldr	r3, [r3]
    9a58:	e1500003 	cmp	r0, r3
    9a5c:	859f301c 	ldrhi	r3, [pc, #28]	; 9a80 <kmalloc_set_start+0x34>
    9a60:	85830000 	strhi	r0, [r3]
    9a64:	88bd8008 	pophi	{r3, pc}
    9a68:	e59f0014 	ldr	r0, [pc, #20]	; 9a84 <kmalloc_set_start+0x38>
    9a6c:	e59f1014 	ldr	r1, [pc, #20]	; 9a88 <kmalloc_set_start+0x3c>
    9a70:	e59f2014 	ldr	r2, [pc, #20]	; 9a8c <kmalloc_set_start+0x40>
    9a74:	e3a03015 	mov	r3, #21
    9a78:	ebfffd79 	bl	9064 <printk>
    9a7c:	ebfffeed 	bl	9638 <rpi_reboot>
    9a80:	00009cf8 	strdeq	r9, [r0], -r8
    9a84:	0000a43c 	andeq	sl, r0, ip, lsr r4
    9a88:	0000a458 	andeq	sl, r0, r8, asr r4
    9a8c:	0000a418 	andeq	sl, r0, r8, lsl r4

00009a90 <kmalloc>:
    9a90:	e92d4010 	push	{r4, lr}
    9a94:	e2800007 	add	r0, r0, #7
    9a98:	e3c02007 	bic	r2, r0, #7
    9a9c:	e59f301c 	ldr	r3, [pc, #28]	; 9ac0 <kmalloc+0x30>
    9aa0:	e5934000 	ldr	r4, [r3]
    9aa4:	e0841002 	add	r1, r4, r2
    9aa8:	e5831000 	str	r1, [r3]
    9aac:	e1a00004 	mov	r0, r4
    9ab0:	e3a01000 	mov	r1, #0
    9ab4:	ebffff29 	bl	9760 <memset>
    9ab8:	e1a00004 	mov	r0, r4
    9abc:	e8bd8010 	pop	{r4, pc}
    9ac0:	00009cf8 	strdeq	r9, [r0], -r8

00009ac4 <kmalloc_aligned>:
    9ac4:	e92d4008 	push	{r3, lr}
    9ac8:	e2612000 	rsb	r2, r1, #0
    9acc:	e0023001 	and	r3, r2, r1
    9ad0:	e1530001 	cmp	r3, r1
    9ad4:	0a000005 	beq	9af0 <kmalloc_aligned+0x2c>
    9ad8:	e59f0058 	ldr	r0, [pc, #88]	; 9b38 <kmalloc_aligned+0x74>
    9adc:	e59f1058 	ldr	r1, [pc, #88]	; 9b3c <kmalloc_aligned+0x78>
    9ae0:	e59f2058 	ldr	r2, [pc, #88]	; 9b40 <kmalloc_aligned+0x7c>
    9ae4:	e3a03026 	mov	r3, #38	; 0x26
    9ae8:	ebfffd5d 	bl	9064 <printk>
    9aec:	ebfffed1 	bl	9638 <rpi_reboot>
    9af0:	e59f104c 	ldr	r1, [pc, #76]	; 9b44 <kmalloc_aligned+0x80>
    9af4:	e5911000 	ldr	r1, [r1]
    9af8:	e2411001 	sub	r1, r1, #1
    9afc:	e0811003 	add	r1, r1, r3
    9b00:	e0012002 	and	r2, r1, r2
    9b04:	e2433001 	sub	r3, r3, #1
    9b08:	e1120003 	tst	r2, r3
    9b0c:	0a000005 	beq	9b28 <kmalloc_aligned+0x64>
    9b10:	e59f0030 	ldr	r0, [pc, #48]	; 9b48 <kmalloc_aligned+0x84>
    9b14:	e59f1020 	ldr	r1, [pc, #32]	; 9b3c <kmalloc_aligned+0x78>
    9b18:	e59f2020 	ldr	r2, [pc, #32]	; 9b40 <kmalloc_aligned+0x7c>
    9b1c:	e3a0302c 	mov	r3, #44	; 0x2c
    9b20:	ebfffd4f 	bl	9064 <printk>
    9b24:	ebfffec3 	bl	9638 <rpi_reboot>
    9b28:	e59f3014 	ldr	r3, [pc, #20]	; 9b44 <kmalloc_aligned+0x80>
    9b2c:	e5832000 	str	r2, [r3]
    9b30:	ebffffd6 	bl	9a90 <kmalloc>
    9b34:	e8bd8008 	pop	{r3, pc}
    9b38:	0000a46c 	andeq	sl, r0, ip, ror #8
    9b3c:	0000a458 	andeq	sl, r0, r8, asr r4
    9b40:	0000a42c 	andeq	sl, r0, ip, lsr #8
    9b44:	00009cf8 	strdeq	r9, [r0], -r8
    9b48:	0000a4cc 	andeq	sl, r0, ip, asr #9

00009b4c <kfree>:
    9b4c:	e12fff1e 	bx	lr

00009b50 <kfree_all>:
    9b50:	e59f2008 	ldr	r2, [pc, #8]	; 9b60 <kfree_all+0x10>
    9b54:	e59f3008 	ldr	r3, [pc, #8]	; 9b64 <kfree_all+0x14>
    9b58:	e5832000 	str	r2, [r3]
    9b5c:	e12fff1e 	bx	lr
    9b60:	0000a988 	andeq	sl, r0, r8, lsl #19
    9b64:	00009cf8 	strdeq	r9, [r0], -r8

00009b68 <kfree_after>:
    9b68:	e59f3004 	ldr	r3, [pc, #4]	; 9b74 <kfree_after+0xc>
    9b6c:	e5830000 	str	r0, [r3]
    9b70:	e12fff1e 	bx	lr
    9b74:	00009cf8 	strdeq	r9, [r0], -r8

00009b78 <gpio_set_function>:
    9b78:	e92d41f0 	push	{r4, r5, r6, r7, r8, lr}
    9b7c:	e1a04000 	mov	r4, r0
    9b80:	e350001f 	cmp	r0, #31
    9b84:	8a000014 	bhi	9bdc <gpio_set_function+0x64>
    9b88:	e2015007 	and	r5, r1, #7
    9b8c:	e1550001 	cmp	r5, r1
    9b90:	1a000013 	bne	9be4 <gpio_set_function+0x6c>
    9b94:	e59f7050 	ldr	r7, [pc, #80]	; 9bec <gpio_set_function+0x74>
    9b98:	e0873097 	umull	r3, r7, r7, r0
    9b9c:	e1a071a7 	lsr	r7, r7, #3
    9ba0:	e1a08107 	lsl	r8, r7, #2
    9ba4:	e2886202 	add	r6, r8, #536870912	; 0x20000000
    9ba8:	e2866602 	add	r6, r6, #2097152	; 0x200000
    9bac:	e1a00006 	mov	r0, r6
    9bb0:	ebffff6b 	bl	9964 <get32>
    9bb4:	e0887007 	add	r7, r8, r7
    9bb8:	e0444087 	sub	r4, r4, r7, lsl #1
    9bbc:	e0844084 	add	r4, r4, r4, lsl #1
    9bc0:	e3a01007 	mov	r1, #7
    9bc4:	e1c01411 	bic	r1, r0, r1, lsl r4
    9bc8:	e1a00006 	mov	r0, r6
    9bcc:	e1811415 	orr	r1, r1, r5, lsl r4
    9bd0:	ebffff5b 	bl	9944 <put32>
    9bd4:	e3a00000 	mov	r0, #0
    9bd8:	e8bd81f0 	pop	{r4, r5, r6, r7, r8, pc}
    9bdc:	e3e00000 	mvn	r0, #0
    9be0:	e8bd81f0 	pop	{r4, r5, r6, r7, r8, pc}
    9be4:	e3e00000 	mvn	r0, #0
    9be8:	e8bd81f0 	pop	{r4, r5, r6, r7, r8, pc}
    9bec:	cccccccd 	stclgt	12, cr12, [ip], {205}	; 0xcd

00009bf0 <gpio_set_output>:
    9bf0:	e92d4008 	push	{r3, lr}
    9bf4:	e3a01001 	mov	r1, #1
    9bf8:	ebffffde 	bl	9b78 <gpio_set_function>
    9bfc:	e8bd8008 	pop	{r3, pc}

00009c00 <gpio_set_input>:
    9c00:	e92d4008 	push	{r3, lr}
    9c04:	e3a01000 	mov	r1, #0
    9c08:	ebffffda 	bl	9b78 <gpio_set_function>
    9c0c:	e8bd8008 	pop	{r3, pc}

00009c10 <gpio_set_off>:
    9c10:	e92d4008 	push	{r3, lr}
    9c14:	e1a03000 	mov	r3, r0
    9c18:	e350001f 	cmp	r0, #31
    9c1c:	8a000005 	bhi	9c38 <gpio_set_off+0x28>
    9c20:	e59f0018 	ldr	r0, [pc, #24]	; 9c40 <gpio_set_off+0x30>
    9c24:	e3a01001 	mov	r1, #1
    9c28:	e1a01311 	lsl	r1, r1, r3
    9c2c:	ebffff46 	bl	994c <PUT32>
    9c30:	e3a00000 	mov	r0, #0
    9c34:	e8bd8008 	pop	{r3, pc}
    9c38:	e3e00000 	mvn	r0, #0
    9c3c:	e8bd8008 	pop	{r3, pc}
    9c40:	20200028 	eorcs	r0, r0, r8, lsr #32

00009c44 <gpio_set_on>:
    9c44:	e92d4008 	push	{r3, lr}
    9c48:	e1a03000 	mov	r3, r0
    9c4c:	e350001f 	cmp	r0, #31
    9c50:	8a000005 	bhi	9c6c <gpio_set_on+0x28>
    9c54:	e59f0018 	ldr	r0, [pc, #24]	; 9c74 <gpio_set_on+0x30>
    9c58:	e3a01001 	mov	r1, #1
    9c5c:	e1a01311 	lsl	r1, r1, r3
    9c60:	ebffff39 	bl	994c <PUT32>
    9c64:	e3a00000 	mov	r0, #0
    9c68:	e8bd8008 	pop	{r3, pc}
    9c6c:	e3e00000 	mvn	r0, #0
    9c70:	e8bd8008 	pop	{r3, pc}
    9c74:	2020001c 	eorcs	r0, r0, ip, lsl r0

00009c78 <gpio_write>:
    9c78:	e92d4008 	push	{r3, lr}
    9c7c:	e3510000 	cmp	r1, #0
    9c80:	0a000001 	beq	9c8c <gpio_write+0x14>
    9c84:	ebffffee 	bl	9c44 <gpio_set_on>
    9c88:	e8bd8008 	pop	{r3, pc}
    9c8c:	ebffffdf 	bl	9c10 <gpio_set_off>
    9c90:	e8bd8008 	pop	{r3, pc}

00009c94 <gpio_read>:
    9c94:	e92d4010 	push	{r4, lr}
    9c98:	e1a04000 	mov	r4, r0
    9c9c:	e350001f 	cmp	r0, #31
    9ca0:	9a000005 	bls	9cbc <gpio_read+0x28>
    9ca4:	e59f002c 	ldr	r0, [pc, #44]	; 9cd8 <gpio_read+0x44>
    9ca8:	e59f102c 	ldr	r1, [pc, #44]	; 9cdc <gpio_read+0x48>
    9cac:	e59f202c 	ldr	r2, [pc, #44]	; 9ce0 <gpio_read+0x4c>
    9cb0:	e3a03037 	mov	r3, #55	; 0x37
    9cb4:	ebfffcea 	bl	9064 <printk>
    9cb8:	ebfffe5e 	bl	9638 <rpi_reboot>
    9cbc:	e59f0020 	ldr	r0, [pc, #32]	; 9ce4 <gpio_read+0x50>
    9cc0:	e08002a4 	add	r0, r0, r4, lsr #5
    9cc4:	ebffff28 	bl	996c <GET32>
    9cc8:	e204401f 	and	r4, r4, #31
    9ccc:	e1a00430 	lsr	r0, r0, r4
    9cd0:	e2000001 	and	r0, r0, #1
    9cd4:	e8bd8010 	pop	{r4, pc}
    9cd8:	0000a52c 	andeq	sl, r0, ip, lsr #10
    9cdc:	0000a548 	andeq	sl, r0, r8, asr #10
    9ce0:	0000a520 	andeq	sl, r0, r0, lsr #10
    9ce4:	20200034 	eorcs	r0, r0, r4, lsr r0

Disassembly of section .data:

00009ce8 <store_next_thread_regs>:
    9ce8:	09000004 	stmdbeq	r0, {r2}

00009cec <dni_addr>:
    9cec:	09000000 	stmdbeq	r0, {}	; <UNPREDICTABLE>

00009cf0 <rpiIRQController>:
    9cf0:	2000b200 	andcs	fp, r0, r0, lsl #4

00009cf4 <rpiArmTimer>:
    9cf4:	2000b400 	andcs	fp, r0, r0, lsl #8

00009cf8 <heap>:
    9cf8:	0000a988 	andeq	sl, r0, r8, lsl #19

Disassembly of section .rodata:

00009cfc <__FUNCTION__.3849>:
    9cfc:	74726170 	ldrbtvc	r6, [r2], #-368	; 0x170
    9d00:	00000030 	andeq	r0, r0, r0, lsr r0

00009d04 <__FUNCTION__.3865>:
    9d04:	72746f6e 	rsbsvc	r6, r4, #440	; 0x1b8
    9d08:	68636165 	stmdavs	r3!, {r0, r2, r5, r6, r8, sp, lr}^
    9d0c:	00006465 	andeq	r6, r0, r5, ror #8

00009d10 <__FUNCTION__.3888>:
    9d10:	74726170 	ldrbtvc	r6, [r2], #-368	; 0x170
    9d14:	00000032 	andeq	r0, r0, r2, lsr r0
    9d18:	74206e69 	strtvc	r6, [r0], #-3689	; 0xe69
    9d1c:	61657268 	cmnvs	r5, r8, ror #4
    9d20:	70252064 	eorvc	r2, r5, r4, rrx
    9d24:	6977202c 	ldmdbvs	r7!, {r2, r3, r5, sp}^
    9d28:	25206874 	strcs	r6, [r0, #-2164]!	; 0x874
    9d2c:	00000a78 	andeq	r0, r0, r8, ror sl
    9d30:	6c6c6548 	cfstr64vs	mvdx6, [ip], #-288	; 0xfffffee0
    9d34:	7266206f 	rsbvc	r2, r6, #111	; 0x6f
    9d38:	74206d6f 	strtvc	r6, [r0], #-3439	; 0xd6f
    9d3c:	61657268 	cmnvs	r5, r8, ror #4
    9d40:	64252064 	strtvs	r2, [r5], #-100	; 0x64
    9d44:	0000000a 	andeq	r0, r0, sl
    9d48:	6e6e7572 	mcrvs	5, 3, r7, cr14, cr2, {3}
    9d4c:	20676e69 	rsbcs	r6, r7, r9, ror #28
    9d50:	74726170 	ldrbtvc	r6, [r2], #-368	; 0x170
    9d54:	00000a30 	andeq	r0, r0, r0, lsr sl
    9d58:	72737063 	rsbsvc	r7, r3, #99	; 0x63
    9d5c:	3d202928 	stccc	9, cr2, [r0, #-160]!	; 0xffffff60
    9d60:	0a782520 	beq	1e131e8 <__bss_end__+0x1e08860>
    9d64:	00000000 	andeq	r0, r0, r0
    9d68:	65746e49 	ldrbvs	r6, [r4, #-3657]!	; 0xe49
    9d6c:	70757272 	rsbsvc	r7, r5, r2, ror r2
    9d70:	61207374 	teqvs	r0, r4, ror r3
    9d74:	64206572 	strtvs	r6, [r0], #-1394	; 0x572
    9d78:	62617369 	rsbvs	r7, r1, #-1543503871	; 0xa4000001
    9d7c:	3f64656c 	svccc	0x0064656c
    9d80:	0a642520 	beq	1913208 <__bss_end__+0x1908880>
    9d84:	00000000 	andeq	r0, r0, r0
    9d88:	494e4150 	stmdbmi	lr, {r4, r6, r8, lr}^
    9d8c:	73253a43 	teqvc	r5, #274432	; 0x43000
    9d90:	3a73253a 	bcc	1cd3280 <__bss_end__+0x1cc88f8>
    9d94:	633a6425 	teqvs	sl, #620756992	; 0x25000000
    9d98:	20727370 	rsbscs	r7, r2, r0, ror r3
    9d9c:	37203e3e 			; <UNDEFINED> instruction: 0x37203e3e
    9da0:	31202620 	teqcc	r0, r0, lsr #12
    9da4:	0000000a 	andeq	r0, r0, sl
    9da8:	65726874 	ldrbvs	r6, [r2, #-2164]!	; 0x874
    9dac:	742d6461 	strtvc	r6, [sp], #-1121	; 0x461
    9db0:	2e747365 	cdpcs	3, 7, cr7, cr4, cr5, {3}
    9db4:	00000063 	andeq	r0, r0, r3, rrx
    9db8:	65646f4d 	strbvs	r6, [r4, #-3917]!	; 0xf4d
    9dbc:	3a736920 	bcc	1ce4244 <__bss_end__+0x1cd98bc>
    9dc0:	0a782520 	beq	1e13248 <__bss_end__+0x1e088c0>
    9dc4:	00000000 	andeq	r0, r0, r0
    9dc8:	494e4150 	stmdbmi	lr, {r4, r6, r8, lr}^
    9dcc:	73253a43 	teqvc	r5, #274432	; 0x43000
    9dd0:	3a73253a 	bcc	1cd32c0 <__bss_end__+0x1cc8938>
    9dd4:	283a6425 	ldmdacs	sl!, {r0, r2, r5, sl, sp, lr}
    9dd8:	72737063 	rsbsvc	r7, r3, #99	; 0x63
    9ddc:	30202620 	eorcc	r2, r0, r0, lsr #12
    9de0:	29666678 	stmdbcs	r6!, {r3, r4, r5, r6, r9, sl, sp, lr}^
    9de4:	203d3d20 	eorscs	r3, sp, r0, lsr #26
    9de8:	33647830 	cmncc	r4, #48, 16	; 0x300000
    9dec:	0000000a 	andeq	r0, r0, sl
    9df0:	20646e65 	rsbcs	r6, r4, r5, ror #28
    9df4:	7320666f 	teqvc	r0, #116391936	; 0x6f00000
    9df8:	3d657661 	stclcc	6, cr7, [r5, #-388]!	; 0xfffffe7c
    9dfc:	000a7025 	andeq	r7, sl, r5, lsr #32
    9e00:	65766173 	ldrbvs	r6, [r6, #-371]!	; 0x173
    9e04:	65726120 	ldrbvs	r6, [r2, #-288]!	; 0x120
    9e08:	203d2061 	eorscs	r2, sp, r1, rrx
    9e0c:	202c7825 	eorcs	r7, ip, r5, lsr #16
    9e10:	65766173 	ldrbvs	r6, [r6, #-371]!	; 0x173
    9e14:	255b2064 	ldrbcs	r2, [fp, #-100]	; 0x64
    9e18:	72205d64 	eorvc	r5, r0, #100, 26	; 0x1900
    9e1c:	73696765 	cmnvc	r9, #26476544	; 0x1940000
    9e20:	73726574 	cmnvc	r2, #116, 10	; 0x1d000000
    9e24:	6425202c 	strtvs	r2, [r5], #-44	; 0x2c
    9e28:	74796220 	ldrbtvc	r6, [r9], #-544	; 0x220
    9e2c:	000a7365 	andeq	r7, sl, r5, ror #6
    9e30:	255b7209 	ldrbcs	r7, [fp, #-521]	; 0x209
    9e34:	3d205d64 	stccc	13, cr5, [r0, #-400]!	; 0xfffffe70
    9e38:	0a782520 	beq	1e132c0 <__bss_end__+0x1e08938>
    9e3c:	00000000 	andeq	r0, r0, r0
    9e40:	494e4150 	stmdbmi	lr, {r4, r6, r8, lr}^
    9e44:	73253a43 	teqvc	r5, #274432	; 0x43000
    9e48:	3a73253a 	bcc	1cd3338 <__bss_end__+0x1cc89b0>
    9e4c:	213a6425 	teqcs	sl, r5, lsr #8
    9e50:	32315b75 	eorscc	r5, r1, #119808	; 0x1d400
    9e54:	000a5d38 	andeq	r5, sl, r8, lsr sp
    9e58:	494e4150 	stmdbmi	lr, {r4, r6, r8, lr}^
    9e5c:	73253a43 	teqvc	r5, #274432	; 0x43000
    9e60:	3a73253a 	bcc	1cd3350 <__bss_end__+0x1cc89c8>
    9e64:	6e3a6425 	cdpvs	4, 3, cr6, cr10, cr5, {1}
    9e68:	7220746f 	eorvc	r7, r0, #1862270976	; 0x6f000000
    9e6c:	68636165 	stmdavs	r3!, {r0, r2, r5, r6, r8, sp, lr}^
    9e70:	64656e69 	strbtvs	r6, [r5], #-3689	; 0xe69
    9e74:	73617720 	cmnvc	r1, #32, 14	; 0x800000
    9e78:	61657220 	cmnvs	r5, r0, lsr #4
    9e7c:	64656863 	strbtvs	r6, [r5], #-2147	; 0x863
    9e80:	000a0a21 	andeq	r0, sl, r1, lsr #20
    9e84:	6e6e7572 	mcrvs	5, 3, r7, cr14, cr2, {3}
    9e88:	20676e69 	rsbcs	r6, r7, r9, ror #28
    9e8c:	74726170 	ldrbtvc	r6, [r2], #-368	; 0x170
    9e90:	00000a31 	andeq	r0, r0, r1, lsr sl
    9e94:	203a6425 	eorscs	r6, sl, r5, lsr #8
    9e98:	756f6261 	strbvc	r6, [pc, #-609]!	; 9c3f <gpio_set_off+0x2f>
    9e9c:	6f742074 	svcvs	0x00742074
    9ea0:	77736320 	ldrbvc	r6, [r3, -r0, lsr #6]!
    9ea4:	68637469 	stmdavs	r3!, {r0, r3, r5, r6, sl, ip, sp, lr}^
    9ea8:	6461202c 	strbtvs	r2, [r1], #-44	; 0x2c
    9eac:	6f207264 	svcvs	0x00207264
    9eb0:	70732066 	rsbsvc	r2, r3, r6, rrx
    9eb4:	0a78253d 	beq	1e133b0 <__bss_end__+0x1e08a28>
    9eb8:	00000000 	andeq	r0, r0, r0
    9ebc:	203a6425 	eorscs	r6, sl, r5, lsr #8
    9ec0:	75746572 	ldrbvc	r6, [r4, #-1394]!	; 0x572
    9ec4:	64656e72 	strbtvs	r6, [r5], #-3698	; 0xe72
    9ec8:	2c78253d 	cfldr64cs	mvdx2, [r8], #-244	; 0xffffff0c
    9ecc:	3d707320 	ldclcc	3, cr7, [r0, #-128]!	; 0xffffff80
    9ed0:	000a7825 	andeq	r7, sl, r5, lsr #16
    9ed4:	74656709 	strbtvc	r6, [r5], #-1801	; 0x709
    9ed8:	72737063 	rsbsvc	r7, r3, #99	; 0x63
    9edc:	0a78253d 	beq	1e133d8 <__bss_end__+0x1e08a50>
    9ee0:	00000000 	andeq	r0, r0, r0
    9ee4:	6e6e7572 	mcrvs	5, 3, r7, cr14, cr2, {3}
    9ee8:	20676e69 	rsbcs	r6, r7, r9, ror #28
    9eec:	74726170 	ldrbtvc	r6, [r2], #-368	; 0x170
    9ef0:	00000a32 	andeq	r0, r0, r2, lsr sl
    9ef4:	6e756f63 	cdpvs	15, 7, cr6, cr5, cr3, {3}
    9ef8:	203d2074 	eorscs	r2, sp, r4, ror r0
    9efc:	202c6425 	eorcs	r6, ip, r5, lsr #8
    9f00:	3d6d7573 	cfstr64cc	mvdx7, [sp, #-460]!	; 0xfffffe34
    9f04:	000a6425 	andeq	r6, sl, r5, lsr #8
    9f08:	494e4150 	stmdbmi	lr, {r4, r6, r8, lr}^
    9f0c:	73253a43 	teqvc	r5, #274432	; 0x43000
    9f10:	3a73253a 	bcc	1cd3400 <__bss_end__+0x1cc8a78>
    9f14:	743a6425 	ldrtvc	r6, [sl], #-1061	; 0x425
    9f18:	61657268 	cmnvs	r5, r8, ror #4
    9f1c:	6f635f64 	svcvs	0x00635f64
    9f20:	20746e75 	rsbscs	r6, r4, r5, ror lr
    9f24:	6e203d3d 	mcrvs	13, 1, r3, cr0, cr13, {1}
    9f28:	0000000a 	andeq	r0, r0, sl
    9f2c:	6e6e7552 	mcrvs	5, 3, r7, cr14, cr2, {2}
    9f30:	20676e69 	rsbcs	r6, r7, r9, ror #28
    9f34:	74697277 	strbtvc	r7, [r9], #-631	; 0x277
    9f38:	6f742065 	svcvs	0x00742065
    9f3c:	656e6f20 	strbvs	r6, [lr, #-3872]!	; 0xf20
    9f40:	6d656d20 	stclvs	13, cr6, [r5, #-128]!	; 0xffffff80
    9f44:	2079726f 	rsbscs	r7, r9, pc, ror #4
    9f48:	72646461 	rsbvc	r6, r4, #1627389952	; 0x61000000
    9f4c:	20737365 	rsbscs	r7, r3, r5, ror #6
    9f50:	6320666f 	teqvs	r0, #116391936	; 0x6f00000
    9f54:	2065646f 	rsbcs	r6, r5, pc, ror #8
    9f58:	000a7825 	andeq	r7, sl, r5, lsr #16
    9f5c:	72646441 	rsbvc	r6, r4, #1090519040	; 0x41000000
    9f60:	6c617620 	stclvs	6, cr7, [r1], #-128	; 0xffffff80
    9f64:	69206575 	stmdbvs	r0!, {r0, r2, r4, r5, r6, r8, sl, sp, lr}
    9f68:	64252073 	strtvs	r2, [r5], #-115	; 0x73
    9f6c:	0000000a 	andeq	r0, r0, sl

00009f70 <__FUNCTION__.3893>:
    9f70:	6f705f51 	svcvs	0x00705f51
    9f74:	00000070 	andeq	r0, r0, r0, ror r0
    9f78:	4f525245 	svcmi	0x00525245
    9f7c:	73253a52 	teqvc	r5, #335872	; 0x52000
    9f80:	3a73253a 	bcc	1cd3470 <__bss_end__+0x1cc8ae8>
    9f84:	203a6425 	eorscs	r6, sl, r5, lsr #8
    9f88:	534c4146 	movtpl	r4, #49478	; 0xc146
    9f8c:	713c2845 	teqvc	ip, r5, asr #16
    9f90:	203d2120 	eorscs	r2, sp, r0, lsr #2
    9f94:	3a293e30 	bcc	a5985c <__bss_end__+0xa4eed4>
    9f98:	64616220 	strbtvs	r6, [r1], #-544	; 0x220
    9f9c:	706e6920 	rsbvc	r6, lr, r0, lsr #18
    9fa0:	000a7475 	andeq	r7, sl, r5, ror r4
    9fa4:	00682e51 	rsbeq	r2, r8, r1, asr lr
    9fa8:	4f525245 	svcmi	0x00525245
    9fac:	73253a52 	teqvc	r5, #335872	; 0x52000
    9fb0:	3a73253a 	bcc	1cd34a0 <__bss_end__+0x1cc8b18>
    9fb4:	203a6425 	eorscs	r6, sl, r5, lsr #8
    9fb8:	534c4146 	movtpl	r4, #49478	; 0xc146
    9fbc:	213c2845 	teqcs	ip, r5, asr #16
    9fc0:	743e2d71 	ldrtvc	r2, [lr], #-3441	; 0xd71
    9fc4:	3e6c6961 	cdpcc	9, 6, cr6, cr12, cr1, {3}
    9fc8:	69203a29 	stmdbvs	r0!, {r0, r3, r5, r9, fp, ip, sp}
    9fcc:	6c61766e 	stclvs	6, cr7, [r1], #-440	; 0xfffffe48
    9fd0:	51206469 	teqpl	r0, r9, ror #8
    9fd4:	0000000a 	andeq	r0, r0, sl
    9fd8:	5f697072 	svcpl	0x00697072
    9fdc:	6b726f66 	blvs	1ca5d7c <__bss_end__+0x1c9b3f4>
    9fe0:	74697720 	strbtvc	r7, [r9], #-1824	; 0x720
    9fe4:	68742068 	ldmdavs	r4!, {r3, r5, r6, sp}^
    9fe8:	64616572 	strbtvs	r6, [r1], #-1394	; 0x572
    9fec:	67657220 	strbvs	r7, [r5, -r0, lsr #4]!
    9ff0:	25203a73 	strcs	r3, [r0, #-2675]!	; 0xa73
    9ff4:	73202c78 	teqvc	r0, #120, 24	; 0x7800
    9ff8:	25203a70 	strcs	r3, [r0, #-2672]!	; 0xa70
    9ffc:	00000a78 	andeq	r0, r0, r8, ror sl
    a000:	756c6156 	strbvc	r6, [ip, #-342]!	; 0x156
    a004:	666f2065 	strbtvs	r2, [pc], -r5, rrx
    a008:	20435020 	subcs	r5, r3, r0, lsr #32
    a00c:	20726f66 	rsbscs	r6, r2, r6, ror #30
    a010:	76657270 			; <UNDEFINED> instruction: 0x76657270
    a014:	73756f69 	cmnvc	r5, #420	; 0x1a4
    a018:	72687420 	rsbvc	r7, r8, #32, 8	; 0x20000000
    a01c:	20646165 	rsbcs	r6, r4, r5, ror #2
    a020:	25206425 	strcs	r6, [r0, #-1061]!	; 0x425
    a024:	4c202c78 	stcmi	12, cr2, [r0], #-480	; 0xfffffe20
    a028:	78252052 	stmdavc	r5!, {r1, r4, r6, sp}
    a02c:	0000000a 	andeq	r0, r0, sl
    a030:	756c6156 	strbvc	r6, [ip, #-342]!	; 0x156
    a034:	66207365 	strtvs	r7, [r0], -r5, ror #6
    a038:	6e20726f 	cdpvs	2, 2, cr7, cr0, cr15, {3}
    a03c:	74207765 	strtvc	r7, [r0], #-1893	; 0x765
    a040:	61657268 	cmnvs	r5, r8, ror #4
    a044:	64252064 	strtvs	r2, [r5], #-100	; 0x64
    a048:	3a435020 	bcc	10de0d0 <__bss_end__+0x10d3748>
    a04c:	2c782520 	cfldr64cs	mvdx2, [r8], #-128	; 0xffffff80
    a050:	3a524c20 	bcc	149d0d8 <__bss_end__+0x1492750>
    a054:	000a7825 	andeq	r7, sl, r5, lsr #16
    a058:	756c6156 	strbvc	r6, [ip, #-342]!	; 0x156
    a05c:	6f742065 	svcvs	0x00742065
    a060:	20656220 	rsbcs	r6, r5, r0, lsr #4
    a064:	6e756f66 	cdpvs	15, 7, cr6, cr5, cr6, {3}
    a068:	25203a64 	strcs	r3, [r0, #-2660]!	; 0xa64
    a06c:	00000a78 	andeq	r0, r0, r8, ror sl
    a070:	69206e69 	stmdbvs	r0!, {r0, r3, r5, r6, r9, sl, fp, sp, lr}
    a074:	685f746e 	ldmdavs	pc, {r1, r2, r3, r5, r6, sl, ip, sp, lr}^	; <UNPREDICTABLE>
    a078:	6c646e61 	stclvs	14, cr6, [r4], #-388	; 0xfffffe7c
    a07c:	000a7265 	andeq	r7, sl, r5, ror #4
    a080:	65657250 	strbvs	r7, [r5, #-592]!	; 0x250
    a084:	6974706d 	ldmdbvs	r4!, {r0, r2, r3, r5, r6, ip, sp, lr}^
    a088:	202c6e6f 	eorcs	r6, ip, pc, ror #28
    a08c:	74697773 	strbtvc	r7, [r9], #-1907	; 0x773
    a090:	6e696863 	cdpvs	8, 6, cr6, cr9, cr3, {3}
    a094:	68742067 	ldmdavs	r4!, {r0, r1, r2, r5, r6, sp}^
    a098:	64616572 	strbtvs	r6, [r1], #-1394	; 0x572
    a09c:	000a2173 	andeq	r2, sl, r3, ror r1
    a0a0:	72646441 	rsbvc	r6, r4, #1090519040	; 0x41000000
    a0a4:	20736920 	rsbscs	r6, r3, r0, lsr #18
    a0a8:	000a6425 	andeq	r6, sl, r5, lsr #8
    a0ac:	76657270 			; <UNDEFINED> instruction: 0x76657270
    a0b0:	73756f69 	cmnvc	r5, #420	; 0x1a4
    a0b4:	7268745f 	rsbvc	r7, r8, #1593835520	; 0x5f000000
    a0b8:	20646165 	rsbcs	r6, r4, r5, ror #2
    a0bc:	6f207073 	svcvs	0x00207073
    a0c0:	69676972 	stmdbvs	r7!, {r1, r4, r5, r6, r8, fp, sp, lr}^
    a0c4:	206c616e 	rsbcs	r6, ip, lr, ror #2
    a0c8:	202c7825 	eorcs	r7, ip, r5, lsr #16
    a0cc:	65746661 	ldrbvs	r6, [r4, #-1633]!	; 0x661
    a0d0:	6f632072 	svcvs	0x00632072
    a0d4:	25206564 	strcs	r6, [r0, #-1380]!	; 0x564
    a0d8:	6e202c78 	mcrvs	12, 1, r2, cr0, cr8, {3}
    a0dc:	20747865 	rsbscs	r7, r4, r5, ror #16
    a0e0:	65726874 	ldrbvs	r6, [r2, #-2164]!	; 0x874
    a0e4:	73206461 	teqvc	r0, #1627389952	; 0x61000000
    a0e8:	78252070 	stmdavc	r5!, {r4, r5, r6, sp}
    a0ec:	0000000a 	andeq	r0, r0, sl
    a0f0:	74697773 	strbtvc	r7, [r9], #-1907	; 0x773
    a0f4:	6e696863 	cdpvs	8, 6, cr6, cr9, cr3, {3}
    a0f8:	6f742067 	svcvs	0x00742067
    a0fc:	72687420 	rsbvc	r7, r8, #32, 8	; 0x20000000
    a100:	20646165 	rsbcs	r6, r4, r5, ror #2
    a104:	000a6425 	andeq	r6, sl, r5, lsr #8
    a108:	73696874 	cmnvc	r9, #116, 16	; 0x740000
    a10c:	20736920 	rsbscs	r6, r3, r0, lsr #18
    a110:	20656874 	rsbcs	r6, r5, r4, ror r8
    a114:	65686373 	strbvs	r6, [r8, #-883]!	; 0x373
    a118:	656c7564 	strbvs	r7, [ip, #-1380]!	; 0x564
    a11c:	68742072 	ldmdavs	r4!, {r1, r4, r5, r6, sp}^
    a120:	64616572 	strbtvs	r6, [r1], #-1394	; 0x572
    a124:	206e6f20 	rsbcs	r6, lr, r0, lsr #30
    a128:	69206e61 	stmdbvs	r0!, {r0, r5, r6, r9, sl, fp, sp, lr}
    a12c:	6e69666e 	cdpvs	6, 6, cr6, cr9, cr14, {3}
    a130:	20657469 	rsbcs	r7, r5, r9, ror #8
    a134:	706f6f6c 	rsbvc	r6, pc, ip, ror #30
    a138:	0000000a 	andeq	r0, r0, sl
    a13c:	253d3072 	ldrcs	r3, [sp, #-114]!	; 0x72
    a140:	72202c78 	eorvc	r2, r0, #120, 24	; 0x7800
    a144:	78253d31 	stmdavc	r5!, {r0, r4, r5, r8, sl, fp, ip, sp}
    a148:	3d327220 	lfmcc	f7, 4, [r2, #-128]!	; 0xffffff80
    a14c:	72207825 	eorvc	r7, r0, #2424832	; 0x250000
    a150:	78253d33 	stmdavc	r5!, {r0, r1, r4, r5, r8, sl, fp, ip, sp}
    a154:	0000000a 	andeq	r0, r0, sl

0000a158 <__FUNCTION__.3851>:
    a158:	74736166 	ldrbtvc	r6, [r3], #-358	; 0x166
    a15c:	746e695f 	strbtvc	r6, [lr], #-2399	; 0x95f
    a160:	75727265 	ldrbvc	r7, [r2, #-613]!	; 0x265
    a164:	765f7470 			; <UNDEFINED> instruction: 0x765f7470
    a168:	6f746365 	svcvs	0x00746365
    a16c:	00000072 	andeq	r0, r0, r2, ror r0

0000a170 <__FUNCTION__.3855>:
    a170:	74666f73 	strbtvc	r6, [r6], #-3955	; 0xf73
    a174:	65726177 	ldrbvs	r6, [r2, #-375]!	; 0x177
    a178:	746e695f 	strbtvc	r6, [lr], #-2399	; 0x95f
    a17c:	75727265 	ldrbvc	r7, [r2, #-613]!	; 0x265
    a180:	765f7470 			; <UNDEFINED> instruction: 0x765f7470
    a184:	6f746365 	svcvs	0x00746365
    a188:	00000072 	andeq	r0, r0, r2, ror r0

0000a18c <__FUNCTION__.3859>:
    a18c:	65736572 	ldrbvs	r6, [r3, #-1394]!	; 0x572
    a190:	65765f74 	ldrbvs	r5, [r6, #-3956]!	; 0xf74
    a194:	726f7463 	rsbvc	r7, pc, #1660944384	; 0x63000000
    a198:	00000000 	andeq	r0, r0, r0

0000a19c <__FUNCTION__.3863>:
    a19c:	65646e75 	strbvs	r6, [r4, #-3701]!	; 0xe75
    a1a0:	656e6966 	strbvs	r6, [lr, #-2406]!	; 0x966
    a1a4:	6e695f64 	cdpvs	15, 6, cr5, cr9, cr4, {3}
    a1a8:	75727473 	ldrbvc	r7, [r2, #-1139]!	; 0x473
    a1ac:	6f697463 	svcvs	0x00697463
    a1b0:	65765f6e 	ldrbvs	r5, [r6, #-3950]!	; 0xf6e
    a1b4:	726f7463 	rsbvc	r7, pc, #1660944384	; 0x63000000
    a1b8:	00000000 	andeq	r0, r0, r0

0000a1bc <__FUNCTION__.3867>:
    a1bc:	66657270 			; <UNDEFINED> instruction: 0x66657270
    a1c0:	68637465 	stmdavs	r3!, {r0, r2, r5, r6, sl, ip, sp, lr}^
    a1c4:	6f62615f 	svcvs	0x0062615f
    a1c8:	765f7472 			; <UNDEFINED> instruction: 0x765f7472
    a1cc:	6f746365 	svcvs	0x00746365
    a1d0:	00000072 	andeq	r0, r0, r2, ror r0

0000a1d4 <__FUNCTION__.3871>:
    a1d4:	61746164 	cmnvs	r4, r4, ror #2
    a1d8:	6f62615f 	svcvs	0x0062615f
    a1dc:	765f7472 			; <UNDEFINED> instruction: 0x765f7472
    a1e0:	6f746365 	svcvs	0x00746365
    a1e4:	00000072 	andeq	r0, r0, r2, ror r0
    a1e8:	74736e69 	ldrbtvc	r6, [r3], #-3689	; 0xe69
    a1ec:	5f6c6c61 	svcpl	0x006c6c61
    a1f0:	5f746e69 	svcpl	0x00746e69
    a1f4:	646e6168 	strbtvs	r6, [lr], #-360	; 0x168
    a1f8:	7372656c 	cmnvc	r2, #108, 10	; 0x1b000000
    a1fc:	0000000a 	andeq	r0, r0, sl
    a200:	494e4150 	stmdbmi	lr, {r4, r6, r8, lr}^
    a204:	73253a43 	teqvc	r5, #274432	; 0x43000
    a208:	3a73253a 	bcc	1cd36f8 <__bss_end__+0x1cc8d70>
    a20c:	453a6425 	ldrmi	r6, [sl, #-1061]!	; 0x425
    a210:	524f5252 	subpl	r5, pc, #536870917	; 0x20000005
    a214:	6e75203a 	mrcvs	0, 3, r2, cr5, cr10, {1}
    a218:	646e6168 	strbtvs	r6, [lr], #-360	; 0x168
    a21c:	2064656c 	rsbcs	r6, r4, ip, ror #10
    a220:	65637865 	strbvs	r7, [r3, #-2149]!	; 0x865
    a224:	6f697470 	svcvs	0x00697470
    a228:	253c206e 	ldrcs	r2, [ip, #-110]!	; 0x6e
    a22c:	61203e73 	teqvs	r0, r3, ror lr
    a230:	43502074 	cmpmi	r0, #116	; 0x74
    a234:	0a78253d 	beq	1e13730 <__bss_end__+0x1e08da8>
    a238:	0000000a 	andeq	r0, r0, sl
    a23c:	2e2f2e2e 	cdpcs	14, 2, cr2, cr15, cr14, {1}
    a240:	616c2f2e 	cmnvs	ip, lr, lsr #30
    a244:	692d3762 	pushvs	{r1, r5, r6, r8, r9, sl, ip, sp}
    a248:	7265746e 	rsbvc	r7, r5, #1845493760	; 0x6e000000
    a24c:	74707572 	ldrbtvc	r7, [r0], #-1394	; 0x572
    a250:	69742f73 	ldmdbvs	r4!, {r0, r1, r4, r5, r6, r8, r9, sl, fp, sp}^
    a254:	2d72656d 	cfldr64cs	mvdx6, [r2, #-436]!	; 0xfffffe4c
    a258:	2f746e69 	svccs	0x00746e69
    a25c:	746e692f 	strbtvc	r6, [lr], #-2351	; 0x92f
    a260:	75727265 	ldrbvc	r7, [r2, #-613]!	; 0x265
    a264:	2d737470 	cfldrdcs	mvd7, [r3, #-448]!	; 0xfffffe40
    a268:	00632e63 	rsbeq	r2, r3, r3, ror #28
    a26c:	74736166 	ldrbtvc	r6, [r3], #-358	; 0x166
    a270:	00000000 	andeq	r0, r0, r0
    a274:	74666f73 	strbtvc	r6, [r6], #-3955	; 0xf73
    a278:	746e6920 	strbtvc	r6, [lr], #-2336	; 0x920
    a27c:	75727265 	ldrbvc	r7, [r2, #-613]!	; 0x265
    a280:	00007470 	andeq	r7, r0, r0, ror r4
    a284:	65736572 	ldrbvs	r6, [r3, #-1394]!	; 0x572
    a288:	65762074 	ldrbvs	r2, [r6, #-116]!	; 0x74
    a28c:	726f7463 	rsbvc	r7, pc, #1660944384	; 0x63000000
    a290:	00000000 	andeq	r0, r0, r0
    a294:	65646e75 	strbvs	r6, [r4, #-3701]!	; 0xe75
    a298:	656e6966 	strbvs	r6, [lr, #-2406]!	; 0x966
    a29c:	6e692064 	cdpvs	0, 6, cr2, cr9, cr4, {3}
    a2a0:	75727473 	ldrbvc	r7, [r2, #-1139]!	; 0x473
    a2a4:	6f697463 	svcvs	0x00697463
    a2a8:	0000006e 	andeq	r0, r0, lr, rrx
    a2ac:	66657270 			; <UNDEFINED> instruction: 0x66657270
    a2b0:	68637465 	stmdavs	r3!, {r0, r2, r5, r6, sl, ip, sp, lr}^
    a2b4:	6f626120 	svcvs	0x00626120
    a2b8:	00007472 	andeq	r7, r0, r2, ror r4
    a2bc:	61746164 	cmnvs	r4, r4, ror #2
    a2c0:	6f626120 	svcvs	0x00626120
    a2c4:	00007472 	andeq	r7, r0, r2, ror r4

0000a2c8 <__FUNCTION__.3867>:
    a2c8:	74696d65 	strbtvc	r6, [r9], #-3429	; 0xd65
    a2cc:	00000000 	andeq	r0, r0, r0

0000a2d0 <__FUNCTION__.3882>:
    a2d0:	705f6176 	subsvc	r6, pc, r6, ror r1	; <UNPREDICTABLE>
    a2d4:	746e6972 	strbtvc	r6, [lr], #-2418	; 0x972
    a2d8:	0000006b 	andeq	r0, r0, fp, rrx
    a2dc:	494e4150 	stmdbmi	lr, {r4, r6, r8, lr}^
    a2e0:	73253a43 	teqvc	r5, #274432	; 0x43000
    a2e4:	3a73253a 	bcc	1cd37d4 <__bss_end__+0x1cc8e4c>
    a2e8:	303a6425 	eorscc	r6, sl, r5, lsr #8
    a2ec:	0000000a 	andeq	r0, r0, sl
    a2f0:	34317363 	ldrtcc	r7, [r1], #-867	; 0x363
    a2f4:	702d6530 	eorvc	r6, sp, r0, lsr r5
    a2f8:	746e6972 	strbtvc	r6, [lr], #-2418	; 0x972
    a2fc:	00632e66 	rsbeq	r2, r3, r6, ror #28
    a300:	33323130 	teqcc	r2, #48, 2
    a304:	37363534 			; <UNDEFINED> instruction: 0x37363534
    a308:	00003938 	andeq	r3, r0, r8, lsr r9
    a30c:	33323130 	teqcc	r2, #48, 2
    a310:	37363534 			; <UNDEFINED> instruction: 0x37363534
    a314:	62613938 	rsbvs	r3, r1, #56, 18	; 0xe0000
    a318:	66656463 	strbtvs	r6, [r5], -r3, ror #8
    a31c:	00000000 	andeq	r0, r0, r0
    a320:	00003130 	andeq	r3, r0, r0, lsr r1
    a324:	494e4150 	stmdbmi	lr, {r4, r6, r8, lr}^
    a328:	73253a43 	teqvc	r5, #274432	; 0x43000
    a32c:	3a73253a 	bcc	1cd381c <__bss_end__+0x1cc8e94>
    a330:	773a6425 	ldrvc	r6, [sl, -r5, lsr #8]!
    a334:	68746469 	ldmdavs	r4!, {r0, r3, r5, r6, sl, sp, lr}^
    a338:	33203c20 	teqcc	r0, #32, 24	; 0x2000
    a33c:	00000a32 	andeq	r0, r0, r2, lsr sl
    a340:	494e4150 	stmdbmi	lr, {r4, r6, r8, lr}^
    a344:	73253a43 	teqvc	r5, #274432	; 0x43000
    a348:	3a73253a 	bcc	1cd3838 <__bss_end__+0x1cc8eb0>
    a34c:	663a6425 	ldrtvs	r6, [sl], -r5, lsr #8
    a350:	74616f6c 	strbtvc	r6, [r1], #-3948	; 0xf6c
    a354:	746f6e20 	strbtvc	r6, [pc], #-3616	; a35c <__FUNCTION__.3882+0x8c>
    a358:	616e6520 	cmnvs	lr, r0, lsr #10
    a35c:	64656c62 	strbtvs	r6, [r5], #-3170	; 0xc62
    a360:	0a212121 	beq	8527ec <__bss_end__+0x847e64>
    a364:	00000000 	andeq	r0, r0, r0
    a368:	494e4150 	stmdbmi	lr, {r4, r6, r8, lr}^
    a36c:	73253a43 	teqvc	r5, #274432	; 0x43000
    a370:	3a73253a 	bcc	1cd3860 <__bss_end__+0x1cc8ed8>
    a374:	703a6425 	eorsvc	r6, sl, r5, lsr #8
    a378:	746e6972 	strbtvc	r6, [lr], #-2418	; 0x972
    a37c:	6e203a6b 	vnmulvs.f32	s6, s0, s23
    a380:	6820746f 	stmdavs	r0!, {r0, r1, r2, r3, r5, r6, sl, ip, sp, lr}
    a384:	6c646e61 	stclvs	14, cr6, [r4], #-388	; 0xfffffe7c
    a388:	20676e69 	rsbcs	r6, r7, r9, ror #28
    a38c:	63657073 	cmnvs	r5, #115	; 0x73
    a390:	65696669 	strbvs	r6, [r9, #-1641]!	; 0x669
    a394:	25272072 	strcs	r2, [r7, #-114]!	; 0x72
    a398:	0a0a2763 	beq	29412c <__bss_end__+0x2897a4>
    a39c:	00000000 	andeq	r0, r0, r0
    a3a0:	00007825 	andeq	r7, r0, r5, lsr #16
    a3a4:	4e41503c 	mcrmi	0, 2, r5, cr1, cr12, {1}
    a3a8:	3a3e4349 	bcc	f9b0d4 <__bss_end__+0xf9074c>
    a3ac:	00000000 	andeq	r0, r0, r0
    a3b0:	253a7325 	ldrcs	r7, [sl, #-805]!	; 0x325
    a3b4:	50203a64 	eorpl	r3, r0, r4, ror #20
    a3b8:	43494e41 	movtmi	r4, #40513	; 0x9e41
    a3bc:	4e415020 	cdpmi	0, 4, cr5, cr1, cr0, {1}
    a3c0:	50204349 	eorpl	r4, r0, r9, asr #6
    a3c4:	43494e41 	movtmi	r4, #40513	; 0x9e41
    a3c8:	7325203a 	teqvc	r5, #58	; 0x3a
    a3cc:	0000000a 	andeq	r0, r0, sl

0000a3d0 <__FUNCTION__.3818>:
    a3d0:	5f697072 	svcpl	0x00697072
    a3d4:	6f626572 	svcvs	0x00626572
    a3d8:	0000746f 	andeq	r7, r0, pc, ror #8
    a3dc:	494e4150 	stmdbmi	lr, {r4, r6, r8, lr}^
    a3e0:	73253a43 	teqvc	r5, #274432	; 0x43000
    a3e4:	3a73253a 	bcc	1cd38d4 <__bss_end__+0x1cc8f4c>
    a3e8:	613a6425 	teqvs	sl, r5, lsr #8
    a3ec:	73755f74 	cmnvc	r5, #116, 30	; 0x1d0
    a3f0:	6c5f7265 	lfmvs	f7, 2, [pc], {101}	; 0x65
    a3f4:	6c657665 	stclvs	6, cr7, [r5], #-404	; 0xfffffe6c
    a3f8:	000a2928 	andeq	r2, sl, r8, lsr #18
    a3fc:	34317363 	ldrtcc	r7, [r1], #-867	; 0x363
    a400:	722d6530 	eorvc	r6, sp, #48, 10	; 0xc000000
    a404:	6f6f6265 	svcvs	0x006f6265
    a408:	00632e74 	rsbeq	r2, r3, r4, ror lr
    a40c:	454e4f44 	strbmi	r4, [lr, #-3908]	; 0xf44
    a410:	0a212121 	beq	85289c <__bss_end__+0x847f14>
    a414:	00000000 	andeq	r0, r0, r0

0000a418 <__FUNCTION__.3823>:
    a418:	6c616d6b 	stclvs	13, cr6, [r1], #-428	; 0xfffffe54
    a41c:	5f636f6c 	svcpl	0x00636f6c
    a420:	5f746573 	svcpl	0x00746573
    a424:	72617473 	rsbvc	r7, r1, #1929379840	; 0x73000000
    a428:	00000074 	andeq	r0, r0, r4, ror r0

0000a42c <__FUNCTION__.3832>:
    a42c:	6c616d6b 	stclvs	13, cr6, [r1], #-428	; 0xfffffe54
    a430:	5f636f6c 	svcpl	0x00636f6c
    a434:	67696c61 	strbvs	r6, [r9, -r1, ror #24]!
    a438:	0064656e 	rsbeq	r6, r4, lr, ror #10
    a43c:	494e4150 	stmdbmi	lr, {r4, r6, r8, lr}^
    a440:	73253a43 	teqvc	r5, #274432	; 0x43000
    a444:	3a73253a 	bcc	1cd3934 <__bss_end__+0x1cc8fac>
    a448:	613a6425 	teqvs	sl, r5, lsr #8
    a44c:	20726464 	rsbscs	r6, r2, r4, ror #8
    a450:	6568203e 	strbvs	r2, [r8, #-62]!	; 0x3e
    a454:	000a7061 	andeq	r7, sl, r1, rrx
    a458:	34317363 	ldrtcc	r7, [r1], #-867	; 0x363
    a45c:	6b2d6530 	blvs	b63924 <__bss_end__+0xb58f9c>
    a460:	6c6c616d 	stfvse	f6, [ip], #-436	; 0xfffffe4c
    a464:	632e636f 	teqvs	lr, #-1140850687	; 0xbc000001
    a468:	00000000 	andeq	r0, r0, r0
    a46c:	4f525245 	svcmi	0x00525245
    a470:	73253a52 	teqvc	r5, #335872	; 0x52000
    a474:	3a73253a 	bcc	1cd3964 <__bss_end__+0x1cc8fdc>
    a478:	203a6425 	eorscs	r6, sl, r5, lsr #8
    a47c:	534c4146 	movtpl	r4, #49478	; 0xc146
    a480:	283c2845 	ldmdacs	ip!, {r0, r2, r6, fp, sp}
    a484:	6c612828 	stclvs	8, cr2, [r1], #-160	; 0xffffff60
    a488:	6d6e6769 	stclvs	7, cr6, [lr, #-420]!	; 0xfffffe5c
    a48c:	29746e65 	ldmdbcs	r4!, {r0, r2, r5, r6, r9, sl, fp, sp, lr}^
    a490:	61282d26 	teqvs	r8, r6, lsr #26
    a494:	6e67696c 	cdpvs	9, 6, cr6, cr7, cr12, {3}
    a498:	746e656d 	strbtvc	r6, [lr], #-1389	; 0x56d
    a49c:	3d202929 	stccc	9, cr2, [r0, #-164]!	; 0xffffff5c
    a4a0:	6128203d 	teqvs	r8, sp, lsr r0
    a4a4:	6e67696c 	cdpvs	9, 6, cr6, cr7, cr12, {3}
    a4a8:	746e656d 	strbtvc	r6, [lr], #-1389	; 0x56d
    a4ac:	293e2929 	ldmdbcs	lr!, {r0, r3, r5, r8, fp, sp}
    a4b0:	7361203a 	cmnvc	r1, #58	; 0x3a
    a4b4:	696d7573 	stmdbvs	sp!, {r0, r1, r4, r5, r6, r8, sl, ip, sp, lr}^
    a4b8:	7020676e 	eorvc	r6, r0, lr, ror #14
    a4bc:	7265776f 	rsbvc	r7, r5, #29097984	; 0x1bc0000
    a4c0:	20666f20 	rsbcs	r6, r6, r0, lsr #30
    a4c4:	0a6f7774 	beq	1be829c <__bss_end__+0x1bdd914>
    a4c8:	00000000 	andeq	r0, r0, r0
    a4cc:	4f525245 	svcmi	0x00525245
    a4d0:	73253a52 	teqvc	r5, #335872	; 0x52000
    a4d4:	3a73253a 	bcc	1cd39c4 <__bss_end__+0x1cc903c>
    a4d8:	203a6425 	eorscs	r6, sl, r5, lsr #8
    a4dc:	534c4146 	movtpl	r4, #49478	; 0xc146
    a4e0:	283c2845 	ldmdacs	ip!, {r0, r2, r6, fp, sp}
    a4e4:	29682828 	stmdbcs	r8!, {r3, r5, fp, sp}^
    a4e8:	28202620 	stmdacs	r0!, {r5, r9, sl, sp}
    a4ec:	70797428 	rsbsvc	r7, r9, r8, lsr #8
    a4f0:	28666f65 	stmdacs	r6!, {r0, r2, r5, r6, r8, r9, sl, fp, sp, lr}^
    a4f4:	28292968 	stmdacs	r9!, {r3, r5, r6, r8, fp, sp}
    a4f8:	67696c61 	strbvs	r6, [r9, -r1, ror #24]!
    a4fc:	6e656d6e 	cdpvs	13, 6, cr6, cr5, cr14, {3}
    a500:	2d202974 	stccs	9, cr2, [r0, #-464]!	; 0xfffffe30
    a504:	29293120 	stmdbcs	r9!, {r5, r8, ip, sp}
    a508:	203d3d20 	eorscs	r3, sp, r0, lsr #26
    a50c:	293e2930 	ldmdbcs	lr!, {r4, r5, r8, fp, sp}
    a510:	6d69203a 	stclvs	0, cr2, [r9, #-232]!	; 0xffffff18
    a514:	73736f70 	cmnvc	r3, #112, 30	; 0x1c0
    a518:	656c6269 	strbvs	r6, [ip, #-617]!	; 0x269
    a51c:	0000000a 	andeq	r0, r0, sl

0000a520 <__FUNCTION__.3832>:
    a520:	6f697067 	svcvs	0x00697067
    a524:	6165725f 	cmnvs	r5, pc, asr r2
    a528:	00000064 	andeq	r0, r0, r4, rrx
    a52c:	494e4150 	stmdbmi	lr, {r4, r6, r8, lr}^
    a530:	73253a43 	teqvc	r5, #274432	; 0x43000
    a534:	3a73253a 	bcc	1cd3a24 <__bss_end__+0x1cc909c>
    a538:	703a6425 	eorsvc	r6, sl, r5, lsr #8
    a53c:	3c206e69 	stccc	14, cr6, [r0], #-420	; 0xfffffe5c
    a540:	0a323320 	beq	c971c8 <__bss_end__+0xc8c840>
    a544:	00000000 	andeq	r0, r0, r0
    a548:	672d796d 	strvs	r7, [sp, -sp, ror #18]!
    a54c:	2e6f6970 	mcrcs	9, 3, r6, cr15, cr0, {3}
    a550:	00000063 	andeq	r0, r0, r3, rrx

Disassembly of section .bss:

0000a554 <__bss_start__>:
    a554:	00000000 	andeq	r0, r0, r0

0000a558 <freeq>:
	...

0000a564 <nthreads>:
    a564:	00000000 	andeq	r0, r0, r0

0000a568 <runq>:
	...

0000a574 <cur_thread>:
    a574:	00000000 	andeq	r0, r0, r0

0000a578 <scheduler_thread>:
    a578:	00000000 	andeq	r0, r0, r0

0000a57c <buf.3909>:
	...

0000a97c <thread_sum>:
    a97c:	00000000 	andeq	r0, r0, r0

0000a980 <thread_count>:
	...

Disassembly of section .comment:

00000000 <.comment>:
   0:	3a434347 	bcc	10d0d24 <__bss_end__+0x10c639c>
   4:	4e472820 	cdpmi	8, 4, cr2, cr7, cr0, {1}
   8:	34202955 	strtcc	r2, [r0], #-2389	; 0x955
   c:	332e382e 	teqcc	lr, #3014656	; 0x2e0000
  10:	43434700 	movtmi	r4, #14080	; 0x3700
  14:	4728203a 			; <UNDEFINED> instruction: 0x4728203a
  18:	5420554e 	strtpl	r5, [r0], #-1358	; 0x54e
  1c:	736c6f6f 	cmnvc	ip, #444	; 0x1bc
  20:	726f6620 	rsbvc	r6, pc, #32, 12	; 0x2000000
  24:	6d724120 	ldfvse	f4, [r2, #-128]!	; 0xffffff80
  28:	626d4520 	rsbvs	r4, sp, #32, 10	; 0x8000000
  2c:	65646465 	strbvs	r6, [r4, #-1125]!	; 0x465
  30:	72502064 	subsvc	r2, r0, #100	; 0x64
  34:	7365636f 	cmnvc	r5, #-1140850687	; 0xbc000001
  38:	73726f73 	cmnvc	r2, #460	; 0x1cc
  3c:	322d3720 	eorcc	r3, sp, #32, 14	; 0x800000
  40:	2d383130 	ldfcss	f3, [r8, #-192]!	; 0xffffff40
  44:	752d3371 	strvc	r3, [sp, #-881]!	; 0x371
  48:	74616470 	strbtvc	r6, [r1], #-1136	; 0x470
  4c:	37202965 	strcc	r2, [r0, -r5, ror #18]!
  50:	312e332e 	teqcc	lr, lr, lsr #6
  54:	31303220 	teqcc	r0, r0, lsr #4
  58:	32363038 	eorscc	r3, r6, #56	; 0x38
  5c:	72282032 	eorvc	r2, r8, #50	; 0x32
  60:	61656c65 	cmnvs	r5, r5, ror #24
  64:	20296573 	eorcs	r6, r9, r3, ror r5
  68:	4d52415b 	ldfmie	f4, [r2, #-364]	; 0xfffffe94
  6c:	626d652f 	rsbvs	r6, sp, #197132288	; 0xbc00000
  70:	65646465 	strbvs	r6, [r4, #-1125]!	; 0x465
  74:	2d372d64 	ldccs	13, cr2, [r7, #-400]!	; 0xfffffe70
  78:	6e617262 	cdpvs	2, 6, cr7, cr1, cr2, {3}
  7c:	72206863 	eorvc	r6, r0, #6488064	; 0x630000
  80:	73697665 	cmnvc	r9, #105906176	; 0x6500000
  84:	206e6f69 	rsbcs	r6, lr, r9, ror #30
  88:	39313632 	ldmdbcc	r1!, {r1, r4, r5, r9, sl, ip, sp}
  8c:	005d3730 	subseq	r3, sp, r0, lsr r7

Disassembly of section .ARM.attributes:

00000000 <.ARM.attributes>:
   0:	00002c41 	andeq	r2, r0, r1, asr #24
   4:	61656100 	cmnvs	r5, r0, lsl #2
   8:	01006962 	tsteq	r0, r2, ror #18
   c:	00000022 	andeq	r0, r0, r2, lsr #32
  10:	4b5a3605 	blmi	168d82c <__bss_end__+0x1682ea4>
  14:	08070600 	stmdaeq	r7, {r9, sl}
  18:	12010901 	andne	r0, r1, #16384	; 0x4000
  1c:	15011404 	strne	r1, [r1, #-1028]	; 0x404
  20:	18031701 	stmdane	r3, {r0, r8, r9, sl, ip}
  24:	1e011a01 	vmlane.f32	s2, s2, s2
  28:	44012201 	strmi	r2, [r1], #-513	; 0x201
  2c:	Address 0x000000000000002c is out of bounds.

